---
triple:          'x86_64-apple-darwin'
binary-path:     '/Users/daixuanhuo/Downloads/CSM151B_P2/tinyrv'
relocations:
  - { offsetInCU: 0xDF, offset: 0xDF, size: 0x8, addend: 0x0, symName: __Z13fileExtensionPKc, symObjAddr: 0x0, symBinAddr: 0x100003C70, symSize: 0x45 }
  - { offsetInCU: 0xE7, offset: 0xE7, size: 0x8, addend: 0x0, symName: __ZStL19piecewise_construct, symObjAddr: 0x112, symBinAddr: 0x10002E3C0, symSize: 0x0 }
  - { offsetInCU: 0x555, offset: 0x555, size: 0x8, addend: 0x0, symName: __ZStL19piecewise_construct, symObjAddr: 0x112, symBinAddr: 0x10002E3C0, symSize: 0x0 }
  - { offsetInCU: 0xF3A, offset: 0xF3A, size: 0x8, addend: 0x0, symName: __Z12aligned_freePv, symObjAddr: 0xEB, symBinAddr: 0x100003D5B, symSize: 0x27 }
  - { offsetInCU: 0xF42, offset: 0xF42, size: 0x8, addend: 0x0, symName: __ZStL19piecewise_construct, symObjAddr: 0x112, symBinAddr: 0x10002E3C0, symSize: 0x0 }
  - { offsetInCU: 0xF8A, offset: 0xF8A, size: 0x8, addend: 0x0, symName: __Z14aligned_mallocmm, symObjAddr: 0x45, symBinAddr: 0x100003CB5, symSize: 0xA6 }
  - { offsetInCU: 0xF92, offset: 0xF92, size: 0x8, addend: 0x0, symName: __Z12aligned_freePv, symObjAddr: 0xEB, symBinAddr: 0x100003D5B, symSize: 0x27 }
  - { offsetInCU: 0x1051, offset: 0x1051, size: 0x8, addend: 0x0, symName: __Z13fileExtensionPKc, symObjAddr: 0x0, symBinAddr: 0x100003C70, symSize: 0x45 }
  - { offsetInCU: 0x1059, offset: 0x1059, size: 0x8, addend: 0x0, symName: __Z14aligned_mallocmm, symObjAddr: 0x45, symBinAddr: 0x100003CB5, symSize: 0xA6 }
  - { offsetInCU: 0xDF, offset: 0x1163, size: 0x8, addend: 0x0, symName: __ZSt17__size_to_integerm, symObjAddr: 0x0, symBinAddr: 0x100003D82, symSize: 0xE }
  - { offsetInCU: 0x5F2, offset: 0x1676, size: 0x8, addend: 0x0, symName: __ZStL19piecewise_construct, symObjAddr: 0x80C0, symBinAddr: 0x10002E3E0, symSize: 0x0 }
  - { offsetInCU: 0xDBF, offset: 0x1E43, size: 0x8, addend: 0x0, symName: __ZStL13allocator_arg, symObjAddr: 0x80C1, symBinAddr: 0x10002E3E1, symSize: 0x0 }
  - { offsetInCU: 0xEBD, offset: 0x1F41, size: 0x8, addend: 0x0, symName: __ZStL6ignore, symObjAddr: 0x80C2, symBinAddr: 0x10002E3E2, symSize: 0x0 }
  - { offsetInCU: 0xFAAC, offset: 0x10B30, size: 0x8, addend: 0x0, symName: __ZStL8__ioinit, symObjAddr: 0x82830, symBinAddr: 0x100058FC0, symSize: 0x0 }
  - { offsetInCU: 0x14E27, offset: 0x15EAB, size: 0x8, addend: 0x0, symName: __GLOBAL__sub_I_mem.cpp, symObjAddr: 0x80AC, symBinAddr: 0x10000BBE8, symSize: 0xB }
  - { offsetInCU: 0x14E54, offset: 0x15ED8, size: 0x8, addend: 0x0, symName: __Z41__static_initialization_and_destruction_0v, symObjAddr: 0x8073, symBinAddr: 0x10000BBAF, symSize: 0x39 }
  - { offsetInCU: 0x14E5C, offset: 0x15EE0, size: 0x8, addend: 0x0, symName: __GLOBAL__sub_I_mem.cpp, symObjAddr: 0x80AC, symBinAddr: 0x10000BBE8, symSize: 0xB }
  - { offsetInCU: 0x14ECE, offset: 0x15F52, size: 0x8, addend: 0x0, symName: __ZSt4moveIRN6tinyrv10MemoryUnit8ADecoder7entry_tEEONSt16remove_referenceIT_E4typeEOS6_, symObjAddr: 0x8065, symBinAddr: 0x10000BBA1, symSize: 0xE }
  - { offsetInCU: 0x14ED6, offset: 0x15F5A, size: 0x8, addend: 0x0, symName: __Z41__static_initialization_and_destruction_0v, symObjAddr: 0x8073, symBinAddr: 0x10000BBAF, symSize: 0x39 }
  - { offsetInCU: 0x14E9A, offset: 0x15F1E, size: 0x8, addend: 0x0, symName: __ZNSt11__copy_moveILb1ELb0ESt26random_access_iterator_tagE12__assign_oneIhhEEvPT_PT0_, symObjAddr: 0x803D, symBinAddr: 0x10000BB79, symSize: 0x28 }
  - { offsetInCU: 0x14EA2, offset: 0x15F26, size: 0x8, addend: 0x0, symName: __ZSt4moveIRN6tinyrv10MemoryUnit8ADecoder7entry_tEEONSt16remove_referenceIT_E4typeEOS6_, symObjAddr: 0x8065, symBinAddr: 0x10000BBA1, symSize: 0xE }
  - { offsetInCU: 0x14EFA, offset: 0x15F7E, size: 0x8, addend: 0x0, symName: __ZNSt10_Head_baseILm0EOyLb0EE7_M_headERS1_, symObjAddr: 0x802C, symBinAddr: 0x10000BB68, symSize: 0x11 }
  - { offsetInCU: 0x14F02, offset: 0x15F86, size: 0x8, addend: 0x0, symName: __ZNSt11__copy_moveILb1ELb0ESt26random_access_iterator_tagE12__assign_oneIhhEEvPT_PT0_, symObjAddr: 0x803D, symBinAddr: 0x10000BB79, symSize: 0x28 }
  - { offsetInCU: 0x14F2B, offset: 0x15FAF, size: 0x8, addend: 0x0, symName: __ZNSt11__copy_moveILb1ELb0ESt26random_access_iterator_tagE12__assign_oneIN6tinyrv10MemoryUnit8ADecoder7entry_tES6_EEvPT_PT0_, symObjAddr: 0x7FF3, symBinAddr: 0x10000BB2F, symSize: 0x39 }
  - { offsetInCU: 0x14F33, offset: 0x15FB7, size: 0x8, addend: 0x0, symName: __ZNSt10_Head_baseILm0EOyLb0EE7_M_headERS1_, symObjAddr: 0x802C, symBinAddr: 0x10000BB68, symSize: 0x11 }
  - { offsetInCU: 0x14F8B, offset: 0x1600F, size: 0x8, addend: 0x0, symName: __ZNSt11__copy_moveILb1ELb1ESt26random_access_iterator_tagE8__copy_mIhhEEPT0_PT_S6_S4_, symObjAddr: 0x7F83, symBinAddr: 0x10000BABF, symSize: 0x70 }
  - { offsetInCU: 0x14F93, offset: 0x16017, size: 0x8, addend: 0x0, symName: __ZNSt11__copy_moveILb1ELb0ESt26random_access_iterator_tagE12__assign_oneIN6tinyrv10MemoryUnit8ADecoder7entry_tES6_EEvPT_PT0_, symObjAddr: 0x7FF3, symBinAddr: 0x10000BB2F, symSize: 0x39 }
  - { offsetInCU: 0x15013, offset: 0x16097, size: 0x8, addend: 0x0, symName: __ZNSt11_Tuple_implILm0EJOyEE7_M_headERS1_, symObjAddr: 0x7F69, symBinAddr: 0x10000BAA5, symSize: 0x1A }
  - { offsetInCU: 0x1501B, offset: 0x1609F, size: 0x8, addend: 0x0, symName: __ZNSt11__copy_moveILb1ELb1ESt26random_access_iterator_tagE8__copy_mIhhEEPT0_PT_S6_S4_, symObjAddr: 0x7F83, symBinAddr: 0x10000BABF, symSize: 0x70 }
  - { offsetInCU: 0x15045, offset: 0x160C9, size: 0x8, addend: 0x0, symName: __ZNSt11__copy_moveILb1ELb1ESt26random_access_iterator_tagE8__copy_mIN6tinyrv10MemoryUnit8ADecoder7entry_tES6_EEPT0_PT_SA_S8_, symObjAddr: 0x7EC4, symBinAddr: 0x10000BA00, symSize: 0xA5 }
  - { offsetInCU: 0x1504D, offset: 0x160D1, size: 0x8, addend: 0x0, symName: __ZNSt11_Tuple_implILm0EJOyEE7_M_headERS1_, symObjAddr: 0x7F69, symBinAddr: 0x10000BAA5, symSize: 0x1A }
  - { offsetInCU: 0x15133, offset: 0x161B7, size: 0x8, addend: 0x0, symName: __ZSt14__copy_move_a2ILb1EPhS0_ET1_T0_S2_S1_, symObjAddr: 0x7E97, symBinAddr: 0x10000B9D3, symSize: 0x2D }
  - { offsetInCU: 0x1513B, offset: 0x161BF, size: 0x8, addend: 0x0, symName: __ZNSt11__copy_moveILb1ELb1ESt26random_access_iterator_tagE8__copy_mIN6tinyrv10MemoryUnit8ADecoder7entry_tES6_EEPT0_PT_SA_S8_, symObjAddr: 0x7EC4, symBinAddr: 0x10000BA00, symSize: 0xA5 }
  - { offsetInCU: 0x151E5, offset: 0x16269, size: 0x8, addend: 0x0, symName: __ZSt12__get_helperILm0EOyJEERT0_RSt11_Tuple_implIXT_EJS1_DpT1_EE, symObjAddr: 0x7E7D, symBinAddr: 0x10000B9B9, symSize: 0x1A }
  - { offsetInCU: 0x151ED, offset: 0x16271, size: 0x8, addend: 0x0, symName: __ZSt14__copy_move_a2ILb1EPhS0_ET1_T0_S2_S1_, symObjAddr: 0x7E97, symBinAddr: 0x10000B9D3, symSize: 0x2D }
  - { offsetInCU: 0x1528F, offset: 0x16313, size: 0x8, addend: 0x0, symName: __ZSt14__copy_move_a2ILb1EPN6tinyrv10MemoryUnit8ADecoder7entry_tES4_ET1_T0_S6_S5_, symObjAddr: 0x7E50, symBinAddr: 0x10000B98C, symSize: 0x2D }
  - { offsetInCU: 0x15297, offset: 0x1631B, size: 0x8, addend: 0x0, symName: __ZSt12__get_helperILm0EOyJEERT0_RSt11_Tuple_implIXT_EJS1_DpT1_EE, symObjAddr: 0x7E7D, symBinAddr: 0x10000B9B9, symSize: 0x1A }
  - { offsetInCU: 0x152A6, offset: 0x1632A, size: 0x8, addend: 0x0, symName: __ZSt12__niter_wrapIPhET_RKS1_S1_, symObjAddr: 0x7E3E, symBinAddr: 0x10000B97A, symSize: 0x12 }
  - { offsetInCU: 0x152AE, offset: 0x16332, size: 0x8, addend: 0x0, symName: __ZSt14__copy_move_a2ILb1EPN6tinyrv10MemoryUnit8ADecoder7entry_tES4_ET1_T0_S6_S5_, symObjAddr: 0x7E50, symBinAddr: 0x10000B98C, symSize: 0x2D }
  - { offsetInCU: 0x15321, offset: 0x163A5, size: 0x8, addend: 0x0, symName: __ZSt14__copy_move_a1ILb1EPhS0_ET1_T0_S2_S1_, symObjAddr: 0x7E11, symBinAddr: 0x10000B94D, symSize: 0x2D }
  - { offsetInCU: 0x15329, offset: 0x163AD, size: 0x8, addend: 0x0, symName: __ZSt12__niter_wrapIPhET_RKS1_S1_, symObjAddr: 0x7E3E, symBinAddr: 0x10000B97A, symSize: 0x12 }
  - { offsetInCU: 0x1536F, offset: 0x163F3, size: 0x8, addend: 0x0, symName: __ZSt12__miter_baseIPhET_S1_, symObjAddr: 0x7E03, symBinAddr: 0x10000B93F, symSize: 0xE }
  - { offsetInCU: 0x15377, offset: 0x163FB, size: 0x8, addend: 0x0, symName: __ZSt14__copy_move_a1ILb1EPhS0_ET1_T0_S2_S1_, symObjAddr: 0x7E11, symBinAddr: 0x10000B94D, symSize: 0x2D }
  - { offsetInCU: 0x15396, offset: 0x1641A, size: 0x8, addend: 0x0, symName: __ZNKSt13move_iteratorIPhE4baseEv, symObjAddr: 0x7DF2, symBinAddr: 0x10000B92E, symSize: 0x11 }
  - { offsetInCU: 0x1539E, offset: 0x16422, size: 0x8, addend: 0x0, symName: __ZSt12__miter_baseIPhET_S1_, symObjAddr: 0x7E03, symBinAddr: 0x10000B93F, symSize: 0xE }
  - { offsetInCU: 0x15433, offset: 0x164B7, size: 0x8, addend: 0x0, symName: __ZSt9__fill_a1IcEN9__gnu_cxx11__enable_ifIXsrSt9__is_byteIT_E7__valueEvE6__typeEPS3_S7_RKS3_, symObjAddr: 0x7DA4, symBinAddr: 0x10000B8E0, symSize: 0x4E }
  - { offsetInCU: 0x1546B, offset: 0x164EF, size: 0x8, addend: 0x0, symName: __ZNSt15__new_allocatorIPNSt8__detail15_Hash_node_baseEE8allocateEmPKv, symObjAddr: 0x7D3E, symBinAddr: 0x10000B87A, symSize: 0x66 }
  - { offsetInCU: 0x15473, offset: 0x164F7, size: 0x8, addend: 0x0, symName: __ZSt9__fill_a1IcEN9__gnu_cxx11__enable_ifIXsrSt9__is_byteIT_E7__valueEvE6__typeEPS3_S7_RKS3_, symObjAddr: 0x7DA4, symBinAddr: 0x10000B8E0, symSize: 0x4E }
  - { offsetInCU: 0x1553A, offset: 0x165BE, size: 0x8, addend: 0x0, symName: __ZSt7forwardIOyEOT_RNSt16remove_referenceIS1_E4typeE, symObjAddr: 0x7D30, symBinAddr: 0x10000B86C, symSize: 0xE }
  - { offsetInCU: 0x15542, offset: 0x165C6, size: 0x8, addend: 0x0, symName: __ZNSt15__new_allocatorIPNSt8__detail15_Hash_node_baseEE8allocateEmPKv, symObjAddr: 0x7D3E, symBinAddr: 0x10000B87A, symSize: 0x66 }
  - { offsetInCU: 0x155A0, offset: 0x16624, size: 0x8, addend: 0x0, symName: __ZSt3getILm0EJOyEERNSt13tuple_elementIXT_ESt5tupleIJDpT0_EEE4typeERS5_, symObjAddr: 0x7D16, symBinAddr: 0x10000B852, symSize: 0x1A }
  - { offsetInCU: 0x155A8, offset: 0x1662C, size: 0x8, addend: 0x0, symName: __ZSt7forwardIOyEOT_RNSt16remove_referenceIS1_E4typeE, symObjAddr: 0x7D30, symBinAddr: 0x10000B86C, symSize: 0xE }
  - { offsetInCU: 0x1560F, offset: 0x16693, size: 0x8, addend: 0x0, symName: __ZSt12__niter_wrapIPN6tinyrv10MemoryUnit8ADecoder7entry_tEET_RKS5_S5_, symObjAddr: 0x7D04, symBinAddr: 0x10000B840, symSize: 0x12 }
  - { offsetInCU: 0x15617, offset: 0x1669B, size: 0x8, addend: 0x0, symName: __ZSt3getILm0EJOyEERNSt13tuple_elementIXT_ESt5tupleIJDpT0_EEE4typeERS5_, symObjAddr: 0x7D16, symBinAddr: 0x10000B852, symSize: 0x1A }
  - { offsetInCU: 0x156A2, offset: 0x16726, size: 0x8, addend: 0x0, symName: __ZSt14__copy_move_a1ILb1EPN6tinyrv10MemoryUnit8ADecoder7entry_tES4_ET1_T0_S6_S5_, symObjAddr: 0x7CD7, symBinAddr: 0x10000B813, symSize: 0x2D }
  - { offsetInCU: 0x156AA, offset: 0x1672E, size: 0x8, addend: 0x0, symName: __ZSt12__niter_wrapIPN6tinyrv10MemoryUnit8ADecoder7entry_tEET_RKS5_S5_, symObjAddr: 0x7D04, symBinAddr: 0x10000B840, symSize: 0x12 }
  - { offsetInCU: 0x156C0, offset: 0x16744, size: 0x8, addend: 0x0, symName: __ZSt12__miter_baseIPN6tinyrv10MemoryUnit8ADecoder7entry_tEET_S5_, symObjAddr: 0x7CC9, symBinAddr: 0x10000B805, symSize: 0xE }
  - { offsetInCU: 0x156C8, offset: 0x1674C, size: 0x8, addend: 0x0, symName: __ZSt14__copy_move_a1ILb1EPN6tinyrv10MemoryUnit8ADecoder7entry_tES4_ET1_T0_S6_S5_, symObjAddr: 0x7CD7, symBinAddr: 0x10000B813, symSize: 0x2D }
  - { offsetInCU: 0x156C2, offset: 0x16746, size: 0x8, addend: 0x0, symName: __ZNKSt13move_iteratorIPN6tinyrv10MemoryUnit8ADecoder7entry_tEE4baseEv, symObjAddr: 0x7CB8, symBinAddr: 0x10000B7F4, symSize: 0x11 }
  - { offsetInCU: 0x156CA, offset: 0x1674E, size: 0x8, addend: 0x0, symName: __ZSt12__miter_baseIPN6tinyrv10MemoryUnit8ADecoder7entry_tEET_S5_, symObjAddr: 0x7CC9, symBinAddr: 0x10000B805, symSize: 0xE }
  - { offsetInCU: 0x15768, offset: 0x167EC, size: 0x8, addend: 0x0, symName: __ZSt9__fill_a1IhEN9__gnu_cxx11__enable_ifIXsrSt9__is_byteIT_E7__valueEvE6__typeEPS3_S7_RKS3_, symObjAddr: 0x7C6E, symBinAddr: 0x10000B7AA, symSize: 0x4A }
  - { offsetInCU: 0x15770, offset: 0x167F4, size: 0x8, addend: 0x0, symName: __ZNKSt13move_iteratorIPN6tinyrv10MemoryUnit8ADecoder7entry_tEE4baseEv, symObjAddr: 0x7CB8, symBinAddr: 0x10000B7F4, symSize: 0x11 }
  - { offsetInCU: 0x157FB, offset: 0x1687F, size: 0x8, addend: 0x0, symName: __ZSt13__copy_move_aILb1EPhS0_ET1_T0_S2_S1_, symObjAddr: 0x7C04, symBinAddr: 0x10000B740, symSize: 0x6A }
  - { offsetInCU: 0x15803, offset: 0x16887, size: 0x8, addend: 0x0, symName: __ZSt9__fill_a1IhEN9__gnu_cxx11__enable_ifIXsrSt9__is_byteIT_E7__valueEvE6__typeEPS3_S7_RKS3_, symObjAddr: 0x7C6E, symBinAddr: 0x10000B7AA, symSize: 0x4A }
  - { offsetInCU: 0x1587C, offset: 0x16900, size: 0x8, addend: 0x0, symName: __ZSt12__miter_baseIPhEDTcl12__miter_basecldtfp_4baseEEESt13move_iteratorIT_E, symObjAddr: 0x7BE2, symBinAddr: 0x10000B71E, symSize: 0x22 }
  - { offsetInCU: 0x15884, offset: 0x16908, size: 0x8, addend: 0x0, symName: __ZSt13__copy_move_aILb1EPhS0_ET1_T0_S2_S1_, symObjAddr: 0x7C04, symBinAddr: 0x10000B740, symSize: 0x6A }
  - { offsetInCU: 0x158A7, offset: 0x1692B, size: 0x8, addend: 0x0, symName: __ZSt8__fill_aIPccEvT_S1_RKT0_, symObjAddr: 0x7BB4, symBinAddr: 0x10000B6F0, symSize: 0x2E }
  - { offsetInCU: 0x158AF, offset: 0x16933, size: 0x8, addend: 0x0, symName: __ZSt12__miter_baseIPhEDTcl12__miter_basecldtfp_4baseEEESt13move_iteratorIT_E, symObjAddr: 0x7BE2, symBinAddr: 0x10000B71E, symSize: 0x22 }
  - { offsetInCU: 0x158EB, offset: 0x1696F, size: 0x8, addend: 0x0, symName: __ZNSt8__detail16_Hashtable_allocISaINS_10_Hash_nodeISt4pairIKyPhELb0EEEEE19_M_allocate_bucketsEm, symObjAddr: 0x7AFE, symBinAddr: 0x10000B63A, symSize: 0xB6 }
  - { offsetInCU: 0x158F3, offset: 0x16977, size: 0x8, addend: 0x0, symName: __ZSt8__fill_aIPccEvT_S1_RKT0_, symObjAddr: 0x7BB4, symBinAddr: 0x10000B6F0, symSize: 0x2E }
  - { offsetInCU: 0x15ABE, offset: 0x16B42, size: 0x8, addend: 0x0, symName: __ZNSt4pairIKyPhEC1IRyRS1_Lb1EEEOT_OT0_, symObjAddr: 0x7ABA, symBinAddr: 0x10000B5F6, symSize: 0x44 }
  - { offsetInCU: 0x15AC6, offset: 0x16B4A, size: 0x8, addend: 0x0, symName: __ZNSt8__detail16_Hashtable_allocISaINS_10_Hash_nodeISt4pairIKyPhELb0EEEEE19_M_allocate_bucketsEm, symObjAddr: 0x7AFE, symBinAddr: 0x10000B63A, symSize: 0xB6 }
  - { offsetInCU: 0x15BC3, offset: 0x16C47, size: 0x8, addend: 0x0, symName: __ZSt11__addressofINSt8__detail10_Hash_nodeISt4pairIKyPhELb0EEEEPT_RS7_, symObjAddr: 0x7AAB, symBinAddr: 0x10000B5E7, symSize: 0xF }
  - { offsetInCU: 0x15C8A, offset: 0x16D0E, size: 0x8, addend: 0x0, symName: __ZNSt4pairIKyN6tinyrv10MemoryUnit8TLBEntryEEC1IJOyEJLm0EEJEJEEERSt5tupleIJDpT_EERS7_IJDpT1_EESt12_Index_tupleIJXspT0_EEESG_IJXspT2_EEE, symObjAddr: 0x7A58, symBinAddr: 0x10000B5A2, symSize: 0x45 }
  - { offsetInCU: 0x15D49, offset: 0x16DCD, size: 0x8, addend: 0x0, symName: __ZSt13__copy_move_aILb1EPN6tinyrv10MemoryUnit8ADecoder7entry_tES4_ET1_T0_S6_S5_, symObjAddr: 0x79EE, symBinAddr: 0x10000B538, symSize: 0x6A }
  - { offsetInCU: 0x15D51, offset: 0x16DD5, size: 0x8, addend: 0x0, symName: __ZNSt4pairIKyN6tinyrv10MemoryUnit8TLBEntryEEC1IJOyEJLm0EEJEJEEERSt5tupleIJDpT_EERS7_IJDpT1_EESt12_Index_tupleIJXspT0_EEESG_IJXspT2_EEE, symObjAddr: 0x7A58, symBinAddr: 0x10000B5A2, symSize: 0x45 }
  - { offsetInCU: 0x15D9A, offset: 0x16E1E, size: 0x8, addend: 0x0, symName: __ZSt12__miter_baseIPN6tinyrv10MemoryUnit8ADecoder7entry_tEEDTcl12__miter_basecldtfp_4baseEEESt13move_iteratorIT_E, symObjAddr: 0x79CC, symBinAddr: 0x10000B516, symSize: 0x22 }
  - { offsetInCU: 0x15DA2, offset: 0x16E26, size: 0x8, addend: 0x0, symName: __ZSt13__copy_move_aILb1EPN6tinyrv10MemoryUnit8ADecoder7entry_tES4_ET1_T0_S6_S5_, symObjAddr: 0x79EE, symBinAddr: 0x10000B538, symSize: 0x6A }
  - { offsetInCU: 0x15DB2, offset: 0x16E36, size: 0x8, addend: 0x0, symName: __ZSt8__fill_aIPhhEvT_S1_RKT0_, symObjAddr: 0x799E, symBinAddr: 0x10000B4E8, symSize: 0x2E }
  - { offsetInCU: 0x15DBA, offset: 0x16E3E, size: 0x8, addend: 0x0, symName: __ZSt12__miter_baseIPN6tinyrv10MemoryUnit8ADecoder7entry_tEEDTcl12__miter_basecldtfp_4baseEEESt13move_iteratorIT_E, symObjAddr: 0x79CC, symBinAddr: 0x10000B516, symSize: 0x22 }
  - { offsetInCU: 0x15E51, offset: 0x16ED5, size: 0x8, addend: 0x0, symName: __ZSt4copyISt13move_iteratorIPhES1_ET0_T_S4_S3_, symObjAddr: 0x7953, symBinAddr: 0x10000B49D, symSize: 0x4B }
  - { offsetInCU: 0x15E59, offset: 0x16EDD, size: 0x8, addend: 0x0, symName: __ZSt8__fill_aIPhhEvT_S1_RKT0_, symObjAddr: 0x799E, symBinAddr: 0x10000B4E8, symSize: 0x2E }
  - { offsetInCU: 0x15ED7, offset: 0x16F5B, size: 0x8, addend: 0x0, symName: __ZSt10__fill_n_aIPcmcET_S1_T0_RKT1_St26random_access_iterator_tag, symObjAddr: 0x78F8, symBinAddr: 0x10000B450, symSize: 0x4D }
  - { offsetInCU: 0x15EFF, offset: 0x16F83, size: 0x8, addend: 0x0, symName: __ZNSt10_HashtableIySt4pairIKyPhESaIS3_ENSt8__detail10_Select1stESt8equal_toIyESt4hashIyENS5_18_Mod_range_hashingENS5_20_Default_ranged_hashENS5_20_Prime_rehash_policyENS5_17_Hashtable_traitsILb0ELb0ELb1EEEE19_M_allocate_bucketsEm, symObjAddr: 0x78AC, symBinAddr: 0x10000B404, symSize: 0x4C }
  - { offsetInCU: 0x15F07, offset: 0x16F8B, size: 0x8, addend: 0x0, symName: __ZSt10__fill_n_aIPcmcET_S1_T0_RKT1_St26random_access_iterator_tag, symObjAddr: 0x78F8, symBinAddr: 0x10000B450, symSize: 0x4D }
  - { offsetInCU: 0x15FA7, offset: 0x1702B, size: 0x8, addend: 0x0, symName: __ZNSt15__new_allocatorINSt8__detail10_Hash_nodeISt4pairIKyPhELb0EEEE8allocateEmPKv, symObjAddr: 0x783C, symBinAddr: 0x10000B394, symSize: 0x70 }
  - { offsetInCU: 0x1601F, offset: 0x170A3, size: 0x8, addend: 0x0, symName: __ZNK9__gnu_cxx16__aligned_bufferISt4pairIKyPhEE7_M_addrEv, symObjAddr: 0x782E, symBinAddr: 0x10000B386, symSize: 0xE }
  - { offsetInCU: 0x16027, offset: 0x170AB, size: 0x8, addend: 0x0, symName: __ZNSt15__new_allocatorINSt8__detail10_Hash_nodeISt4pairIKyPhELb0EEEE8allocateEmPKv, symObjAddr: 0x783C, symBinAddr: 0x10000B394, symSize: 0x70 }
  - { offsetInCU: 0x16052, offset: 0x170D6, size: 0x8, addend: 0x0, symName: __ZNSt15__new_allocatorINSt8__detail10_Hash_nodeISt4pairIKyPhELb0EEEE10deallocateEPS6_m, symObjAddr: 0x780A, symBinAddr: 0x10000B362, symSize: 0x24 }
  - { offsetInCU: 0x16155, offset: 0x171D9, size: 0x8, addend: 0x0, symName: __ZSt9addressofINSt8__detail10_Hash_nodeISt4pairIKyPhELb0EEEEPT_RS7_, symObjAddr: 0x77F0, symBinAddr: 0x10000B348, symSize: 0x1A }
  - { offsetInCU: 0x1615D, offset: 0x171E1, size: 0x8, addend: 0x0, symName: __ZNSt15__new_allocatorINSt8__detail10_Hash_nodeISt4pairIKyPhELb0EEEE10deallocateEPS6_m, symObjAddr: 0x780A, symBinAddr: 0x10000B362, symSize: 0x24 }
  - { offsetInCU: 0x160F5, offset: 0x17179, size: 0x8, addend: 0x0, symName: __ZNK9__gnu_cxx16__aligned_bufferISt4pairIKyN6tinyrv10MemoryUnit8TLBEntryEEE7_M_addrEv, symObjAddr: 0x77E2, symBinAddr: 0x10000B33A, symSize: 0xE }
  - { offsetInCU: 0x160FD, offset: 0x17181, size: 0x8, addend: 0x0, symName: __ZSt9addressofINSt8__detail10_Hash_nodeISt4pairIKyPhELb0EEEEPT_RS7_, symObjAddr: 0x77F0, symBinAddr: 0x10000B348, symSize: 0x1A }
  - { offsetInCU: 0x16128, offset: 0x171AC, size: 0x8, addend: 0x0, symName: __ZNSt8__detail16_Hashtable_allocISaINS_10_Hash_nodeISt4pairIKyN6tinyrv10MemoryUnit8TLBEntryEELb0EEEEE19_M_allocate_bucketsEm, symObjAddr: 0x772C, symBinAddr: 0x10000B284, symSize: 0xB6 }
  - { offsetInCU: 0x16130, offset: 0x171B4, size: 0x8, addend: 0x0, symName: __ZNK9__gnu_cxx16__aligned_bufferISt4pairIKyN6tinyrv10MemoryUnit8TLBEntryEEE7_M_addrEv, symObjAddr: 0x77E2, symBinAddr: 0x10000B33A, symSize: 0xE }
  - { offsetInCU: 0x1633A, offset: 0x173BE, size: 0x8, addend: 0x0, symName: __ZNSt4pairIKyN6tinyrv10MemoryUnit8TLBEntryEEC1IJOyEJEEESt21piecewise_construct_tSt5tupleIJDpT_EES8_IJDpT0_EE, symObjAddr: 0x7702, symBinAddr: 0x10000B25A, symSize: 0x2A }
  - { offsetInCU: 0x16342, offset: 0x173C6, size: 0x8, addend: 0x0, symName: __ZNSt8__detail16_Hashtable_allocISaINS_10_Hash_nodeISt4pairIKyN6tinyrv10MemoryUnit8TLBEntryEELb0EEEEE19_M_allocate_bucketsEm, symObjAddr: 0x772C, symBinAddr: 0x10000B284, symSize: 0xB6 }
  - { offsetInCU: 0x1640F, offset: 0x17493, size: 0x8, addend: 0x0, symName: __ZSt4copyISt13move_iteratorIPN6tinyrv10MemoryUnit8ADecoder7entry_tEES5_ET0_T_S8_S7_, symObjAddr: 0x76A8, symBinAddr: 0x10000B20E, symSize: 0x4B }
  - { offsetInCU: 0x1646B, offset: 0x174EF, size: 0x8, addend: 0x0, symName: __ZSt10__fill_n_aIPhmhET_S1_T0_RKT1_St26random_access_iterator_tag, symObjAddr: 0x765B, symBinAddr: 0x10000B1C1, symSize: 0x4D }
  - { offsetInCU: 0x16473, offset: 0x174F7, size: 0x8, addend: 0x0, symName: __ZSt4copyISt13move_iteratorIPN6tinyrv10MemoryUnit8ADecoder7entry_tEES5_ET0_T_S8_S7_, symObjAddr: 0x76A8, symBinAddr: 0x10000B20E, symSize: 0x4B }
  - { offsetInCU: 0x164AE, offset: 0x17532, size: 0x8, addend: 0x0, symName: __ZNSt20__uninitialized_copyILb1EE13__uninit_copyISt13move_iteratorIPhES3_EET0_T_S6_S5_, symObjAddr: 0x762E, symBinAddr: 0x10000B194, symSize: 0x2D }
  - { offsetInCU: 0x164B6, offset: 0x1753A, size: 0x8, addend: 0x0, symName: __ZSt10__fill_n_aIPhmhET_S1_T0_RKT1_St26random_access_iterator_tag, symObjAddr: 0x765B, symBinAddr: 0x10000B1C1, symSize: 0x4D }
  - { offsetInCU: 0x1656C, offset: 0x175F0, size: 0x8, addend: 0x0, symName: __ZSt4moveIRPhEONSt16remove_referenceIT_E4typeEOS3_, symObjAddr: 0x7620, symBinAddr: 0x10000B186, symSize: 0xE }
  - { offsetInCU: 0x16574, offset: 0x175F8, size: 0x8, addend: 0x0, symName: __ZNSt20__uninitialized_copyILb1EE13__uninit_copyISt13move_iteratorIPhES3_EET0_T_S6_S5_, symObjAddr: 0x762E, symBinAddr: 0x10000B194, symSize: 0x2D }
  - { offsetInCU: 0x16623, offset: 0x176A7, size: 0x8, addend: 0x0, symName: __ZSt14__relocate_a_1IhhENSt9enable_ifIXsrSt24__is_bitwise_relocatableIT_vE5valueEPS2_E4typeES4_S4_S4_RSaIT0_E, symObjAddr: 0x75D1, symBinAddr: 0x10000B137, symSize: 0x4F }
  - { offsetInCU: 0x1662B, offset: 0x176AF, size: 0x8, addend: 0x0, symName: __ZSt4moveIRPhEONSt16remove_referenceIT_E4typeEOS3_, symObjAddr: 0x7620, symBinAddr: 0x10000B186, symSize: 0xE }
  - { offsetInCU: 0x1666A, offset: 0x176EE, size: 0x8, addend: 0x0, symName: __ZSt12__niter_baseIPhET_S1_, symObjAddr: 0x75C3, symBinAddr: 0x10000B129, symSize: 0xE }
  - { offsetInCU: 0x16672, offset: 0x176F6, size: 0x8, addend: 0x0, symName: __ZSt14__relocate_a_1IhhENSt9enable_ifIXsrSt24__is_bitwise_relocatableIT_vE5valueEPS2_E4typeES4_S4_S4_RSaIT0_E, symObjAddr: 0x75D1, symBinAddr: 0x10000B137, symSize: 0x4F }
  - { offsetInCU: 0x166C3, offset: 0x17747, size: 0x8, addend: 0x0, symName: __ZSt6fill_nIPcmcET_S1_T0_RKT1_, symObjAddr: 0x7570, symBinAddr: 0x10000B0F0, symSize: 0x39 }
  - { offsetInCU: 0x1675A, offset: 0x177DE, size: 0x8, addend: 0x0, symName: __ZSt10_ConstructIcJEEvPT_DpOT0_, symObjAddr: 0x754D, symBinAddr: 0x10000B0CD, symSize: 0x23 }
  - { offsetInCU: 0x16762, offset: 0x177E6, size: 0x8, addend: 0x0, symName: __ZSt6fill_nIPcmcET_S1_T0_RKT1_, symObjAddr: 0x7570, symBinAddr: 0x10000B0F0, symSize: 0x39 }
  - { offsetInCU: 0x16774, offset: 0x177F8, size: 0x8, addend: 0x0, symName: __ZNSt15__new_allocatorIcE8allocateEmPKv, symObjAddr: 0x7500, symBinAddr: 0x10000B080, symSize: 0x4D }
  - { offsetInCU: 0x1677C, offset: 0x17800, size: 0x8, addend: 0x0, symName: __ZSt10_ConstructIcJEEvPT_DpOT0_, symObjAddr: 0x754D, symBinAddr: 0x10000B0CD, symSize: 0x23 }
  - { offsetInCU: 0x16801, offset: 0x17885, size: 0x8, addend: 0x0, symName: __ZNSt10_HashtableIySt4pairIKyPhESaIS3_ENSt8__detail10_Select1stESt8equal_toIyESt4hashIyENS5_18_Mod_range_hashingENS5_20_Default_ranged_hashENS5_20_Prime_rehash_policyENS5_17_Hashtable_traitsILb0ELb0ELb1EEEE13_M_rehash_auxEmSt17integral_constantIbLb1EE, symObjAddr: 0x7386, symBinAddr: 0x10000AF06, symSize: 0x17A }
  - { offsetInCU: 0x169E6, offset: 0x17A6A, size: 0x8, addend: 0x0, symName: __ZSt12__to_addressINSt8__detail10_Hash_nodeISt4pairIKyPhELb0EEEEPT_S8_, symObjAddr: 0x7378, symBinAddr: 0x10000AEF8, symSize: 0xE }
  - { offsetInCU: 0x169EE, offset: 0x17A72, size: 0x8, addend: 0x0, symName: __ZNSt10_HashtableIySt4pairIKyPhESaIS3_ENSt8__detail10_Select1stESt8equal_toIyESt4hashIyENS5_18_Mod_range_hashingENS5_20_Default_ranged_hashENS5_20_Prime_rehash_policyENS5_17_Hashtable_traitsILb0ELb0ELb1EEEE13_M_rehash_auxEmSt17integral_constantIbLb1EE, symObjAddr: 0x7386, symBinAddr: 0x10000AF06, symSize: 0x17A }
  - { offsetInCU: 0x169A9, offset: 0x17A2D, size: 0x8, addend: 0x0, symName: __ZNKSt8__detail15_Hash_code_baseIySt4pairIKyPhENS_10_Select1stESt4hashIyENS_18_Mod_range_hashingENS_20_Default_ranged_hashELb0EE15_M_bucket_indexERKNS_16_Hash_node_valueIS4_Lb0EEEm, symObjAddr: 0x731C, symBinAddr: 0x10000AE9C, symSize: 0x5C }
  - { offsetInCU: 0x169B1, offset: 0x17A35, size: 0x8, addend: 0x0, symName: __ZSt12__to_addressINSt8__detail10_Hash_nodeISt4pairIKyPhELb0EEEEPT_S8_, symObjAddr: 0x7378, symBinAddr: 0x10000AEF8, symSize: 0xE }
  - { offsetInCU: 0x16A00, offset: 0x17A84, size: 0x8, addend: 0x0, symName: __ZNSt8__detail15_Hashtable_baseIySt4pairIKyPhENS_10_Select1stESt8equal_toIyESt4hashIyENS_18_Mod_range_hashingENS_20_Default_ranged_hashENS_17_Hashtable_traitsILb0ELb0ELb1EEEE9_S_equalsEmRKNS_21_Hash_node_code_cacheILb0EEE, symObjAddr: 0x7308, symBinAddr: 0x10000AE88, symSize: 0x14 }
  - { offsetInCU: 0x16A36, offset: 0x17ABA, size: 0x8, addend: 0x0, symName: __ZNK9__gnu_cxx16__aligned_bufferISt4pairIKyPhEE6_M_ptrEv, symObjAddr: 0x72EE, symBinAddr: 0x10000AE6E, symSize: 0x1A }
  - { offsetInCU: 0x16A3E, offset: 0x17AC2, size: 0x8, addend: 0x0, symName: __ZNSt8__detail15_Hashtable_baseIySt4pairIKyPhENS_10_Select1stESt8equal_toIyESt4hashIyENS_18_Mod_range_hashingENS_20_Default_ranged_hashENS_17_Hashtable_traitsILb0ELb0ELb1EEEE9_S_equalsEmRKNS_21_Hash_node_code_cacheILb0EEE, symObjAddr: 0x7308, symBinAddr: 0x10000AE88, symSize: 0x14 }
  - { offsetInCU: 0x16AA3, offset: 0x17B27, size: 0x8, addend: 0x0, symName: __ZNSt19__ptr_traits_ptr_toIPNSt8__detail10_Hash_nodeISt4pairIKyPhELb0EEES6_Lb0EE10pointer_toERS6_, symObjAddr: 0x72D4, symBinAddr: 0x10000AE54, symSize: 0x1A }
  - { offsetInCU: 0x16AAB, offset: 0x17B2F, size: 0x8, addend: 0x0, symName: __ZNK9__gnu_cxx16__aligned_bufferISt4pairIKyPhEE6_M_ptrEv, symObjAddr: 0x72EE, symBinAddr: 0x10000AE6E, symSize: 0x1A }
  - { offsetInCU: 0x16B0A, offset: 0x17B8E, size: 0x8, addend: 0x0, symName: __ZNSt8__detail21_Hashtable_ebo_helperILi0ESaINS_10_Hash_nodeISt4pairIKyPhELb0EEEELb1EE6_M_getEv, symObjAddr: 0x72C6, symBinAddr: 0x10000AE46, symSize: 0xE }
  - { offsetInCU: 0x16B12, offset: 0x17B96, size: 0x8, addend: 0x0, symName: __ZNSt19__ptr_traits_ptr_toIPNSt8__detail10_Hash_nodeISt4pairIKyPhELb0EEES6_Lb0EE10pointer_toERS6_, symObjAddr: 0x72D4, symBinAddr: 0x10000AE54, symSize: 0x1A }
  - { offsetInCU: 0x16B39, offset: 0x17BBD, size: 0x8, addend: 0x0, symName: __ZNK9__gnu_cxx16__aligned_bufferISt4pairIKyN6tinyrv10MemoryUnit8TLBEntryEEE6_M_ptrEv, symObjAddr: 0x72AC, symBinAddr: 0x10000AE2C, symSize: 0x1A }
  - { offsetInCU: 0x16B41, offset: 0x17BC5, size: 0x8, addend: 0x0, symName: __ZNSt8__detail21_Hashtable_ebo_helperILi0ESaINS_10_Hash_nodeISt4pairIKyPhELb0EEEELb1EE6_M_getEv, symObjAddr: 0x72C6, symBinAddr: 0x10000AE46, symSize: 0xE }
  - { offsetInCU: 0x16B68, offset: 0x17BEC, size: 0x8, addend: 0x0, symName: __ZNSt10_HashtableIySt4pairIKyN6tinyrv10MemoryUnit8TLBEntryEESaIS5_ENSt8__detail10_Select1stESt8equal_toIyESt4hashIyENS7_18_Mod_range_hashingENS7_20_Default_ranged_hashENS7_20_Prime_rehash_policyENS7_17_Hashtable_traitsILb0ELb0ELb1EEEE19_M_allocate_bucketsEm, symObjAddr: 0x7260, symBinAddr: 0x10000ADE0, symSize: 0x4C }
  - { offsetInCU: 0x16B70, offset: 0x17BF4, size: 0x8, addend: 0x0, symName: __ZNK9__gnu_cxx16__aligned_bufferISt4pairIKyN6tinyrv10MemoryUnit8TLBEntryEEE6_M_ptrEv, symObjAddr: 0x72AC, symBinAddr: 0x10000AE2C, symSize: 0x1A }
  - { offsetInCU: 0x16BAB, offset: 0x17C2F, size: 0x8, addend: 0x0, symName: __ZNSt15__new_allocatorINSt8__detail10_Hash_nodeISt4pairIKyN6tinyrv10MemoryUnit8TLBEntryEELb0EEEE10deallocateEPS8_m, symObjAddr: 0x723C, symBinAddr: 0x10000ADBC, symSize: 0x24 }
  - { offsetInCU: 0x16C8B, offset: 0x17D0F, size: 0x8, addend: 0x0, symName: __ZNSt15__new_allocatorINSt8__detail10_Hash_nodeISt4pairIKyN6tinyrv10MemoryUnit8TLBEntryEELb0EEEE8allocateEmPKv, symObjAddr: 0x71CC, symBinAddr: 0x10000AD4C, symSize: 0x70 }
  - { offsetInCU: 0x16D5C, offset: 0x17DE0, size: 0x8, addend: 0x0, symName: __ZNSt10_Head_baseILm0EOyLb0EEC2IyEEOT_, symObjAddr: 0x71A6, symBinAddr: 0x10000AD26, symSize: 0x26 }
  - { offsetInCU: 0x16D64, offset: 0x17DE8, size: 0x8, addend: 0x0, symName: __ZNSt15__new_allocatorINSt8__detail10_Hash_nodeISt4pairIKyN6tinyrv10MemoryUnit8TLBEntryEELb0EEEE8allocateEmPKv, symObjAddr: 0x71CC, symBinAddr: 0x10000AD4C, symSize: 0x70 }
  - { offsetInCU: 0x16D7C, offset: 0x17E00, size: 0x8, addend: 0x0, symName: __ZNSt8__detail15_Hashtable_baseIySt4pairIKyN6tinyrv10MemoryUnit8TLBEntryEENS_10_Select1stESt8equal_toIyESt4hashIyENS_18_Mod_range_hashingENS_20_Default_ranged_hashENS_17_Hashtable_traitsILb0ELb0ELb1EEEE9_S_equalsEmRKNS_21_Hash_node_code_cacheILb0EEE, symObjAddr: 0x7193, symBinAddr: 0x10000AD13, symSize: 0x13 }
  - { offsetInCU: 0x16D84, offset: 0x17E08, size: 0x8, addend: 0x0, symName: __ZNSt10_Head_baseILm0EOyLb0EEC2IyEEOT_, symObjAddr: 0x71A6, symBinAddr: 0x10000AD26, symSize: 0x26 }
  - { offsetInCU: 0x16DB2, offset: 0x17E36, size: 0x8, addend: 0x0, symName: __ZNSt15__new_allocatorIPNSt8__detail15_Hash_node_baseEE10deallocateEPS2_m, symObjAddr: 0x7170, symBinAddr: 0x10000ACF0, symSize: 0x23 }
  - { offsetInCU: 0x16DBA, offset: 0x17E3E, size: 0x8, addend: 0x0, symName: __ZNSt8__detail15_Hashtable_baseIySt4pairIKyN6tinyrv10MemoryUnit8TLBEntryEENS_10_Select1stESt8equal_toIyESt4hashIyENS_18_Mod_range_hashingENS_20_Default_ranged_hashENS_17_Hashtable_traitsILb0ELb0ELb1EEEE9_S_equalsEmRKNS_21_Hash_node_code_cacheILb0EEE, symObjAddr: 0x7193, symBinAddr: 0x10000AD13, symSize: 0x13 }
  - { offsetInCU: 0x16E6A, offset: 0x17EEE, size: 0x8, addend: 0x0, symName: __ZNSt15__new_allocatorIPNSt8__detail15_Hash_node_baseEED2Ev, symObjAddr: 0x7164, symBinAddr: 0x10000ACE4, symSize: 0xC }
  - { offsetInCU: 0x16E75, offset: 0x17EF9, size: 0x8, addend: 0x0, symName: __ZNSt20__uninitialized_copyILb1EE13__uninit_copyISt13move_iteratorIPN6tinyrv10MemoryUnit8ADecoder7entry_tEES7_EET0_T_SA_S9_, symObjAddr: 0x711C, symBinAddr: 0x10000ACB6, symSize: 0x2D }
  - { offsetInCU: 0x16F70, offset: 0x17FF4, size: 0x8, addend: 0x0, symName: __ZSt4moveIRPN6tinyrv10MemoryUnit8ADecoder7entry_tEEONSt16remove_referenceIT_E4typeEOS7_, symObjAddr: 0x710E, symBinAddr: 0x10000ACA8, symSize: 0xE }
  - { offsetInCU: 0x16F78, offset: 0x17FFC, size: 0x8, addend: 0x0, symName: __ZNSt20__uninitialized_copyILb1EE13__uninit_copyISt13move_iteratorIPN6tinyrv10MemoryUnit8ADecoder7entry_tEES7_EET0_T_SA_S9_, symObjAddr: 0x711C, symBinAddr: 0x10000ACB6, symSize: 0x2D }
  - { offsetInCU: 0x1704B, offset: 0x180CF, size: 0x8, addend: 0x0, symName: __ZSt14__relocate_a_1IN6tinyrv10MemoryUnit8ADecoder7entry_tES3_ENSt9enable_ifIXsrSt24__is_bitwise_relocatableIT_vE5valueEPS6_E4typeES8_S8_S8_RSaIT0_E, symObjAddr: 0x708A, symBinAddr: 0x10000AC24, symSize: 0x84 }
  - { offsetInCU: 0x17053, offset: 0x180D7, size: 0x8, addend: 0x0, symName: __ZSt4moveIRPN6tinyrv10MemoryUnit8ADecoder7entry_tEEONSt16remove_referenceIT_E4typeEOS7_, symObjAddr: 0x710E, symBinAddr: 0x10000ACA8, symSize: 0xE }
  - { offsetInCU: 0x17078, offset: 0x180FC, size: 0x8, addend: 0x0, symName: __ZSt12__niter_baseIPN6tinyrv10MemoryUnit8ADecoder7entry_tEET_S5_, symObjAddr: 0x707C, symBinAddr: 0x10000AC16, symSize: 0xE }
  - { offsetInCU: 0x17080, offset: 0x18104, size: 0x8, addend: 0x0, symName: __ZSt14__relocate_a_1IN6tinyrv10MemoryUnit8ADecoder7entry_tES3_ENSt9enable_ifIXsrSt24__is_bitwise_relocatableIT_vE5valueEPS6_E4typeES8_S8_S8_RSaIT0_E, symObjAddr: 0x708A, symBinAddr: 0x10000AC24, symSize: 0x84 }
  - { offsetInCU: 0x170DB, offset: 0x1815F, size: 0x8, addend: 0x0, symName: __ZSt6fill_nIPhmhET_S1_T0_RKT1_, symObjAddr: 0x7043, symBinAddr: 0x10000ABDD, symSize: 0x39 }
  - { offsetInCU: 0x170E3, offset: 0x18167, size: 0x8, addend: 0x0, symName: __ZSt12__niter_baseIPN6tinyrv10MemoryUnit8ADecoder7entry_tEET_S5_, symObjAddr: 0x707C, symBinAddr: 0x10000AC16, symSize: 0xE }
  - { offsetInCU: 0x17169, offset: 0x181ED, size: 0x8, addend: 0x0, symName: __ZSt10_ConstructIhJEEvPT_DpOT0_, symObjAddr: 0x7020, symBinAddr: 0x10000ABBA, symSize: 0x23 }
  - { offsetInCU: 0x17171, offset: 0x181F5, size: 0x8, addend: 0x0, symName: __ZSt6fill_nIPhmhET_S1_T0_RKT1_, symObjAddr: 0x7043, symBinAddr: 0x10000ABDD, symSize: 0x39 }
  - { offsetInCU: 0x171B5, offset: 0x18239, size: 0x8, addend: 0x0, symName: __ZSt11__addressofIhEPT_RS0_, symObjAddr: 0x7012, symBinAddr: 0x10000ABAC, symSize: 0xE }
  - { offsetInCU: 0x171BD, offset: 0x18241, size: 0x8, addend: 0x0, symName: __ZSt10_ConstructIhJEEvPT_DpOT0_, symObjAddr: 0x7020, symBinAddr: 0x10000ABBA, symSize: 0x23 }
  - { offsetInCU: 0x17266, offset: 0x182EA, size: 0x8, addend: 0x0, symName: __ZSt18uninitialized_copyISt13move_iteratorIPhES1_ET0_T_S4_S3_, symObjAddr: 0x6FDD, symBinAddr: 0x10000AB77, symSize: 0x35 }
  - { offsetInCU: 0x1726E, offset: 0x182F2, size: 0x8, addend: 0x0, symName: __ZSt11__addressofIhEPT_RS0_, symObjAddr: 0x7012, symBinAddr: 0x10000ABAC, symSize: 0xE }
  - { offsetInCU: 0x172C9, offset: 0x1834D, size: 0x8, addend: 0x0, symName: __ZNSt13move_iteratorIPhEC1ES0_, symObjAddr: 0x6FB4, symBinAddr: 0x10000AB4E, symSize: 0x29 }
  - { offsetInCU: 0x172D1, offset: 0x18355, size: 0x8, addend: 0x0, symName: __ZSt18uninitialized_copyISt13move_iteratorIPhES1_ET0_T_S4_S3_, symObjAddr: 0x6FDD, symBinAddr: 0x10000AB77, symSize: 0x35 }
  - { offsetInCU: 0x17364, offset: 0x183E8, size: 0x8, addend: 0x0, symName: __ZSt12__relocate_aIPhS0_SaIhEET0_T_S3_S2_RT1_, symObjAddr: 0x6F51, symBinAddr: 0x10000AAEB, symSize: 0x63 }
  - { offsetInCU: 0x1736C, offset: 0x183F0, size: 0x8, addend: 0x0, symName: __ZNSt13move_iteratorIPhEC1ES0_, symObjAddr: 0x6FB4, symBinAddr: 0x10000AB4E, symSize: 0x29 }
  - { offsetInCU: 0x17386, offset: 0x1840A, size: 0x8, addend: 0x0, symName: __ZNSt15__new_allocatorIhE8allocateEmPKv, symObjAddr: 0x6F04, symBinAddr: 0x10000AA9E, symSize: 0x4D }
  - { offsetInCU: 0x1738E, offset: 0x18412, size: 0x8, addend: 0x0, symName: __ZSt12__relocate_aIPhS0_SaIhEET0_T_S3_S2_RT1_, symObjAddr: 0x6F51, symBinAddr: 0x10000AAEB, symSize: 0x63 }
  - { offsetInCU: 0x173FA, offset: 0x1847E, size: 0x8, addend: 0x0, symName: __ZNKSt12_Vector_baseIhSaIhEE19_M_get_Tp_allocatorEv, symObjAddr: 0x6EF6, symBinAddr: 0x10000AA90, symSize: 0xE }
  - { offsetInCU: 0x17402, offset: 0x18486, size: 0x8, addend: 0x0, symName: __ZNSt15__new_allocatorIhE8allocateEmPKv, symObjAddr: 0x6F04, symBinAddr: 0x10000AA9E, symSize: 0x4D }
  - { offsetInCU: 0x17429, offset: 0x184AD, size: 0x8, addend: 0x0, symName: __ZNSt19__ptr_traits_ptr_toIPNSt8__detail10_Hash_nodeISt4pairIKyN6tinyrv10MemoryUnit8TLBEntryEELb0EEES8_Lb0EE10pointer_toERS8_, symObjAddr: 0x6EDC, symBinAddr: 0x10000AA76, symSize: 0x1A }
  - { offsetInCU: 0x17431, offset: 0x184B5, size: 0x8, addend: 0x0, symName: __ZNKSt12_Vector_baseIhSaIhEE19_M_get_Tp_allocatorEv, symObjAddr: 0x6EF6, symBinAddr: 0x10000AA90, symSize: 0xE }
  - { offsetInCU: 0x17490, offset: 0x18514, size: 0x8, addend: 0x0, symName: __ZNSt8__detail21_Hashtable_ebo_helperILi0ESaINS_10_Hash_nodeISt4pairIKyN6tinyrv10MemoryUnit8TLBEntryEELb0EEEELb1EE6_M_getEv, symObjAddr: 0x6ECE, symBinAddr: 0x10000AA68, symSize: 0xE }
  - { offsetInCU: 0x17498, offset: 0x1851C, size: 0x8, addend: 0x0, symName: __ZNSt19__ptr_traits_ptr_toIPNSt8__detail10_Hash_nodeISt4pairIKyN6tinyrv10MemoryUnit8TLBEntryEELb0EEES8_Lb0EE10pointer_toERS8_, symObjAddr: 0x6EDC, symBinAddr: 0x10000AA76, symSize: 0x1A }
  - { offsetInCU: 0x174BF, offset: 0x18543, size: 0x8, addend: 0x0, symName: __ZNSt27__uninitialized_default_n_1ILb1EE18__uninit_default_nIPcmEET_S3_T0_, symObjAddr: 0x6E71, symBinAddr: 0x10000AA0B, symSize: 0x5D }
  - { offsetInCU: 0x174C7, offset: 0x1854B, size: 0x8, addend: 0x0, symName: __ZNSt8__detail21_Hashtable_ebo_helperILi0ESaINS_10_Hash_nodeISt4pairIKyN6tinyrv10MemoryUnit8TLBEntryEELb0EEEELb1EE6_M_getEv, symObjAddr: 0x6ECE, symBinAddr: 0x10000AA68, symSize: 0xE }
  - { offsetInCU: 0x17595, offset: 0x18619, size: 0x8, addend: 0x0, symName: __ZNSt10_HashtableIySt4pairIKyPhESaIS3_ENSt8__detail10_Select1stESt8equal_toIyESt4hashIyENS5_18_Mod_range_hashingENS5_20_Default_ranged_hashENS5_20_Prime_rehash_policyENS5_17_Hashtable_traitsILb0ELb0ELb1EEEE22_M_insert_bucket_beginEmPNS5_10_Hash_nodeIS3_Lb0EEE, symObjAddr: 0x6D86, symBinAddr: 0x10000A920, symSize: 0xEB }
  - { offsetInCU: 0x1759D, offset: 0x18621, size: 0x8, addend: 0x0, symName: __ZNSt27__uninitialized_default_n_1ILb1EE18__uninit_default_nIPcmEET_S3_T0_, symObjAddr: 0x6E71, symBinAddr: 0x10000AA0B, symSize: 0x5D }
  - { offsetInCU: 0x175EC, offset: 0x18670, size: 0x8, addend: 0x0, symName: __ZNKSt8__detail15_Hash_code_baseIySt4pairIKyPhENS_10_Select1stESt4hashIyENS_18_Mod_range_hashingENS_20_Default_ranged_hashELb0EE13_M_store_codeERNS_21_Hash_node_code_cacheILb0EEEm, symObjAddr: 0x6D72, symBinAddr: 0x10000A90C, symSize: 0x14 }
  - { offsetInCU: 0x17633, offset: 0x186B7, size: 0x8, addend: 0x0, symName: __ZNSt10_HashtableIySt4pairIKyPhESaIS3_ENSt8__detail10_Select1stESt8equal_toIyESt4hashIyENS5_18_Mod_range_hashingENS5_20_Default_ranged_hashENS5_20_Prime_rehash_policyENS5_17_Hashtable_traitsILb0ELb0ELb1EEEE9_M_rehashEmRKm, symObjAddr: 0x6D08, symBinAddr: 0x10000A8A2, symSize: 0x6A }
  - { offsetInCU: 0x1763B, offset: 0x186BF, size: 0x8, addend: 0x0, symName: __ZNKSt8__detail15_Hash_code_baseIySt4pairIKyPhENS_10_Select1stESt4hashIyENS_18_Mod_range_hashingENS_20_Default_ranged_hashELb0EE13_M_store_codeERNS_21_Hash_node_code_cacheILb0EEEm, symObjAddr: 0x6D72, symBinAddr: 0x10000A90C, symSize: 0x14 }
  - { offsetInCU: 0x17764, offset: 0x187E8, size: 0x8, addend: 0x0, symName: __ZSt7forwardINSt8__detail14_Node_iteratorISt4pairIKyPhELb0ELb0EEEEOT_RNSt16remove_referenceIS7_E4typeE, symObjAddr: 0x6CFA, symBinAddr: 0x10000A894, symSize: 0xE }
  - { offsetInCU: 0x1776C, offset: 0x187F0, size: 0x8, addend: 0x0, symName: __ZNSt10_HashtableIySt4pairIKyPhESaIS3_ENSt8__detail10_Select1stESt8equal_toIyESt4hashIyENS5_18_Mod_range_hashingENS5_20_Default_ranged_hashENS5_20_Prime_rehash_policyENS5_17_Hashtable_traitsILb0ELb0ELb1EEEE9_M_rehashEmRKm, symObjAddr: 0x6D08, symBinAddr: 0x10000A8A2, symSize: 0x6A }
  - { offsetInCU: 0x177B9, offset: 0x1883D, size: 0x8, addend: 0x0, symName: __ZSt7forwardIRNSt8__detail14_Node_iteratorISt4pairIKyPhELb0ELb0EEEEOT_RNSt16remove_referenceIS8_E4typeE, symObjAddr: 0x6CEC, symBinAddr: 0x10000A886, symSize: 0xE }
  - { offsetInCU: 0x177C1, offset: 0x18845, size: 0x8, addend: 0x0, symName: __ZSt7forwardINSt8__detail14_Node_iteratorISt4pairIKyPhELb0ELb0EEEEOT_RNSt16remove_referenceIS7_E4typeE, symObjAddr: 0x6CFA, symBinAddr: 0x10000A894, symSize: 0xE }
  - { offsetInCU: 0x177B9, offset: 0x1883D, size: 0x8, addend: 0x0, symName: __ZSt7forwardIRSt4pairIKyPhEEOT_RNSt16remove_referenceIS5_E4typeE, symObjAddr: 0x6CDE, symBinAddr: 0x10000A878, symSize: 0xE }
  - { offsetInCU: 0x177C1, offset: 0x18845, size: 0x8, addend: 0x0, symName: __ZSt7forwardIRNSt8__detail14_Node_iteratorISt4pairIKyPhELb0ELb0EEEEOT_RNSt16remove_referenceIS8_E4typeE, symObjAddr: 0x6CEC, symBinAddr: 0x10000A886, symSize: 0xE }
  - { offsetInCU: 0x17786, offset: 0x1880A, size: 0x8, addend: 0x0, symName: __ZNSt8__detail16_Hashtable_allocISaINS_10_Hash_nodeISt4pairIKyPhELb0EEEEE16_M_allocate_nodeIJRyRS4_EEEPS6_DpOT_, symObjAddr: 0x6B7E, symBinAddr: 0x10000A718, symSize: 0x160 }
  - { offsetInCU: 0x1778E, offset: 0x18812, size: 0x8, addend: 0x0, symName: __ZSt7forwardIRSt4pairIKyPhEEOT_RNSt16remove_referenceIS5_E4typeE, symObjAddr: 0x6CDE, symBinAddr: 0x10000A878, symSize: 0xE }
  - { offsetInCU: 0x17935, offset: 0x189B9, size: 0x8, addend: 0x0, symName: __ZNSt8__detail10_Hash_nodeISt4pairIKyPhELb0EEC1Ev, symObjAddr: 0x6B62, symBinAddr: 0x10000A6FC, symSize: 0x1C }
  - { offsetInCU: 0x17931, offset: 0x189B5, size: 0x8, addend: 0x0, symName: __ZNKSt10_HashtableIySt4pairIKyPhESaIS3_ENSt8__detail10_Select1stESt8equal_toIyESt4hashIyENS5_18_Mod_range_hashingENS5_20_Default_ranged_hashENS5_20_Prime_rehash_policyENS5_17_Hashtable_traitsILb0ELb0ELb1EEEE15_M_bucket_indexERKNS5_16_Hash_node_valueIS3_Lb0EEE, symObjAddr: 0x6B34, symBinAddr: 0x10000A6CE, symSize: 0x2E }
  - { offsetInCU: 0x17974, offset: 0x189F8, size: 0x8, addend: 0x0, symName: __ZNKSt8__detail15_Hashtable_baseIySt4pairIKyPhENS_10_Select1stESt8equal_toIyESt4hashIyENS_18_Mod_range_hashingENS_20_Default_ranged_hashENS_17_Hashtable_traitsILb0ELb0ELb1EEEE9_M_equalsERS2_mRKNS_16_Hash_node_valueIS4_Lb0EEE, symObjAddr: 0x6ADC, symBinAddr: 0x10000A676, symSize: 0x58 }
  - { offsetInCU: 0x1797C, offset: 0x18A00, size: 0x8, addend: 0x0, symName: __ZNKSt10_HashtableIySt4pairIKyPhESaIS3_ENSt8__detail10_Select1stESt8equal_toIyESt4hashIyENS5_18_Mod_range_hashingENS5_20_Default_ranged_hashENS5_20_Prime_rehash_policyENS5_17_Hashtable_traitsILb0ELb0ELb1EEEE15_M_bucket_indexERKNS5_16_Hash_node_valueIS3_Lb0EEE, symObjAddr: 0x6B34, symBinAddr: 0x10000A6CE, symSize: 0x2E }
  - { offsetInCU: 0x17A6D, offset: 0x18AF1, size: 0x8, addend: 0x0, symName: __ZSt7forwardIRKSt4pairIKyPhEEOT_RNSt16remove_referenceIS6_E4typeE, symObjAddr: 0x6ACE, symBinAddr: 0x10000A668, symSize: 0xE }
  - { offsetInCU: 0x17A75, offset: 0x18AF9, size: 0x8, addend: 0x0, symName: __ZNKSt8__detail15_Hashtable_baseIySt4pairIKyPhENS_10_Select1stESt8equal_toIyESt4hashIyENS_18_Mod_range_hashingENS_20_Default_ranged_hashENS_17_Hashtable_traitsILb0ELb0ELb1EEEE9_M_equalsERS2_mRKNS_16_Hash_node_valueIS4_Lb0EEE, symObjAddr: 0x6ADC, symBinAddr: 0x10000A676, symSize: 0x58 }
  - { offsetInCU: 0x17A33, offset: 0x18AB7, size: 0x8, addend: 0x0, symName: __ZNKSt8__detail21_Hash_node_value_baseISt4pairIKyPhEE9_M_valptrEv, symObjAddr: 0x6AB4, symBinAddr: 0x10000A64E, symSize: 0x1A }
  - { offsetInCU: 0x17A3B, offset: 0x18ABF, size: 0x8, addend: 0x0, symName: __ZSt7forwardIRKSt4pairIKyPhEEOT_RNSt16remove_referenceIS6_E4typeE, symObjAddr: 0x6ACE, symBinAddr: 0x10000A668, symSize: 0xE }
  - { offsetInCU: 0x17A91, offset: 0x18B15, size: 0x8, addend: 0x0, symName: __ZNSt8__detail16_Hashtable_allocISaINS_10_Hash_nodeISt4pairIKyPhELb0EEEEE22_M_deallocate_node_ptrEPS6_, symObjAddr: 0x6A58, symBinAddr: 0x10000A5F2, symSize: 0x5C }
  - { offsetInCU: 0x17B60, offset: 0x18BE4, size: 0x8, addend: 0x0, symName: __ZNSt8__detail16_Hashtable_allocISaINS_10_Hash_nodeISt4pairIKyPhELb0EEEEE17_M_node_allocatorEv, symObjAddr: 0x6A3E, symBinAddr: 0x10000A5D8, symSize: 0x1A }
  - { offsetInCU: 0x17B68, offset: 0x18BEC, size: 0x8, addend: 0x0, symName: __ZNSt8__detail16_Hashtable_allocISaINS_10_Hash_nodeISt4pairIKyPhELb0EEEEE22_M_deallocate_node_ptrEPS6_, symObjAddr: 0x6A58, symBinAddr: 0x10000A5F2, symSize: 0x5C }
  - { offsetInCU: 0x17B8F, offset: 0x18C13, size: 0x8, addend: 0x0, symName: __ZNSt10_HashtableIySt4pairIKyN6tinyrv10MemoryUnit8TLBEntryEESaIS5_ENSt8__detail10_Select1stESt8equal_toIyESt4hashIyENS7_18_Mod_range_hashingENS7_20_Default_ranged_hashENS7_20_Prime_rehash_policyENS7_17_Hashtable_traitsILb0ELb0ELb1EEEE22_M_remove_bucket_beginEmPNS7_10_Hash_nodeIS5_Lb0EEEm, symObjAddr: 0x699E, symBinAddr: 0x10000A538, symSize: 0xA0 }
  - { offsetInCU: 0x17B97, offset: 0x18C1B, size: 0x8, addend: 0x0, symName: __ZNSt8__detail16_Hashtable_allocISaINS_10_Hash_nodeISt4pairIKyPhELb0EEEEE17_M_node_allocatorEv, symObjAddr: 0x6A3E, symBinAddr: 0x10000A5D8, symSize: 0x1A }
  - { offsetInCU: 0x17BFA, offset: 0x18C7E, size: 0x8, addend: 0x0, symName: __ZNKSt8__detail15_Hash_code_baseIySt4pairIKyN6tinyrv10MemoryUnit8TLBEntryEENS_10_Select1stESt4hashIyENS_18_Mod_range_hashingENS_20_Default_ranged_hashELb0EE15_M_bucket_indexERKNS_16_Hash_node_valueIS6_Lb0EEEm, symObjAddr: 0x6942, symBinAddr: 0x10000A4DC, symSize: 0x5C }
  - { offsetInCU: 0x17C02, offset: 0x18C86, size: 0x8, addend: 0x0, symName: __ZNSt10_HashtableIySt4pairIKyN6tinyrv10MemoryUnit8TLBEntryEESaIS5_ENSt8__detail10_Select1stESt8equal_toIyESt4hashIyENS7_18_Mod_range_hashingENS7_20_Default_ranged_hashENS7_20_Prime_rehash_policyENS7_17_Hashtable_traitsILb0ELb0ELb1EEEE22_M_remove_bucket_beginEmPNS7_10_Hash_nodeIS5_Lb0EEEm, symObjAddr: 0x699E, symBinAddr: 0x10000A538, symSize: 0xA0 }
  - { offsetInCU: 0x17D09, offset: 0x18D8D, size: 0x8, addend: 0x0, symName: __ZSt7forwardIRKSt4pairIKyN6tinyrv10MemoryUnit8TLBEntryEEEOT_RNSt16remove_referenceIS8_E4typeE, symObjAddr: 0x6934, symBinAddr: 0x10000A4CE, symSize: 0xE }
  - { offsetInCU: 0x17D11, offset: 0x18D95, size: 0x8, addend: 0x0, symName: __ZNKSt8__detail15_Hash_code_baseIySt4pairIKyN6tinyrv10MemoryUnit8TLBEntryEENS_10_Select1stESt4hashIyENS_18_Mod_range_hashingENS_20_Default_ranged_hashELb0EE15_M_bucket_indexERKNS_16_Hash_node_valueIS6_Lb0EEEm, symObjAddr: 0x6942, symBinAddr: 0x10000A4DC, symSize: 0x5C }
  - { offsetInCU: 0x17CA5, offset: 0x18D29, size: 0x8, addend: 0x0, symName: __ZNKSt8__detail21_Hash_node_value_baseISt4pairIKyN6tinyrv10MemoryUnit8TLBEntryEEE9_M_valptrEv, symObjAddr: 0x691A, symBinAddr: 0x10000A4B4, symSize: 0x1A }
  - { offsetInCU: 0x17CAD, offset: 0x18D31, size: 0x8, addend: 0x0, symName: __ZSt7forwardIRKSt4pairIKyN6tinyrv10MemoryUnit8TLBEntryEEEOT_RNSt16remove_referenceIS8_E4typeE, symObjAddr: 0x6934, symBinAddr: 0x10000A4CE, symSize: 0xE }
  - { offsetInCU: 0x17CD4, offset: 0x18D58, size: 0x8, addend: 0x0, symName: __ZNKSt8__detail21_Hashtable_ebo_helperILi0ESt8equal_toIyELb1EE7_M_cgetEv, symObjAddr: 0x690C, symBinAddr: 0x10000A4A6, symSize: 0xE }
  - { offsetInCU: 0x17CDC, offset: 0x18D60, size: 0x8, addend: 0x0, symName: __ZNKSt8__detail21_Hash_node_value_baseISt4pairIKyN6tinyrv10MemoryUnit8TLBEntryEEE9_M_valptrEv, symObjAddr: 0x691A, symBinAddr: 0x10000A4B4, symSize: 0x1A }
  - { offsetInCU: 0x17D03, offset: 0x18D87, size: 0x8, addend: 0x0, symName: __ZNSt10_HashtableIySt4pairIKyN6tinyrv10MemoryUnit8TLBEntryEESaIS5_ENSt8__detail10_Select1stESt8equal_toIyESt4hashIyENS7_18_Mod_range_hashingENS7_20_Default_ranged_hashENS7_20_Prime_rehash_policyENS7_17_Hashtable_traitsILb0ELb0ELb1EEEE13_M_rehash_auxEmSt17integral_constantIbLb1EE, symObjAddr: 0x6792, symBinAddr: 0x10000A32C, symSize: 0x17A }
  - { offsetInCU: 0x17F62, offset: 0x18FE6, size: 0x8, addend: 0x0, symName: __ZSt12__to_addressINSt8__detail10_Hash_nodeISt4pairIKyN6tinyrv10MemoryUnit8TLBEntryEELb0EEEEPT_SA_, symObjAddr: 0x6783, symBinAddr: 0x10000A31D, symSize: 0xF }
  - { offsetInCU: 0x17F58, offset: 0x18FDC, size: 0x8, addend: 0x0, symName: __ZNSt11_Tuple_implILm0EJOyEEC2IyEEOT_, symObjAddr: 0x6750, symBinAddr: 0x10000A2EA, symSize: 0x33 }
  - { offsetInCU: 0x17F60, offset: 0x18FE4, size: 0x8, addend: 0x0, symName: __ZSt12__to_addressINSt8__detail10_Hash_nodeISt4pairIKyN6tinyrv10MemoryUnit8TLBEntryEELb0EEEEPT_SA_, symObjAddr: 0x6783, symBinAddr: 0x10000A31D, symSize: 0xF }
  - { offsetInCU: 0x17F79, offset: 0x18FFD, size: 0x8, addend: 0x0, symName: __ZNKSt8__detail15_Hashtable_baseIySt4pairIKyN6tinyrv10MemoryUnit8TLBEntryEENS_10_Select1stESt8equal_toIyESt4hashIyENS_18_Mod_range_hashingENS_20_Default_ranged_hashENS_17_Hashtable_traitsILb0ELb0ELb1EEEE9_M_equalsERS2_mRKNS_16_Hash_node_valueIS6_Lb0EEE, symObjAddr: 0x66F8, symBinAddr: 0x10000A292, symSize: 0x58 }
  - { offsetInCU: 0x17F81, offset: 0x19005, size: 0x8, addend: 0x0, symName: __ZNSt11_Tuple_implILm0EJOyEEC2IyEEOT_, symObjAddr: 0x6750, symBinAddr: 0x10000A2EA, symSize: 0x33 }
  - { offsetInCU: 0x17FE4, offset: 0x19068, size: 0x8, addend: 0x0, symName: __ZNKSt8__detail21_Hashtable_ebo_helperILi1ESt4hashIyELb1EE7_M_cgetEv, symObjAddr: 0x66EA, symBinAddr: 0x10000A284, symSize: 0xE }
  - { offsetInCU: 0x17FEC, offset: 0x19070, size: 0x8, addend: 0x0, symName: __ZNKSt8__detail15_Hashtable_baseIySt4pairIKyN6tinyrv10MemoryUnit8TLBEntryEENS_10_Select1stESt8equal_toIyESt4hashIyENS_18_Mod_range_hashingENS_20_Default_ranged_hashENS_17_Hashtable_traitsILb0ELb0ELb1EEEE9_M_equalsERS2_mRKNS_16_Hash_node_valueIS6_Lb0EEE, symObjAddr: 0x66F8, symBinAddr: 0x10000A292, symSize: 0x58 }
  - { offsetInCU: 0x18185, offset: 0x19209, size: 0x8, addend: 0x0, symName: __ZSt18uninitialized_copyISt13move_iteratorIPN6tinyrv10MemoryUnit8ADecoder7entry_tEES5_ET0_T_S8_S7_, symObjAddr: 0x669B, symBinAddr: 0x10000A24F, symSize: 0x35 }
  - { offsetInCU: 0x181B8, offset: 0x1923C, size: 0x8, addend: 0x0, symName: __ZNSt13move_iteratorIPN6tinyrv10MemoryUnit8ADecoder7entry_tEEC1ES4_, symObjAddr: 0x6672, symBinAddr: 0x10000A226, symSize: 0x29 }
  - { offsetInCU: 0x181C0, offset: 0x19244, size: 0x8, addend: 0x0, symName: __ZSt18uninitialized_copyISt13move_iteratorIPN6tinyrv10MemoryUnit8ADecoder7entry_tEES5_ET0_T_S8_S7_, symObjAddr: 0x669B, symBinAddr: 0x10000A24F, symSize: 0x35 }
  - { offsetInCU: 0x1829D, offset: 0x19321, size: 0x8, addend: 0x0, symName: __ZSt12__relocate_aIPN6tinyrv10MemoryUnit8ADecoder7entry_tES4_SaIS3_EET0_T_S7_S6_RT1_, symObjAddr: 0x660F, symBinAddr: 0x10000A1C3, symSize: 0x63 }
  - { offsetInCU: 0x182A5, offset: 0x19329, size: 0x8, addend: 0x0, symName: __ZNSt13move_iteratorIPN6tinyrv10MemoryUnit8ADecoder7entry_tEEC1ES4_, symObjAddr: 0x6672, symBinAddr: 0x10000A226, symSize: 0x29 }
  - { offsetInCU: 0x18250, offset: 0x192D4, size: 0x8, addend: 0x0, symName: __ZNSt15__new_allocatorIN6tinyrv10MemoryUnit8ADecoder7entry_tEE8allocateEmPKv, symObjAddr: 0x65A0, symBinAddr: 0x10000A154, symSize: 0x6F }
  - { offsetInCU: 0x18258, offset: 0x192DC, size: 0x8, addend: 0x0, symName: __ZSt12__relocate_aIPN6tinyrv10MemoryUnit8ADecoder7entry_tES4_SaIS3_EET0_T_S7_S6_RT1_, symObjAddr: 0x660F, symBinAddr: 0x10000A1C3, symSize: 0x63 }
  - { offsetInCU: 0x182C4, offset: 0x19348, size: 0x8, addend: 0x0, symName: __ZNKSt12_Vector_baseIN6tinyrv10MemoryUnit8ADecoder7entry_tESaIS3_EE19_M_get_Tp_allocatorEv, symObjAddr: 0x6592, symBinAddr: 0x10000A146, symSize: 0xE }
  - { offsetInCU: 0x182CC, offset: 0x19350, size: 0x8, addend: 0x0, symName: __ZNSt15__new_allocatorIN6tinyrv10MemoryUnit8ADecoder7entry_tEE8allocateEmPKv, symObjAddr: 0x65A0, symBinAddr: 0x10000A154, symSize: 0x6F }
  - { offsetInCU: 0x182F3, offset: 0x19377, size: 0x8, addend: 0x0, symName: __ZNSt6vectorIN6tinyrv10MemoryUnit8ADecoder7entry_tESaIS3_EE11_S_max_sizeERKS4_, symObjAddr: 0x6537, symBinAddr: 0x10000A0EB, symSize: 0x5B }
  - { offsetInCU: 0x183C0, offset: 0x19444, size: 0x8, addend: 0x0, symName: __ZNSt27__uninitialized_default_n_1ILb1EE18__uninit_default_nIPhmEET_S3_T0_, symObjAddr: 0x64DA, symBinAddr: 0x10000A08E, symSize: 0x5D }
  - { offsetInCU: 0x183C8, offset: 0x1944C, size: 0x8, addend: 0x0, symName: __ZNSt6vectorIN6tinyrv10MemoryUnit8ADecoder7entry_tESaIS3_EE11_S_max_sizeERKS4_, symObjAddr: 0x6537, symBinAddr: 0x10000A0EB, symSize: 0x5B }
  - { offsetInCU: 0x18549, offset: 0x195CD, size: 0x8, addend: 0x0, symName: __ZSt22__uninitialized_copy_aISt13move_iteratorIPhES1_hET0_T_S4_S3_RSaIT1_E, symObjAddr: 0x64A9, symBinAddr: 0x10000A05D, symSize: 0x31 }
  - { offsetInCU: 0x18551, offset: 0x195D5, size: 0x8, addend: 0x0, symName: __ZNSt27__uninitialized_default_n_1ILb1EE18__uninit_default_nIPhmEET_S3_T0_, symObjAddr: 0x64DA, symBinAddr: 0x10000A08E, symSize: 0x5D }
  - { offsetInCU: 0x185B3, offset: 0x19637, size: 0x8, addend: 0x0, symName: __ZSt32__make_move_if_noexcept_iteratorIhSt13move_iteratorIPhEET0_PT_, symObjAddr: 0x6484, symBinAddr: 0x10000A038, symSize: 0x25 }
  - { offsetInCU: 0x185BB, offset: 0x1963F, size: 0x8, addend: 0x0, symName: __ZSt22__uninitialized_copy_aISt13move_iteratorIPhES1_hET0_T_S4_S3_RSaIT1_E, symObjAddr: 0x64A9, symBinAddr: 0x10000A05D, symSize: 0x31 }
  - { offsetInCU: 0x18593, offset: 0x19617, size: 0x8, addend: 0x0, symName: __ZNSt6vectorIhSaIhEE14_S_do_relocateEPhS2_S2_RS0_St17integral_constantIbLb1EE, symObjAddr: 0x6452, symBinAddr: 0x10000A006, symSize: 0x32 }
  - { offsetInCU: 0x1859B, offset: 0x1961F, size: 0x8, addend: 0x0, symName: __ZSt32__make_move_if_noexcept_iteratorIhSt13move_iteratorIPhEET0_PT_, symObjAddr: 0x6484, symBinAddr: 0x10000A038, symSize: 0x25 }
  - { offsetInCU: 0x1863A, offset: 0x196BE, size: 0x8, addend: 0x0, symName: __ZNKSt6vectorIhSaIhEE8max_sizeEv, symObjAddr: 0x6430, symBinAddr: 0x100009FE4, symSize: 0x22 }
  - { offsetInCU: 0x18642, offset: 0x196C6, size: 0x8, addend: 0x0, symName: __ZNSt6vectorIhSaIhEE14_S_do_relocateEPhS2_S2_RS0_St17integral_constantIbLb1EE, symObjAddr: 0x6452, symBinAddr: 0x10000A006, symSize: 0x32 }
  - { offsetInCU: 0x18669, offset: 0x196ED, size: 0x8, addend: 0x0, symName: __ZNSt15__new_allocatorIcE10deallocateEPcm, symObjAddr: 0x640C, symBinAddr: 0x100009FC0, symSize: 0x24 }
  - { offsetInCU: 0x186F0, offset: 0x19774, size: 0x8, addend: 0x0, symName: __ZSt11__addressofIcEPT_RS0_, symObjAddr: 0x63FD, symBinAddr: 0x100009FB1, symSize: 0xF }
  - { offsetInCU: 0x18708, offset: 0x1978C, size: 0x8, addend: 0x0, symName: __ZNSt8__detail16_Hashtable_allocISaINS_10_Hash_nodeISt4pairIKyN6tinyrv10MemoryUnit8TLBEntryEELb0EEEEE22_M_deallocate_node_ptrEPS8_, symObjAddr: 0x63A2, symBinAddr: 0x100009F56, symSize: 0x5B }
  - { offsetInCU: 0x18710, offset: 0x19794, size: 0x8, addend: 0x0, symName: __ZSt11__addressofIcEPT_RS0_, symObjAddr: 0x63FD, symBinAddr: 0x100009FB1, symSize: 0xF }
  - { offsetInCU: 0x187D7, offset: 0x1985B, size: 0x8, addend: 0x0, symName: __ZNSt8__detail16_Hashtable_allocISaINS_10_Hash_nodeISt4pairIKyN6tinyrv10MemoryUnit8TLBEntryEELb0EEEEE17_M_node_allocatorEv, symObjAddr: 0x6388, symBinAddr: 0x100009F3C, symSize: 0x1A }
  - { offsetInCU: 0x187DF, offset: 0x19863, size: 0x8, addend: 0x0, symName: __ZNSt8__detail16_Hashtable_allocISaINS_10_Hash_nodeISt4pairIKyN6tinyrv10MemoryUnit8TLBEntryEELb0EEEEE22_M_deallocate_node_ptrEPS8_, symObjAddr: 0x63A2, symBinAddr: 0x100009F56, symSize: 0x5B }
  - { offsetInCU: 0x18806, offset: 0x1988A, size: 0x8, addend: 0x0, symName: __ZNSt12_Destroy_auxILb1EE9__destroyIPcEEvT_S3_, symObjAddr: 0x6378, symBinAddr: 0x100009F2C, symSize: 0x10 }
  - { offsetInCU: 0x188AF, offset: 0x19933, size: 0x8, addend: 0x0, symName: __ZSt25__uninitialized_default_nIPcmET_S1_T0_, symObjAddr: 0x634F, symBinAddr: 0x100009F03, symSize: 0x29 }
  - { offsetInCU: 0x188B7, offset: 0x1993B, size: 0x8, addend: 0x0, symName: __ZNSt12_Destroy_auxILb1EE9__destroyIPcEEvT_S3_, symObjAddr: 0x6378, symBinAddr: 0x100009F2C, symSize: 0x10 }
  - { offsetInCU: 0x188CA, offset: 0x1994E, size: 0x8, addend: 0x0, symName: __ZNSt12_Vector_baseIcSaIcEE11_M_allocateEm, symObjAddr: 0x6306, symBinAddr: 0x100009EBA, symSize: 0x49 }
  - { offsetInCU: 0x188D2, offset: 0x19956, size: 0x8, addend: 0x0, symName: __ZSt25__uninitialized_default_nIPcmET_S1_T0_, symObjAddr: 0x634F, symBinAddr: 0x100009F03, symSize: 0x29 }
  - { offsetInCU: 0x1898B, offset: 0x19A0F, size: 0x8, addend: 0x0, symName: __ZNSt12_Vector_baseIcSaIcEE17_Vector_impl_dataC2Ev, symObjAddr: 0x62D8, symBinAddr: 0x100009E8C, symSize: 0x2E }
  - { offsetInCU: 0x18993, offset: 0x19A17, size: 0x8, addend: 0x0, symName: __ZNSt12_Vector_baseIcSaIcEE11_M_allocateEm, symObjAddr: 0x6306, symBinAddr: 0x100009EBA, symSize: 0x49 }
  - { offsetInCU: 0x189A2, offset: 0x19A26, size: 0x8, addend: 0x0, symName: __ZNSt10_HashtableIySt4pairIKyPhESaIS3_ENSt8__detail10_Select1stESt8equal_toIyESt4hashIyENS5_18_Mod_range_hashingENS5_20_Default_ranged_hashENS5_20_Prime_rehash_policyENS5_17_Hashtable_traitsILb0ELb0ELb1EEEE21_M_insert_unique_nodeEmmPNS5_10_Hash_nodeIS3_Lb0EEEm, symObjAddr: 0x61DA, symBinAddr: 0x100009D8E, symSize: 0xFE }
  - { offsetInCU: 0x18AF4, offset: 0x19B78, size: 0x8, addend: 0x0, symName: __ZNSt4pairINSt8__detail14_Node_iteratorIS_IKyPhELb0ELb0EEEbEC1IS5_bLb1EEEOT_OT0_, symObjAddr: 0x6196, symBinAddr: 0x100009D4A, symSize: 0x44 }
  - { offsetInCU: 0x18BAA, offset: 0x19C2E, size: 0x8, addend: 0x0, symName: __ZNSt4pairINSt8__detail14_Node_iteratorIS_IKyPhELb0ELb0EEEbEC1IRS5_bLb1EEEOT_OT0_, symObjAddr: 0x6152, symBinAddr: 0x100009D06, symSize: 0x44 }
  - { offsetInCU: 0x18BCB, offset: 0x19C4F, size: 0x8, addend: 0x0, symName: __ZNKSt8__detail10_Select1stclIRSt4pairIKyPhEEEONS0_10__1st_typeIT_E4typeEOS8_, symObjAddr: 0x6134, symBinAddr: 0x100009CE8, symSize: 0x1E }
  - { offsetInCU: 0x18BD3, offset: 0x19C57, size: 0x8, addend: 0x0, symName: __ZNSt4pairINSt8__detail14_Node_iteratorIS_IKyPhELb0ELb0EEEbEC1IRS5_bLb1EEEOT_OT0_, symObjAddr: 0x6152, symBinAddr: 0x100009D06, symSize: 0x44 }
  - { offsetInCU: 0x18D22, offset: 0x19DA6, size: 0x8, addend: 0x0, symName: __ZNSt10_HashtableIySt4pairIKyPhESaIS3_ENSt8__detail10_Select1stESt8equal_toIyESt4hashIyENS5_18_Mod_range_hashingENS5_20_Default_ranged_hashENS5_20_Prime_rehash_policyENS5_17_Hashtable_traitsILb0ELb0ELb1EEEE12_Scoped_nodeD1Ev, symObjAddr: 0x60FE, symBinAddr: 0x100009CB2, symSize: 0x36 }
  - { offsetInCU: 0x18D2A, offset: 0x19DAE, size: 0x8, addend: 0x0, symName: __ZNKSt8__detail10_Select1stclIRSt4pairIKyPhEEEONS0_10__1st_typeIT_E4typeEOS8_, symObjAddr: 0x6134, symBinAddr: 0x100009CE8, symSize: 0x1E }
  - { offsetInCU: 0x18DF0, offset: 0x19E74, size: 0x8, addend: 0x0, symName: __ZNSt10_HashtableIySt4pairIKyPhESaIS3_ENSt8__detail10_Select1stESt8equal_toIyESt4hashIyENS5_18_Mod_range_hashingENS5_20_Default_ranged_hashENS5_20_Prime_rehash_policyENS5_17_Hashtable_traitsILb0ELb0ELb1EEEE12_Scoped_nodeC1IJRyRS2_EEEPNS5_16_Hashtable_allocISaINS5_10_Hash_nodeIS3_Lb0EEEEEEDpOT_, symObjAddr: 0x6098, symBinAddr: 0x100009C4C, symSize: 0x66 }
  - { offsetInCU: 0x18D3D, offset: 0x19DC1, size: 0x8, addend: 0x0, symName: __ZN9__gnu_cxx16__aligned_bufferISt4pairIKyPhEE7_M_addrEv, symObjAddr: 0x608A, symBinAddr: 0x100009C3E, symSize: 0xE }
  - { offsetInCU: 0x18D45, offset: 0x19DC9, size: 0x8, addend: 0x0, symName: __ZNSt10_HashtableIySt4pairIKyPhESaIS3_ENSt8__detail10_Select1stESt8equal_toIyESt4hashIyENS5_18_Mod_range_hashingENS5_20_Default_ranged_hashENS5_20_Prime_rehash_policyENS5_17_Hashtable_traitsILb0ELb0ELb1EEEE12_Scoped_nodeC1IJRyRS2_EEEPNS5_16_Hashtable_allocISaINS5_10_Hash_nodeIS3_Lb0EEEEEEDpOT_, symObjAddr: 0x6098, symBinAddr: 0x100009C4C, symSize: 0x66 }
  - { offsetInCU: 0x18D70, offset: 0x19DF4, size: 0x8, addend: 0x0, symName: __ZNKSt10_HashtableIySt4pairIKyPhESaIS3_ENSt8__detail10_Select1stESt8equal_toIyESt4hashIyENS5_18_Mod_range_hashingENS5_20_Default_ranged_hashENS5_20_Prime_rehash_policyENS5_17_Hashtable_traitsILb0ELb0ELb1EEEE19_M_find_before_nodeEmRS1_m, symObjAddr: 0x5FB0, symBinAddr: 0x100009B64, symSize: 0xDA }
  - { offsetInCU: 0x18E15, offset: 0x19E99, size: 0x8, addend: 0x0, symName: __ZNKSt8__detail15_Hash_code_baseIySt4pairIKyPhENS_10_Select1stESt4hashIyENS_18_Mod_range_hashingENS_20_Default_ranged_hashELb0EE15_M_bucket_indexEmm, symObjAddr: 0x5F82, symBinAddr: 0x100009B36, symSize: 0x2E }
  - { offsetInCU: 0x18E6C, offset: 0x19EF0, size: 0x8, addend: 0x0, symName: __ZNKSt8__detail15_Hash_code_baseIySt4pairIKyPhENS_10_Select1stESt4hashIyENS_18_Mod_range_hashingENS_20_Default_ranged_hashELb0EE7_M_hashEv, symObjAddr: 0x5F68, symBinAddr: 0x100009B1C, symSize: 0x1A }
  - { offsetInCU: 0x18E74, offset: 0x19EF8, size: 0x8, addend: 0x0, symName: __ZNKSt8__detail15_Hash_code_baseIySt4pairIKyPhENS_10_Select1stESt4hashIyENS_18_Mod_range_hashingENS_20_Default_ranged_hashELb0EE15_M_bucket_indexEmm, symObjAddr: 0x5F82, symBinAddr: 0x100009B36, symSize: 0x2E }
  - { offsetInCU: 0x18E9B, offset: 0x19F1F, size: 0x8, addend: 0x0, symName: __ZNKSt8__detail10_Select1stclIRKSt4pairIKyPhEEEONS0_10__1st_typeIT_E4typeEOS9_, symObjAddr: 0x5F4A, symBinAddr: 0x100009AFE, symSize: 0x1E }
  - { offsetInCU: 0x18EA3, offset: 0x19F27, size: 0x8, addend: 0x0, symName: __ZNKSt8__detail15_Hash_code_baseIySt4pairIKyPhENS_10_Select1stESt4hashIyENS_18_Mod_range_hashingENS_20_Default_ranged_hashELb0EE7_M_hashEv, symObjAddr: 0x5F68, symBinAddr: 0x100009B1C, symSize: 0x1A }
  - { offsetInCU: 0x18EEA, offset: 0x19F6E, size: 0x8, addend: 0x0, symName: __ZNKSt8__detail21_Hash_node_value_baseISt4pairIKyPhEE4_M_vEv, symObjAddr: 0x5F30, symBinAddr: 0x100009AE4, symSize: 0x1A }
  - { offsetInCU: 0x18EF2, offset: 0x19F76, size: 0x8, addend: 0x0, symName: __ZNKSt8__detail10_Select1stclIRKSt4pairIKyPhEEEONS0_10__1st_typeIT_E4typeEOS9_, symObjAddr: 0x5F4A, symBinAddr: 0x100009AFE, symSize: 0x1E }
  - { offsetInCU: 0x18F19, offset: 0x19F9D, size: 0x8, addend: 0x0, symName: __ZNKSt8__detail15_Hashtable_baseIySt4pairIKyPhENS_10_Select1stESt8equal_toIyESt4hashIyENS_18_Mod_range_hashingENS_20_Default_ranged_hashENS_17_Hashtable_traitsILb0ELb0ELb1EEEE5_M_eqEv, symObjAddr: 0x5F16, symBinAddr: 0x100009ACA, symSize: 0x1A }
  - { offsetInCU: 0x18F21, offset: 0x19FA5, size: 0x8, addend: 0x0, symName: __ZNKSt8__detail21_Hash_node_value_baseISt4pairIKyPhEE4_M_vEv, symObjAddr: 0x5F30, symBinAddr: 0x100009AE4, symSize: 0x1A }
  - { offsetInCU: 0x18FC6, offset: 0x1A04A, size: 0x8, addend: 0x0, symName: __ZNSt8__detail19_Node_iterator_baseISt4pairIKyPhELb0EEC2EPNS_10_Hash_nodeIS4_Lb0EEE, symObjAddr: 0x5EFC, symBinAddr: 0x100009AB0, symSize: 0x1A }
  - { offsetInCU: 0x18FCE, offset: 0x1A052, size: 0x8, addend: 0x0, symName: __ZNKSt8__detail15_Hashtable_baseIySt4pairIKyPhENS_10_Select1stESt8equal_toIyESt4hashIyENS_18_Mod_range_hashingENS_20_Default_ranged_hashENS_17_Hashtable_traitsILb0ELb0ELb1EEEE5_M_eqEv, symObjAddr: 0x5F16, symBinAddr: 0x100009ACA, symSize: 0x1A }
  - { offsetInCU: 0x18FAC, offset: 0x1A030, size: 0x8, addend: 0x0, symName: __ZNSt8__detail16_Hashtable_allocISaINS_10_Hash_nodeISt4pairIKyPhELb0EEEEE21_M_deallocate_bucketsEPPNS_15_Hash_node_baseEm, symObjAddr: 0x5E86, symBinAddr: 0x100009A3A, symSize: 0x76 }
  - { offsetInCU: 0x18FB4, offset: 0x1A038, size: 0x8, addend: 0x0, symName: __ZNSt8__detail19_Node_iterator_baseISt4pairIKyPhELb0EEC2EPNS_10_Hash_nodeIS4_Lb0EEE, symObjAddr: 0x5EFC, symBinAddr: 0x100009AB0, symSize: 0x1A }
  - { offsetInCU: 0x190E1, offset: 0x1A165, size: 0x8, addend: 0x0, symName: __ZNKSt10_HashtableIySt4pairIKyPhESaIS3_ENSt8__detail10_Select1stESt8equal_toIyESt4hashIyENS5_18_Mod_range_hashingENS5_20_Default_ranged_hashENS5_20_Prime_rehash_policyENS5_17_Hashtable_traitsILb0ELb0ELb1EEEE21_M_uses_single_bucketEPPNS5_15_Hash_node_baseE, symObjAddr: 0x5E60, symBinAddr: 0x100009A14, symSize: 0x26 }
  - { offsetInCU: 0x190E9, offset: 0x1A16D, size: 0x8, addend: 0x0, symName: __ZNSt8__detail16_Hashtable_allocISaINS_10_Hash_nodeISt4pairIKyPhELb0EEEEE21_M_deallocate_bucketsEPPNS_15_Hash_node_baseEm, symObjAddr: 0x5E86, symBinAddr: 0x100009A3A, symSize: 0x76 }
  - { offsetInCU: 0x19124, offset: 0x1A1A8, size: 0x8, addend: 0x0, symName: __ZNSt8__detail16_Hashtable_allocISaINS_10_Hash_nodeISt4pairIKyPhELb0EEEEE18_M_deallocate_nodeEPS6_, symObjAddr: 0x5DFC, symBinAddr: 0x1000099B0, symSize: 0x64 }
  - { offsetInCU: 0x1912C, offset: 0x1A1B0, size: 0x8, addend: 0x0, symName: __ZNKSt10_HashtableIySt4pairIKyPhESaIS3_ENSt8__detail10_Select1stESt8equal_toIyESt4hashIyENS5_18_Mod_range_hashingENS5_20_Default_ranged_hashENS5_20_Prime_rehash_policyENS5_17_Hashtable_traitsILb0ELb0ELb1EEEE21_M_uses_single_bucketEPPNS5_15_Hash_node_baseE, symObjAddr: 0x5E60, symBinAddr: 0x100009A14, symSize: 0x26 }
  - { offsetInCU: 0x191CD, offset: 0x1A251, size: 0x8, addend: 0x0, symName: __ZNSt10_HashtableIySt4pairIKyN6tinyrv10MemoryUnit8TLBEntryEESaIS5_ENSt8__detail10_Select1stESt8equal_toIyESt4hashIyENS7_18_Mod_range_hashingENS7_20_Default_ranged_hashENS7_20_Prime_rehash_policyENS7_17_Hashtable_traitsILb0ELb0ELb1EEEE8_M_eraseEmPNS7_15_Hash_node_baseEPNS7_10_Hash_nodeIS5_Lb0EEE, symObjAddr: 0x5CC0, symBinAddr: 0x100009874, symSize: 0x13C }
  - { offsetInCU: 0x191D5, offset: 0x1A259, size: 0x8, addend: 0x0, symName: __ZNSt8__detail16_Hashtable_allocISaINS_10_Hash_nodeISt4pairIKyPhELb0EEEEE18_M_deallocate_nodeEPS6_, symObjAddr: 0x5DFC, symBinAddr: 0x1000099B0, symSize: 0x64 }
  - { offsetInCU: 0x19274, offset: 0x1A2F8, size: 0x8, addend: 0x0, symName: __ZNSt10_HashtableIySt4pairIKyN6tinyrv10MemoryUnit8TLBEntryEESaIS5_ENSt8__detail10_Select1stESt8equal_toIyESt4hashIyENS7_18_Mod_range_hashingENS7_20_Default_ranged_hashENS7_20_Prime_rehash_policyENS7_17_Hashtable_traitsILb0ELb0ELb1EEEE20_M_get_previous_nodeEmPNS7_10_Hash_nodeIS5_Lb0EEE, symObjAddr: 0x5C76, symBinAddr: 0x10000982A, symSize: 0x4A }
  - { offsetInCU: 0x192DF, offset: 0x1A363, size: 0x8, addend: 0x0, symName: __ZNKSt10_HashtableIySt4pairIKyN6tinyrv10MemoryUnit8TLBEntryEESaIS5_ENSt8__detail10_Select1stESt8equal_toIyESt4hashIyENS7_18_Mod_range_hashingENS7_20_Default_ranged_hashENS7_20_Prime_rehash_policyENS7_17_Hashtable_traitsILb0ELb0ELb1EEEE15_M_bucket_indexERKNS7_16_Hash_node_valueIS5_Lb0EEE, symObjAddr: 0x5C48, symBinAddr: 0x1000097FC, symSize: 0x2E }
  - { offsetInCU: 0x19326, offset: 0x1A3AA, size: 0x8, addend: 0x0, symName: __ZN9__gnu_cxx16__aligned_bufferISt4pairIKyN6tinyrv10MemoryUnit8TLBEntryEEE7_M_addrEv, symObjAddr: 0x5C3A, symBinAddr: 0x1000097EE, symSize: 0xE }
  - { offsetInCU: 0x1932E, offset: 0x1A3B2, size: 0x8, addend: 0x0, symName: __ZNKSt10_HashtableIySt4pairIKyN6tinyrv10MemoryUnit8TLBEntryEESaIS5_ENSt8__detail10_Select1stESt8equal_toIyESt4hashIyENS7_18_Mod_range_hashingENS7_20_Default_ranged_hashENS7_20_Prime_rehash_policyENS7_17_Hashtable_traitsILb0ELb0ELb1EEEE15_M_bucket_indexERKNS7_16_Hash_node_valueIS5_Lb0EEE, symObjAddr: 0x5C48, symBinAddr: 0x1000097FC, symSize: 0x2E }
  - { offsetInCU: 0x193F3, offset: 0x1A477, size: 0x8, addend: 0x0, symName: __ZNSt8__detail19_Node_iterator_baseISt4pairIKyN6tinyrv10MemoryUnit8TLBEntryEELb0EEC2EPNS_10_Hash_nodeIS6_Lb0EEE, symObjAddr: 0x5C20, symBinAddr: 0x1000097D4, symSize: 0x1A }
  - { offsetInCU: 0x193FB, offset: 0x1A47F, size: 0x8, addend: 0x0, symName: __ZN9__gnu_cxx16__aligned_bufferISt4pairIKyN6tinyrv10MemoryUnit8TLBEntryEEE7_M_addrEv, symObjAddr: 0x5C3A, symBinAddr: 0x1000097EE, symSize: 0xE }
  - { offsetInCU: 0x193BD, offset: 0x1A441, size: 0x8, addend: 0x0, symName: __ZNKSt8equal_toIyEclERKyS2_, symObjAddr: 0x5BFA, symBinAddr: 0x1000097AE, symSize: 0x26 }
  - { offsetInCU: 0x193C5, offset: 0x1A449, size: 0x8, addend: 0x0, symName: __ZNSt8__detail19_Node_iterator_baseISt4pairIKyN6tinyrv10MemoryUnit8TLBEntryEELb0EEC2EPNS_10_Hash_nodeIS6_Lb0EEE, symObjAddr: 0x5C20, symBinAddr: 0x1000097D4, symSize: 0x1A }
  - { offsetInCU: 0x19414, offset: 0x1A498, size: 0x8, addend: 0x0, symName: __ZNKSt8__detail10_Select1stclIRKSt4pairIKyN6tinyrv10MemoryUnit8TLBEntryEEEEONS0_10__1st_typeIT_E4typeEOSB_, symObjAddr: 0x5BDC, symBinAddr: 0x100009790, symSize: 0x1E }
  - { offsetInCU: 0x1941C, offset: 0x1A4A0, size: 0x8, addend: 0x0, symName: __ZNKSt8equal_toIyEclERKyS2_, symObjAddr: 0x5BFA, symBinAddr: 0x1000097AE, symSize: 0x26 }
  - { offsetInCU: 0x19463, offset: 0x1A4E7, size: 0x8, addend: 0x0, symName: __ZNKSt8__detail21_Hash_node_value_baseISt4pairIKyN6tinyrv10MemoryUnit8TLBEntryEEE4_M_vEv, symObjAddr: 0x5BC2, symBinAddr: 0x100009776, symSize: 0x1A }
  - { offsetInCU: 0x1946B, offset: 0x1A4EF, size: 0x8, addend: 0x0, symName: __ZNKSt8__detail10_Select1stclIRKSt4pairIKyN6tinyrv10MemoryUnit8TLBEntryEEEEONS0_10__1st_typeIT_E4typeEOSB_, symObjAddr: 0x5BDC, symBinAddr: 0x100009790, symSize: 0x1E }
  - { offsetInCU: 0x19492, offset: 0x1A516, size: 0x8, addend: 0x0, symName: __ZNKSt8__detail15_Hashtable_baseIySt4pairIKyN6tinyrv10MemoryUnit8TLBEntryEENS_10_Select1stESt8equal_toIyESt4hashIyENS_18_Mod_range_hashingENS_20_Default_ranged_hashENS_17_Hashtable_traitsILb0ELb0ELb1EEEE5_M_eqEv, symObjAddr: 0x5BA8, symBinAddr: 0x10000975C, symSize: 0x1A }
  - { offsetInCU: 0x1949A, offset: 0x1A51E, size: 0x8, addend: 0x0, symName: __ZNKSt8__detail21_Hash_node_value_baseISt4pairIKyN6tinyrv10MemoryUnit8TLBEntryEEE4_M_vEv, symObjAddr: 0x5BC2, symBinAddr: 0x100009776, symSize: 0x1A }
  - { offsetInCU: 0x194C1, offset: 0x1A545, size: 0x8, addend: 0x0, symName: __ZNSt8__detail19_Node_iterator_baseISt4pairIKyN6tinyrv10MemoryUnit8TLBEntryEELb0EE7_M_incrEv, symObjAddr: 0x5B82, symBinAddr: 0x100009736, symSize: 0x26 }
  - { offsetInCU: 0x194F0, offset: 0x1A574, size: 0x8, addend: 0x0, symName: __ZNSt10_HashtableIySt4pairIKyN6tinyrv10MemoryUnit8TLBEntryEESaIS5_ENSt8__detail10_Select1stESt8equal_toIyESt4hashIyENS7_18_Mod_range_hashingENS7_20_Default_ranged_hashENS7_20_Prime_rehash_policyENS7_17_Hashtable_traitsILb0ELb0ELb1EEEE22_M_insert_bucket_beginEmPNS7_10_Hash_nodeIS5_Lb0EEE, symObjAddr: 0x5A8C, symBinAddr: 0x10000964A, symSize: 0xEB }
  - { offsetInCU: 0x19547, offset: 0x1A5CB, size: 0x8, addend: 0x0, symName: __ZNKSt8__detail15_Hash_code_baseIySt4pairIKyN6tinyrv10MemoryUnit8TLBEntryEENS_10_Select1stESt4hashIyENS_18_Mod_range_hashingENS_20_Default_ranged_hashELb0EE13_M_store_codeERNS_21_Hash_node_code_cacheILb0EEEm, symObjAddr: 0x5A78, symBinAddr: 0x100009636, symSize: 0x14 }
  - { offsetInCU: 0x1958E, offset: 0x1A612, size: 0x8, addend: 0x0, symName: __ZNSt10_HashtableIySt4pairIKyN6tinyrv10MemoryUnit8TLBEntryEESaIS5_ENSt8__detail10_Select1stESt8equal_toIyESt4hashIyENS7_18_Mod_range_hashingENS7_20_Default_ranged_hashENS7_20_Prime_rehash_policyENS7_17_Hashtable_traitsILb0ELb0ELb1EEEE9_M_rehashEmRKm, symObjAddr: 0x5A0E, symBinAddr: 0x1000095CC, symSize: 0x6A }
  - { offsetInCU: 0x19596, offset: 0x1A61A, size: 0x8, addend: 0x0, symName: __ZNKSt8__detail15_Hash_code_baseIySt4pairIKyN6tinyrv10MemoryUnit8TLBEntryEENS_10_Select1stESt4hashIyENS_18_Mod_range_hashingENS_20_Default_ranged_hashELb0EE13_M_store_codeERNS_21_Hash_node_code_cacheILb0EEEm, symObjAddr: 0x5A78, symBinAddr: 0x100009636, symSize: 0x14 }
  - { offsetInCU: 0x195E5, offset: 0x1A669, size: 0x8, addend: 0x0, symName: __ZNSt8__detail16_Hashtable_allocISaINS_10_Hash_nodeISt4pairIKyN6tinyrv10MemoryUnit8TLBEntryEELb0EEEEE16_M_allocate_nodeIJRKSt21piecewise_construct_tSt5tupleIJOyEESF_IJEEEEEPS8_DpOT_, symObjAddr: 0x57BC, symBinAddr: 0x10000937A, symSize: 0x252 }
  - { offsetInCU: 0x195ED, offset: 0x1A671, size: 0x8, addend: 0x0, symName: __ZNSt10_HashtableIySt4pairIKyN6tinyrv10MemoryUnit8TLBEntryEESaIS5_ENSt8__detail10_Select1stESt8equal_toIyESt4hashIyENS7_18_Mod_range_hashingENS7_20_Default_ranged_hashENS7_20_Prime_rehash_policyENS7_17_Hashtable_traitsILb0ELb0ELb1EEEE9_M_rehashEmRKm, symObjAddr: 0x5A0E, symBinAddr: 0x1000095CC, symSize: 0x6A }
  - { offsetInCU: 0x19821, offset: 0x1A8A5, size: 0x8, addend: 0x0, symName: __ZNSt8__detail10_Hash_nodeISt4pairIKyN6tinyrv10MemoryUnit8TLBEntryEELb0EEC1Ev, symObjAddr: 0x57A0, symBinAddr: 0x10000935E, symSize: 0x1C }
  - { offsetInCU: 0x19875, offset: 0x1A8F9, size: 0x8, addend: 0x0, symName: __ZSt7forwardISt5tupleIJOyEEEOT_RNSt16remove_referenceIS3_E4typeE, symObjAddr: 0x5783, symBinAddr: 0x10000934F, symSize: 0xE }
  - { offsetInCU: 0x198A3, offset: 0x1A927, size: 0x8, addend: 0x0, symName: __ZNSt11_Tuple_implILm0EJOyEEC2EOS1_, symObjAddr: 0x5758, symBinAddr: 0x100009332, symSize: 0x1D }
  - { offsetInCU: 0x19926, offset: 0x1A9AA, size: 0x8, addend: 0x0, symName: __ZNSt5tupleIJOyEEC1IJyELb1ELb1EEEDpOT_, symObjAddr: 0x5724, symBinAddr: 0x1000092FE, symSize: 0x34 }
  - { offsetInCU: 0x199B5, offset: 0x1AA39, size: 0x8, addend: 0x0, symName: __ZSt7forwardIyEOT_RNSt16remove_referenceIS0_E4typeE, symObjAddr: 0x5715, symBinAddr: 0x1000092EF, symSize: 0xF }
  - { offsetInCU: 0x199B1, offset: 0x1AA35, size: 0x8, addend: 0x0, symName: __ZNKSt10_HashtableIySt4pairIKyN6tinyrv10MemoryUnit8TLBEntryEESaIS5_ENSt8__detail10_Select1stESt8equal_toIyESt4hashIyENS7_18_Mod_range_hashingENS7_20_Default_ranged_hashENS7_20_Prime_rehash_policyENS7_17_Hashtable_traitsILb0ELb0ELb1EEEE19_M_find_before_nodeEmRS1_m, symObjAddr: 0x563C, symBinAddr: 0x100009216, symSize: 0xD9 }
  - { offsetInCU: 0x199B9, offset: 0x1AA3D, size: 0x8, addend: 0x0, symName: __ZSt7forwardIyEOT_RNSt16remove_referenceIS0_E4typeE, symObjAddr: 0x5715, symBinAddr: 0x1000092EF, symSize: 0xF }
  - { offsetInCU: 0x19A56, offset: 0x1AADA, size: 0x8, addend: 0x0, symName: __ZNKSt8__detail15_Hash_code_baseIySt4pairIKyN6tinyrv10MemoryUnit8TLBEntryEENS_10_Select1stESt4hashIyENS_18_Mod_range_hashingENS_20_Default_ranged_hashELb0EE15_M_bucket_indexEmm, symObjAddr: 0x560E, symBinAddr: 0x1000091E8, symSize: 0x2E }
  - { offsetInCU: 0x19AAD, offset: 0x1AB31, size: 0x8, addend: 0x0, symName: __ZNKSt8__detail15_Hash_code_baseIySt4pairIKyN6tinyrv10MemoryUnit8TLBEntryEENS_10_Select1stESt4hashIyENS_18_Mod_range_hashingENS_20_Default_ranged_hashELb0EE7_M_hashEv, symObjAddr: 0x55F4, symBinAddr: 0x1000091CE, symSize: 0x1A }
  - { offsetInCU: 0x19AB5, offset: 0x1AB39, size: 0x8, addend: 0x0, symName: __ZNKSt8__detail15_Hash_code_baseIySt4pairIKyN6tinyrv10MemoryUnit8TLBEntryEENS_10_Select1stESt4hashIyENS_18_Mod_range_hashingENS_20_Default_ranged_hashELb0EE15_M_bucket_indexEmm, symObjAddr: 0x560E, symBinAddr: 0x1000091E8, symSize: 0x2E }
  - { offsetInCU: 0x19ADC, offset: 0x1AB60, size: 0x8, addend: 0x0, symName: __ZNSt8__detail16_Hashtable_allocISaINS_10_Hash_nodeISt4pairIKyN6tinyrv10MemoryUnit8TLBEntryEELb0EEEEE21_M_deallocate_bucketsEPPNS_15_Hash_node_baseEm, symObjAddr: 0x557E, symBinAddr: 0x100009158, symSize: 0x76 }
  - { offsetInCU: 0x19AE4, offset: 0x1AB68, size: 0x8, addend: 0x0, symName: __ZNKSt8__detail15_Hash_code_baseIySt4pairIKyN6tinyrv10MemoryUnit8TLBEntryEENS_10_Select1stESt4hashIyENS_18_Mod_range_hashingENS_20_Default_ranged_hashELb0EE7_M_hashEv, symObjAddr: 0x55F4, symBinAddr: 0x1000091CE, symSize: 0x1A }
  - { offsetInCU: 0x19C11, offset: 0x1AC95, size: 0x8, addend: 0x0, symName: __ZNKSt10_HashtableIySt4pairIKyN6tinyrv10MemoryUnit8TLBEntryEESaIS5_ENSt8__detail10_Select1stESt8equal_toIyESt4hashIyENS7_18_Mod_range_hashingENS7_20_Default_ranged_hashENS7_20_Prime_rehash_policyENS7_17_Hashtable_traitsILb0ELb0ELb1EEEE21_M_uses_single_bucketEPPNS7_15_Hash_node_baseE, symObjAddr: 0x5558, symBinAddr: 0x100009132, symSize: 0x26 }
  - { offsetInCU: 0x19C19, offset: 0x1AC9D, size: 0x8, addend: 0x0, symName: __ZNSt8__detail16_Hashtable_allocISaINS_10_Hash_nodeISt4pairIKyN6tinyrv10MemoryUnit8TLBEntryEELb0EEEEE21_M_deallocate_bucketsEPPNS_15_Hash_node_baseEm, symObjAddr: 0x557E, symBinAddr: 0x100009158, symSize: 0x76 }
  - { offsetInCU: 0x19DA3, offset: 0x1AE27, size: 0x8, addend: 0x0, symName: __ZSt22__uninitialized_copy_aISt13move_iteratorIPN6tinyrv10MemoryUnit8ADecoder7entry_tEES5_S4_ET0_T_S8_S7_RSaIT1_E, symObjAddr: 0x5527, symBinAddr: 0x100009101, symSize: 0x31 }
  - { offsetInCU: 0x19DAB, offset: 0x1AE2F, size: 0x8, addend: 0x0, symName: __ZNKSt10_HashtableIySt4pairIKyN6tinyrv10MemoryUnit8TLBEntryEESaIS5_ENSt8__detail10_Select1stESt8equal_toIyESt4hashIyENS7_18_Mod_range_hashingENS7_20_Default_ranged_hashENS7_20_Prime_rehash_policyENS7_17_Hashtable_traitsILb0ELb0ELb1EEEE21_M_uses_single_bucketEPPNS7_15_Hash_node_baseE, symObjAddr: 0x5558, symBinAddr: 0x100009132, symSize: 0x26 }
  - { offsetInCU: 0x19DDD, offset: 0x1AE61, size: 0x8, addend: 0x0, symName: __ZSt32__make_move_if_noexcept_iteratorIN6tinyrv10MemoryUnit8ADecoder7entry_tESt13move_iteratorIPS3_EET0_PT_, symObjAddr: 0x5502, symBinAddr: 0x1000090DC, symSize: 0x25 }
  - { offsetInCU: 0x19DE5, offset: 0x1AE69, size: 0x8, addend: 0x0, symName: __ZSt22__uninitialized_copy_aISt13move_iteratorIPN6tinyrv10MemoryUnit8ADecoder7entry_tEES5_S4_ET0_T_S8_S7_RSaIT1_E, symObjAddr: 0x5527, symBinAddr: 0x100009101, symSize: 0x31 }
  - { offsetInCU: 0x19D7E, offset: 0x1AE02, size: 0x8, addend: 0x0, symName: __ZNSt6vectorIN6tinyrv10MemoryUnit8ADecoder7entry_tESaIS3_EE14_S_do_relocateEPS3_S6_S6_RS4_St17integral_constantIbLb1EE, symObjAddr: 0x54D0, symBinAddr: 0x1000090AA, symSize: 0x32 }
  - { offsetInCU: 0x19D86, offset: 0x1AE0A, size: 0x8, addend: 0x0, symName: __ZSt32__make_move_if_noexcept_iteratorIN6tinyrv10MemoryUnit8ADecoder7entry_tESt13move_iteratorIPS3_EET0_PT_, symObjAddr: 0x5502, symBinAddr: 0x1000090DC, symSize: 0x25 }
  - { offsetInCU: 0x19E25, offset: 0x1AEA9, size: 0x8, addend: 0x0, symName: __ZNKSt6vectorIN6tinyrv10MemoryUnit8ADecoder7entry_tESaIS3_EE4sizeEv, symObjAddr: 0x54A2, symBinAddr: 0x10000907C, symSize: 0x2E }
  - { offsetInCU: 0x19E2D, offset: 0x1AEB1, size: 0x8, addend: 0x0, symName: __ZNSt6vectorIN6tinyrv10MemoryUnit8ADecoder7entry_tESaIS3_EE14_S_do_relocateEPS3_S6_S6_RS4_St17integral_constantIbLb1EE, symObjAddr: 0x54D0, symBinAddr: 0x1000090AA, symSize: 0x32 }
  - { offsetInCU: 0x19E54, offset: 0x1AED8, size: 0x8, addend: 0x0, symName: __ZNKSt6vectorIN6tinyrv10MemoryUnit8ADecoder7entry_tESaIS3_EE8max_sizeEv, symObjAddr: 0x5480, symBinAddr: 0x10000905A, symSize: 0x22 }
  - { offsetInCU: 0x19E5C, offset: 0x1AEE0, size: 0x8, addend: 0x0, symName: __ZNKSt6vectorIN6tinyrv10MemoryUnit8ADecoder7entry_tESaIS3_EE4sizeEv, symObjAddr: 0x54A2, symBinAddr: 0x10000907C, symSize: 0x2E }
  - { offsetInCU: 0x19EF2, offset: 0x1AF76, size: 0x8, addend: 0x0, symName: __ZSt25__uninitialized_default_nIPhmET_S1_T0_, symObjAddr: 0x5457, symBinAddr: 0x100009031, symSize: 0x29 }
  - { offsetInCU: 0x19EFA, offset: 0x1AF7E, size: 0x8, addend: 0x0, symName: __ZNKSt6vectorIN6tinyrv10MemoryUnit8ADecoder7entry_tESaIS3_EE8max_sizeEv, symObjAddr: 0x5480, symBinAddr: 0x10000905A, symSize: 0x22 }
  - { offsetInCU: 0x1A028, offset: 0x1B0AC, size: 0x8, addend: 0x0, symName: __ZSt34__uninitialized_move_if_noexcept_aIPhS0_SaIhEET0_T_S3_S2_RT1_, symObjAddr: 0x5404, symBinAddr: 0x100008FDE, symSize: 0x53 }
  - { offsetInCU: 0x1A030, offset: 0x1B0B4, size: 0x8, addend: 0x0, symName: __ZSt25__uninitialized_default_nIPhmET_S1_T0_, symObjAddr: 0x5457, symBinAddr: 0x100009031, symSize: 0x29 }
  - { offsetInCU: 0x1A01E, offset: 0x1B0A2, size: 0x8, addend: 0x0, symName: __ZNK9__gnu_cxx17__normal_iteratorIPhSt6vectorIhSaIhEEE4baseEv, symObjAddr: 0x53F6, symBinAddr: 0x100008FD0, symSize: 0xE }
  - { offsetInCU: 0x1A026, offset: 0x1B0AA, size: 0x8, addend: 0x0, symName: __ZSt34__uninitialized_move_if_noexcept_aIPhS0_SaIhEET0_T_S3_S2_RT1_, symObjAddr: 0x5404, symBinAddr: 0x100008FDE, symSize: 0x53 }
  - { offsetInCU: 0x1A04D, offset: 0x1B0D1, size: 0x8, addend: 0x0, symName: __ZNSt6vectorIhSaIhEE11_S_relocateEPhS2_S2_RS0_, symObjAddr: 0x53C3, symBinAddr: 0x100008F9D, symSize: 0x33 }
  - { offsetInCU: 0x1A0BB, offset: 0x1B13F, size: 0x8, addend: 0x0, symName: __ZNSt12_Vector_baseIhSaIhEE11_M_allocateEm, symObjAddr: 0x537A, symBinAddr: 0x100008F54, symSize: 0x49 }
  - { offsetInCU: 0x1A0C3, offset: 0x1B147, size: 0x8, addend: 0x0, symName: __ZNSt6vectorIhSaIhEE11_S_relocateEPhS2_S2_RS0_, symObjAddr: 0x53C3, symBinAddr: 0x100008F9D, symSize: 0x33 }
  - { offsetInCU: 0x1A1C9, offset: 0x1B24D, size: 0x8, addend: 0x0, symName: __ZN9__gnu_cxxmiIPhSt6vectorIhSaIhEEEENS_17__normal_iteratorIT_T0_E15difference_typeERKS8_SB_, symObjAddr: 0x533B, symBinAddr: 0x100008F15, symSize: 0x3F }
  - { offsetInCU: 0x1A1A7, offset: 0x1B22B, size: 0x8, addend: 0x0, symName: __ZNSt6vectorIhSaIhEE5beginEv, symObjAddr: 0x5316, symBinAddr: 0x100008EF0, symSize: 0x25 }
  - { offsetInCU: 0x1A1AF, offset: 0x1B233, size: 0x8, addend: 0x0, symName: __ZN9__gnu_cxxmiIPhSt6vectorIhSaIhEEEENS_17__normal_iteratorIT_T0_E15difference_typeERKS8_SB_, symObjAddr: 0x533B, symBinAddr: 0x100008F15, symSize: 0x3F }
  - { offsetInCU: 0x1A1D6, offset: 0x1B25A, size: 0x8, addend: 0x0, symName: __ZNKSt6vectorIhSaIhEE12_M_check_lenEmPKc, symObjAddr: 0x524E, symBinAddr: 0x100008E28, symSize: 0xC8 }
  - { offsetInCU: 0x1A1DE, offset: 0x1B262, size: 0x8, addend: 0x0, symName: __ZNSt6vectorIhSaIhEE5beginEv, symObjAddr: 0x5316, symBinAddr: 0x100008EF0, symSize: 0x25 }
  - { offsetInCU: 0x1A2AA, offset: 0x1B32E, size: 0x8, addend: 0x0, symName: __ZN9__gnu_cxx17__normal_iteratorIPhSt6vectorIhSaIhEEEC1ERKS1_, symObjAddr: 0x5230, symBinAddr: 0x100008E0A, symSize: 0x1E }
  - { offsetInCU: 0x1A2F9, offset: 0x1B37D, size: 0x8, addend: 0x0, symName: __ZNSt15__new_allocatorIhE10deallocateEPhm, symObjAddr: 0x520C, symBinAddr: 0x100008DE6, symSize: 0x24 }
  - { offsetInCU: 0x1A3AE, offset: 0x1B432, size: 0x8, addend: 0x0, symName: __ZNSt12_Destroy_auxILb1EE9__destroyIPN6tinyrv10MemoryUnit8ADecoder7entry_tEEEvT_S7_, symObjAddr: 0x51FD, symBinAddr: 0x100008DD7, symSize: 0xF }
  - { offsetInCU: 0x1A3B6, offset: 0x1B43A, size: 0x8, addend: 0x0, symName: __ZNSt15__new_allocatorIhE10deallocateEPhm, symObjAddr: 0x520C, symBinAddr: 0x100008DE6, symSize: 0x24 }
  - { offsetInCU: 0x1A3F1, offset: 0x1B475, size: 0x8, addend: 0x0, symName: __ZNSt15__new_allocatorIN6tinyrv10MemoryUnit8ADecoder7entry_tEE10deallocateEPS3_m, symObjAddr: 0x51DA, symBinAddr: 0x100008DB4, symSize: 0x23 }
  - { offsetInCU: 0x1A3F9, offset: 0x1B47D, size: 0x8, addend: 0x0, symName: __ZNSt12_Destroy_auxILb1EE9__destroyIPN6tinyrv10MemoryUnit8ADecoder7entry_tEEEvT_S7_, symObjAddr: 0x51FD, symBinAddr: 0x100008DD7, symSize: 0xF }
  - { offsetInCU: 0x1A446, offset: 0x1B4CA, size: 0x8, addend: 0x0, symName: __ZNSt8__detail16_Hashtable_allocISaINS_10_Hash_nodeISt4pairIKyN6tinyrv10MemoryUnit8TLBEntryEELb0EEEEE18_M_deallocate_nodeEPS8_, symObjAddr: 0x5176, symBinAddr: 0x100008D50, symSize: 0x64 }
  - { offsetInCU: 0x1A44E, offset: 0x1B4D2, size: 0x8, addend: 0x0, symName: __ZNSt15__new_allocatorIN6tinyrv10MemoryUnit8ADecoder7entry_tEE10deallocateEPS3_m, symObjAddr: 0x51DA, symBinAddr: 0x100008DB4, symSize: 0x23 }
  - { offsetInCU: 0x1A4EF, offset: 0x1B573, size: 0x8, addend: 0x0, symName: __ZNKSt8__detail10_Hash_nodeISt4pairIKyN6tinyrv10MemoryUnit8TLBEntryEELb0EE7_M_nextEv, symObjAddr: 0x5164, symBinAddr: 0x100008D3E, symSize: 0x12 }
  - { offsetInCU: 0x1A51E, offset: 0x1B5A2, size: 0x8, addend: 0x0, symName: __ZNSt12_Destroy_auxILb1EE9__destroyIPhEEvT_S3_, symObjAddr: 0x5155, symBinAddr: 0x100008D2F, symSize: 0xF }
  - { offsetInCU: 0x1A526, offset: 0x1B5AA, size: 0x8, addend: 0x0, symName: __ZNKSt8__detail10_Hash_nodeISt4pairIKyN6tinyrv10MemoryUnit8TLBEntryEELb0EE7_M_nextEv, symObjAddr: 0x5164, symBinAddr: 0x100008D3E, symSize: 0x12 }
  - { offsetInCU: 0x1A589, offset: 0x1B60D, size: 0x8, addend: 0x0, symName: __ZSt8_DestroyIPcEvT_S1_, symObjAddr: 0x512F, symBinAddr: 0x100008D09, symSize: 0x26 }
  - { offsetInCU: 0x1A591, offset: 0x1B615, size: 0x8, addend: 0x0, symName: __ZNSt12_Destroy_auxILb1EE9__destroyIPhEEvT_S3_, symObjAddr: 0x5155, symBinAddr: 0x100008D2F, symSize: 0xF }
  - { offsetInCU: 0x1A62F, offset: 0x1B6B3, size: 0x8, addend: 0x0, symName: __ZSt27__uninitialized_default_n_aIPcmcET_S1_T0_RSaIT1_E, symObjAddr: 0x5106, symBinAddr: 0x100008CE0, symSize: 0x29 }
  - { offsetInCU: 0x1A637, offset: 0x1B6BB, size: 0x8, addend: 0x0, symName: __ZSt8_DestroyIPcEvT_S1_, symObjAddr: 0x512F, symBinAddr: 0x100008D09, symSize: 0x26 }
  - { offsetInCU: 0x1A63C, offset: 0x1B6C0, size: 0x8, addend: 0x0, symName: __ZNSt12_Vector_baseIcSaIcEE13_M_deallocateEPcm, symObjAddr: 0x50B8, symBinAddr: 0x100008C92, symSize: 0x4E }
  - { offsetInCU: 0x1A644, offset: 0x1B6C8, size: 0x8, addend: 0x0, symName: __ZSt27__uninitialized_default_n_aIPcmcET_S1_T0_RSaIT1_E, symObjAddr: 0x5106, symBinAddr: 0x100008CE0, symSize: 0x29 }
  - { offsetInCU: 0x1A6D2, offset: 0x1B756, size: 0x8, addend: 0x0, symName: __ZNSt12_Vector_baseIcSaIcEE17_M_create_storageEm, symObjAddr: 0x5066, symBinAddr: 0x100008C40, symSize: 0x52 }
  - { offsetInCU: 0x1A6DA, offset: 0x1B75E, size: 0x8, addend: 0x0, symName: __ZNSt12_Vector_baseIcSaIcEE13_M_deallocateEPcm, symObjAddr: 0x50B8, symBinAddr: 0x100008C92, symSize: 0x4E }
  - { offsetInCU: 0x1A770, offset: 0x1B7F4, size: 0x8, addend: 0x0, symName: __ZNSt12_Vector_baseIcSaIcEE12_Vector_implC1ERKS0_, symObjAddr: 0x5024, symBinAddr: 0x100008BFE, symSize: 0x42 }
  - { offsetInCU: 0x1A7DC, offset: 0x1B860, size: 0x8, addend: 0x0, symName: __ZNSt6vectorIcSaIcEE11_S_max_sizeERKS0_, symObjAddr: 0x4FCA, symBinAddr: 0x100008BA4, symSize: 0x5A }
  - { offsetInCU: 0x1A7E4, offset: 0x1B868, size: 0x8, addend: 0x0, symName: __ZNSt12_Vector_baseIcSaIcEE12_Vector_implC1ERKS0_, symObjAddr: 0x5024, symBinAddr: 0x100008BFE, symSize: 0x42 }
  - { offsetInCU: 0x1A8A9, offset: 0x1B92D, size: 0x8, addend: 0x0, symName: __ZNSt10_HashtableIySt4pairIKyPhESaIS3_ENSt8__detail10_Select1stESt8equal_toIyESt4hashIyENS5_18_Mod_range_hashingENS5_20_Default_ranged_hashENS5_20_Prime_rehash_policyENS5_17_Hashtable_traitsILb0ELb0ELb1EEEE10_M_emplaceIJRyRS2_EEES0_INS5_14_Node_iteratorIS3_Lb0ELb0EEEbESt17integral_constantIbLb1EEDpOT_, symObjAddr: 0x4D06, symBinAddr: 0x1000088E0, symSize: 0x2C4 }
  - { offsetInCU: 0x1A8B1, offset: 0x1B935, size: 0x8, addend: 0x0, symName: __ZNSt6vectorIcSaIcEE11_S_max_sizeERKS0_, symObjAddr: 0x4FCA, symBinAddr: 0x100008BA4, symSize: 0x5A }
  - { offsetInCU: 0x1A9D2, offset: 0x1BA56, size: 0x8, addend: 0x0, symName: __ZN9__gnu_cxx16__aligned_bufferISt4pairIKyPhEE6_M_ptrEv, symObjAddr: 0x4CEC, symBinAddr: 0x1000088C6, symSize: 0x1A }
  - { offsetInCU: 0x1A9DA, offset: 0x1BA5E, size: 0x8, addend: 0x0, symName: __ZNSt10_HashtableIySt4pairIKyPhESaIS3_ENSt8__detail10_Select1stESt8equal_toIyESt4hashIyENS5_18_Mod_range_hashingENS5_20_Default_ranged_hashENS5_20_Prime_rehash_policyENS5_17_Hashtable_traitsILb0ELb0ELb1EEEE10_M_emplaceIJRyRS2_EEES0_INS5_14_Node_iteratorIS3_Lb0ELb0EEEbESt17integral_constantIbLb1EEDpOT_, symObjAddr: 0x4D06, symBinAddr: 0x1000088E0, symSize: 0x2C4 }
  - { offsetInCU: 0x1AA01, offset: 0x1BA85, size: 0x8, addend: 0x0, symName: __ZNKSt10_HashtableIySt4pairIKyPhESaIS3_ENSt8__detail10_Select1stESt8equal_toIyESt4hashIyENS5_18_Mod_range_hashingENS5_20_Default_ranged_hashENS5_20_Prime_rehash_policyENS5_17_Hashtable_traitsILb0ELb0ELb1EEEE12_M_find_nodeEmRS1_m, symObjAddr: 0x4CA0, symBinAddr: 0x10000887A, symSize: 0x4C }
  - { offsetInCU: 0x1AA80, offset: 0x1BB04, size: 0x8, addend: 0x0, symName: __ZNKSt10_HashtableIySt4pairIKyPhESaIS3_ENSt8__detail10_Select1stESt8equal_toIyESt4hashIyENS5_18_Mod_range_hashingENS5_20_Default_ranged_hashENS5_20_Prime_rehash_policyENS5_17_Hashtable_traitsILb0ELb0ELb1EEEE15_M_bucket_indexEm, symObjAddr: 0x4C72, symBinAddr: 0x10000884C, symSize: 0x2E }
  - { offsetInCU: 0x1AAC3, offset: 0x1BB47, size: 0x8, addend: 0x0, symName: __ZNKSt8__detail15_Hash_code_baseIySt4pairIKyPhENS_10_Select1stESt4hashIyENS_18_Mod_range_hashingENS_20_Default_ranged_hashELb0EE12_M_hash_codeERS2_, symObjAddr: 0x4C3E, symBinAddr: 0x100008818, symSize: 0x34 }
  - { offsetInCU: 0x1AB06, offset: 0x1BB8A, size: 0x8, addend: 0x0, symName: __ZNKSt8__detail15_Hashtable_baseIySt4pairIKyPhENS_10_Select1stESt8equal_toIyESt4hashIyENS_18_Mod_range_hashingENS_20_Default_ranged_hashENS_17_Hashtable_traitsILb0ELb0ELb1EEEE13_M_key_equalsERS2_RKNS_16_Hash_node_valueIS4_Lb0EEE, symObjAddr: 0x4BE4, symBinAddr: 0x1000087BE, symSize: 0x5A }
  - { offsetInCU: 0x1AB0E, offset: 0x1BB92, size: 0x8, addend: 0x0, symName: __ZNKSt8__detail15_Hash_code_baseIySt4pairIKyPhENS_10_Select1stESt4hashIyENS_18_Mod_range_hashingENS_20_Default_ranged_hashELb0EE12_M_hash_codeERS2_, symObjAddr: 0x4C3E, symBinAddr: 0x100008818, symSize: 0x34 }
  - { offsetInCU: 0x1AB5E, offset: 0x1BBE2, size: 0x8, addend: 0x0, symName: __ZNSt10_HashtableIySt4pairIKyPhESaIS3_ENSt8__detail10_Select1stESt8equal_toIyESt4hashIyENS5_18_Mod_range_hashingENS5_20_Default_ranged_hashENS5_20_Prime_rehash_policyENS5_17_Hashtable_traitsILb0ELb0ELb1EEEE22__small_size_thresholdEv, symObjAddr: 0x4BD9, symBinAddr: 0x1000087B3, symSize: 0xB }
  - { offsetInCU: 0x1AB66, offset: 0x1BBEA, size: 0x8, addend: 0x0, symName: __ZNKSt8__detail15_Hashtable_baseIySt4pairIKyPhENS_10_Select1stESt8equal_toIyESt4hashIyENS_18_Mod_range_hashingENS_20_Default_ranged_hashENS_17_Hashtable_traitsILb0ELb0ELb1EEEE13_M_key_equalsERS2_RKNS_16_Hash_node_valueIS4_Lb0EEE, symObjAddr: 0x4BE4, symBinAddr: 0x1000087BE, symSize: 0x5A }
  - { offsetInCU: 0x1AB7C, offset: 0x1BC00, size: 0x8, addend: 0x0, symName: __ZNKSt8__detail10_Hash_nodeISt4pairIKyPhELb0EE7_M_nextEv, symObjAddr: 0x4BC8, symBinAddr: 0x1000087A2, symSize: 0x11 }
  - { offsetInCU: 0x1AB84, offset: 0x1BC08, size: 0x8, addend: 0x0, symName: __ZNSt10_HashtableIySt4pairIKyPhESaIS3_ENSt8__detail10_Select1stESt8equal_toIyESt4hashIyENS5_18_Mod_range_hashingENS5_20_Default_ranged_hashENS5_20_Prime_rehash_policyENS5_17_Hashtable_traitsILb0ELb0ELb1EEEE22__small_size_thresholdEv, symObjAddr: 0x4BD9, symBinAddr: 0x1000087B3, symSize: 0xB }
  - { offsetInCU: 0x1AC28, offset: 0x1BCAC, size: 0x8, addend: 0x0, symName: __ZNSt8__detail14_Node_iteratorISt4pairIKyPhELb0ELb0EEC1EPNS_10_Hash_nodeIS4_Lb0EEE, symObjAddr: 0x4BA2, symBinAddr: 0x10000877C, symSize: 0x26 }
  - { offsetInCU: 0x1AC30, offset: 0x1BCB4, size: 0x8, addend: 0x0, symName: __ZNKSt8__detail10_Hash_nodeISt4pairIKyPhELb0EE7_M_nextEv, symObjAddr: 0x4BC8, symBinAddr: 0x1000087A2, symSize: 0x11 }
  - { offsetInCU: 0x1AC0F, offset: 0x1BC93, size: 0x8, addend: 0x0, symName: __ZNSt10_HashtableIySt4pairIKyPhESaIS3_ENSt8__detail10_Select1stESt8equal_toIyESt4hashIyENS5_18_Mod_range_hashingENS5_20_Default_ranged_hashENS5_20_Prime_rehash_policyENS5_17_Hashtable_traitsILb0ELb0ELb1EEEE21_M_deallocate_bucketsEPPNS5_15_Hash_node_baseEm, symObjAddr: 0x4B5A, symBinAddr: 0x100008734, symSize: 0x48 }
  - { offsetInCU: 0x1AC66, offset: 0x1BCEA, size: 0x8, addend: 0x0, symName: __ZNSt8__detail16_Hashtable_allocISaINS_10_Hash_nodeISt4pairIKyPhELb0EEEEE19_M_deallocate_nodesEPS6_, symObjAddr: 0x4B12, symBinAddr: 0x1000086EC, symSize: 0x48 }
  - { offsetInCU: 0x1AC6E, offset: 0x1BCF2, size: 0x8, addend: 0x0, symName: __ZNSt10_HashtableIySt4pairIKyPhESaIS3_ENSt8__detail10_Select1stESt8equal_toIyESt4hashIyENS5_18_Mod_range_hashingENS5_20_Default_ranged_hashENS5_20_Prime_rehash_policyENS5_17_Hashtable_traitsILb0ELb0ELb1EEEE21_M_deallocate_bucketsEPPNS5_15_Hash_node_baseEm, symObjAddr: 0x4B5A, symBinAddr: 0x100008734, symSize: 0x48 }
  - { offsetInCU: 0x1ACCF, offset: 0x1BD53, size: 0x8, addend: 0x0, symName: __ZNKSt10_HashtableIySt4pairIKyPhESaIS3_ENSt8__detail10_Select1stESt8equal_toIyESt4hashIyENS5_18_Mod_range_hashingENS5_20_Default_ranged_hashENS5_20_Prime_rehash_policyENS5_17_Hashtable_traitsILb0ELb0ELb1EEEE8_M_beginEv, symObjAddr: 0x4B00, symBinAddr: 0x1000086DA, symSize: 0x12 }
  - { offsetInCU: 0x1ACD7, offset: 0x1BD5B, size: 0x8, addend: 0x0, symName: __ZNSt8__detail16_Hashtable_allocISaINS_10_Hash_nodeISt4pairIKyPhELb0EEEEE19_M_deallocate_nodesEPS6_, symObjAddr: 0x4B12, symBinAddr: 0x1000086EC, symSize: 0x48 }
  - { offsetInCU: 0x1AD17, offset: 0x1BD9B, size: 0x8, addend: 0x0, symName: __ZNSt10_HashtableIySt4pairIKyN6tinyrv10MemoryUnit8TLBEntryEESaIS5_ENSt8__detail10_Select1stESt8equal_toIyESt4hashIyENS7_18_Mod_range_hashingENS7_20_Default_ranged_hashENS7_20_Prime_rehash_policyENS7_17_Hashtable_traitsILb0ELb0ELb1EEEE5eraseENS7_20_Node_const_iteratorIS5_Lb0ELb0EEE, symObjAddr: 0x4A98, symBinAddr: 0x100008672, symSize: 0x68 }
  - { offsetInCU: 0x1AD1F, offset: 0x1BDA3, size: 0x8, addend: 0x0, symName: __ZNKSt10_HashtableIySt4pairIKyPhESaIS3_ENSt8__detail10_Select1stESt8equal_toIyESt4hashIyENS5_18_Mod_range_hashingENS5_20_Default_ranged_hashENS5_20_Prime_rehash_policyENS5_17_Hashtable_traitsILb0ELb0ELb1EEEE8_M_beginEv, symObjAddr: 0x4B00, symBinAddr: 0x1000086DA, symSize: 0x12 }
  - { offsetInCU: 0x1AE3E, offset: 0x1BEC2, size: 0x8, addend: 0x0, symName: __ZNSt8__detail20_Node_const_iteratorISt4pairIKyN6tinyrv10MemoryUnit8TLBEntryEELb0ELb0EEC1ERKNS_14_Node_iteratorIS6_Lb0ELb0EEE, symObjAddr: 0x4A6E, symBinAddr: 0x100008648, symSize: 0x2A }
  - { offsetInCU: 0x1ADFA, offset: 0x1BE7E, size: 0x8, addend: 0x0, symName: __ZN9__gnu_cxx16__aligned_bufferISt4pairIKyN6tinyrv10MemoryUnit8TLBEntryEEE6_M_ptrEv, symObjAddr: 0x4A54, symBinAddr: 0x10000862E, symSize: 0x1A }
  - { offsetInCU: 0x1AE02, offset: 0x1BE86, size: 0x8, addend: 0x0, symName: __ZNSt8__detail20_Node_const_iteratorISt4pairIKyN6tinyrv10MemoryUnit8TLBEntryEELb0ELb0EEC1ERKNS_14_Node_iteratorIS6_Lb0ELb0EEE, symObjAddr: 0x4A6E, symBinAddr: 0x100008648, symSize: 0x2A }
  - { offsetInCU: 0x1AEC2, offset: 0x1BF46, size: 0x8, addend: 0x0, symName: __ZNSt8__detail14_Node_iteratorISt4pairIKyN6tinyrv10MemoryUnit8TLBEntryEELb0ELb0EEC1EPNS_10_Hash_nodeIS6_Lb0EEE, symObjAddr: 0x4A2E, symBinAddr: 0x100008608, symSize: 0x26 }
  - { offsetInCU: 0x1AECA, offset: 0x1BF4E, size: 0x8, addend: 0x0, symName: __ZN9__gnu_cxx16__aligned_bufferISt4pairIKyN6tinyrv10MemoryUnit8TLBEntryEEE6_M_ptrEv, symObjAddr: 0x4A54, symBinAddr: 0x10000862E, symSize: 0x1A }
  - { offsetInCU: 0x1AE8D, offset: 0x1BF11, size: 0x8, addend: 0x0, symName: __ZNKSt8__detail15_Hashtable_baseIySt4pairIKyN6tinyrv10MemoryUnit8TLBEntryEENS_10_Select1stESt8equal_toIyESt4hashIyENS_18_Mod_range_hashingENS_20_Default_ranged_hashENS_17_Hashtable_traitsILb0ELb0ELb1EEEE13_M_key_equalsERS2_RKNS_16_Hash_node_valueIS6_Lb0EEE, symObjAddr: 0x49D4, symBinAddr: 0x1000085AE, symSize: 0x5A }
  - { offsetInCU: 0x1AE95, offset: 0x1BF19, size: 0x8, addend: 0x0, symName: __ZNSt8__detail14_Node_iteratorISt4pairIKyN6tinyrv10MemoryUnit8TLBEntryEELb0ELb0EEC1EPNS_10_Hash_nodeIS6_Lb0EEE, symObjAddr: 0x4A2E, symBinAddr: 0x100008608, symSize: 0x26 }
  - { offsetInCU: 0x1AEE5, offset: 0x1BF69, size: 0x8, addend: 0x0, symName: __ZNSt8__detail14_Node_iteratorISt4pairIKyN6tinyrv10MemoryUnit8TLBEntryEELb0ELb0EEppEv, symObjAddr: 0x49B6, symBinAddr: 0x100008590, symSize: 0x1E }
  - { offsetInCU: 0x1AEED, offset: 0x1BF71, size: 0x8, addend: 0x0, symName: __ZNKSt8__detail15_Hashtable_baseIySt4pairIKyN6tinyrv10MemoryUnit8TLBEntryEENS_10_Select1stESt8equal_toIyESt4hashIyENS_18_Mod_range_hashingENS_20_Default_ranged_hashENS_17_Hashtable_traitsILb0ELb0ELb1EEEE13_M_key_equalsERS2_RKNS_16_Hash_node_valueIS6_Lb0EEE, symObjAddr: 0x49D4, symBinAddr: 0x1000085AE, symSize: 0x5A }
  - { offsetInCU: 0x1AF14, offset: 0x1BF98, size: 0x8, addend: 0x0, symName: __ZNSt10_HashtableIySt4pairIKyN6tinyrv10MemoryUnit8TLBEntryEESaIS5_ENSt8__detail10_Select1stESt8equal_toIyESt4hashIyENS7_18_Mod_range_hashingENS7_20_Default_ranged_hashENS7_20_Prime_rehash_policyENS7_17_Hashtable_traitsILb0ELb0ELb1EEEE5beginEv, symObjAddr: 0x4986, symBinAddr: 0x100008560, symSize: 0x30 }
  - { offsetInCU: 0x1AF1C, offset: 0x1BFA0, size: 0x8, addend: 0x0, symName: __ZNSt8__detail14_Node_iteratorISt4pairIKyN6tinyrv10MemoryUnit8TLBEntryEELb0ELb0EEppEv, symObjAddr: 0x49B6, symBinAddr: 0x100008590, symSize: 0x1E }
  - { offsetInCU: 0x1AF43, offset: 0x1BFC7, size: 0x8, addend: 0x0, symName: __ZNSt10_HashtableIySt4pairIKyN6tinyrv10MemoryUnit8TLBEntryEESaIS5_ENSt8__detail10_Select1stESt8equal_toIyESt4hashIyENS7_18_Mod_range_hashingENS7_20_Default_ranged_hashENS7_20_Prime_rehash_policyENS7_17_Hashtable_traitsILb0ELb0ELb1EEEE22__small_size_thresholdEv, symObjAddr: 0x497A, symBinAddr: 0x100008554, symSize: 0xC }
  - { offsetInCU: 0x1AF61, offset: 0x1BFE5, size: 0x8, addend: 0x0, symName: __ZNKSt10_HashtableIySt4pairIKyN6tinyrv10MemoryUnit8TLBEntryEESaIS5_ENSt8__detail10_Select1stESt8equal_toIyESt4hashIyENS7_18_Mod_range_hashingENS7_20_Default_ranged_hashENS7_20_Prime_rehash_policyENS7_17_Hashtable_traitsILb0ELb0ELb1EEEE4sizeEv, symObjAddr: 0x4968, symBinAddr: 0x100008542, symSize: 0x12 }
  - { offsetInCU: 0x1AF69, offset: 0x1BFED, size: 0x8, addend: 0x0, symName: __ZNSt10_HashtableIySt4pairIKyN6tinyrv10MemoryUnit8TLBEntryEESaIS5_ENSt8__detail10_Select1stESt8equal_toIyESt4hashIyENS7_18_Mod_range_hashingENS7_20_Default_ranged_hashENS7_20_Prime_rehash_policyENS7_17_Hashtable_traitsILb0ELb0ELb1EEEE22__small_size_thresholdEv, symObjAddr: 0x497A, symBinAddr: 0x100008554, symSize: 0xC }
  - { offsetInCU: 0x1AF90, offset: 0x1C014, size: 0x8, addend: 0x0, symName: __ZNSt10_HashtableIySt4pairIKyN6tinyrv10MemoryUnit8TLBEntryEESaIS5_ENSt8__detail10_Select1stESt8equal_toIyESt4hashIyENS7_18_Mod_range_hashingENS7_20_Default_ranged_hashENS7_20_Prime_rehash_policyENS7_17_Hashtable_traitsILb0ELb0ELb1EEEE21_M_insert_unique_nodeEmmPNS7_10_Hash_nodeIS5_Lb0EEEm, symObjAddr: 0x486A, symBinAddr: 0x100008444, symSize: 0xFE }
  - { offsetInCU: 0x1B160, offset: 0x1C1E4, size: 0x8, addend: 0x0, symName: __ZNSt10_HashtableIySt4pairIKyN6tinyrv10MemoryUnit8TLBEntryEESaIS5_ENSt8__detail10_Select1stESt8equal_toIyESt4hashIyENS7_18_Mod_range_hashingENS7_20_Default_ranged_hashENS7_20_Prime_rehash_policyENS7_17_Hashtable_traitsILb0ELb0ELb1EEEE12_Scoped_nodeD1Ev, symObjAddr: 0x4834, symBinAddr: 0x10000840E, symSize: 0x36 }
  - { offsetInCU: 0x1B168, offset: 0x1C1EC, size: 0x8, addend: 0x0, symName: __ZNSt10_HashtableIySt4pairIKyN6tinyrv10MemoryUnit8TLBEntryEESaIS5_ENSt8__detail10_Select1stESt8equal_toIyESt4hashIyENS7_18_Mod_range_hashingENS7_20_Default_ranged_hashENS7_20_Prime_rehash_policyENS7_17_Hashtable_traitsILb0ELb0ELb1EEEE21_M_insert_unique_nodeEmmPNS7_10_Hash_nodeIS5_Lb0EEEm, symObjAddr: 0x486A, symBinAddr: 0x100008444, symSize: 0xFE }
  - { offsetInCU: 0x1B26A, offset: 0x1C2EE, size: 0x8, addend: 0x0, symName: __ZNSt10_HashtableIySt4pairIKyN6tinyrv10MemoryUnit8TLBEntryEESaIS5_ENSt8__detail10_Select1stESt8equal_toIyESt4hashIyENS7_18_Mod_range_hashingENS7_20_Default_ranged_hashENS7_20_Prime_rehash_policyENS7_17_Hashtable_traitsILb0ELb0ELb1EEEE12_Scoped_nodeC1IJRKSt21piecewise_construct_tSt5tupleIJOyEESO_IJEEEEEPNS7_16_Hashtable_allocISaINS7_10_Hash_nodeIS5_Lb0EEEEEEDpOT_, symObjAddr: 0x47B4, symBinAddr: 0x10000838E, symSize: 0x80 }
  - { offsetInCU: 0x1B1E3, offset: 0x1C267, size: 0x8, addend: 0x0, symName: __ZSt16forward_as_tupleIJyEESt5tupleIJDpOT_EES3_, symObjAddr: 0x4780, symBinAddr: 0x10000835A, symSize: 0x34 }
  - { offsetInCU: 0x1B1EB, offset: 0x1C26F, size: 0x8, addend: 0x0, symName: __ZNSt10_HashtableIySt4pairIKyN6tinyrv10MemoryUnit8TLBEntryEESaIS5_ENSt8__detail10_Select1stESt8equal_toIyESt4hashIyENS7_18_Mod_range_hashingENS7_20_Default_ranged_hashENS7_20_Prime_rehash_policyENS7_17_Hashtable_traitsILb0ELb0ELb1EEEE12_Scoped_nodeC1IJRKSt21piecewise_construct_tSt5tupleIJOyEESO_IJEEEEEPNS7_16_Hashtable_allocISaINS7_10_Hash_nodeIS5_Lb0EEEEEEDpOT_, symObjAddr: 0x47B4, symBinAddr: 0x10000838E, symSize: 0x80 }
  - { offsetInCU: 0x1B20C, offset: 0x1C290, size: 0x8, addend: 0x0, symName: __ZNSt5tupleIJOyEEC1EOS1_, symObjAddr: 0x475A, symBinAddr: 0x100008334, symSize: 0x26 }
  - { offsetInCU: 0x1B214, offset: 0x1C298, size: 0x8, addend: 0x0, symName: __ZSt16forward_as_tupleIJyEESt5tupleIJDpOT_EES3_, symObjAddr: 0x4780, symBinAddr: 0x10000835A, symSize: 0x34 }
  - { offsetInCU: 0x1B22D, offset: 0x1C2B1, size: 0x8, addend: 0x0, symName: __ZNSt8__detail21_Hash_node_value_baseISt4pairIKyN6tinyrv10MemoryUnit8TLBEntryEEE4_M_vEv, symObjAddr: 0x4740, symBinAddr: 0x10000831A, symSize: 0x1A }
  - { offsetInCU: 0x1B235, offset: 0x1C2B9, size: 0x8, addend: 0x0, symName: __ZNSt5tupleIJOyEEC1EOS1_, symObjAddr: 0x475A, symBinAddr: 0x100008334, symSize: 0x26 }
  - { offsetInCU: 0x1B25C, offset: 0x1C2E0, size: 0x8, addend: 0x0, symName: __ZNKSt10_HashtableIySt4pairIKyN6tinyrv10MemoryUnit8TLBEntryEESaIS5_ENSt8__detail10_Select1stESt8equal_toIyESt4hashIyENS7_18_Mod_range_hashingENS7_20_Default_ranged_hashENS7_20_Prime_rehash_policyENS7_17_Hashtable_traitsILb0ELb0ELb1EEEE12_M_find_nodeEmRS1_m, symObjAddr: 0x46F4, symBinAddr: 0x1000082CE, symSize: 0x4C }
  - { offsetInCU: 0x1B2DB, offset: 0x1C35F, size: 0x8, addend: 0x0, symName: __ZNKSt10_HashtableIySt4pairIKyN6tinyrv10MemoryUnit8TLBEntryEESaIS5_ENSt8__detail10_Select1stESt8equal_toIyESt4hashIyENS7_18_Mod_range_hashingENS7_20_Default_ranged_hashENS7_20_Prime_rehash_policyENS7_17_Hashtable_traitsILb0ELb0ELb1EEEE15_M_bucket_indexEm, symObjAddr: 0x46C6, symBinAddr: 0x1000082A0, symSize: 0x2E }
  - { offsetInCU: 0x1B31E, offset: 0x1C3A2, size: 0x8, addend: 0x0, symName: __ZNKSt8__detail15_Hash_code_baseIySt4pairIKyN6tinyrv10MemoryUnit8TLBEntryEENS_10_Select1stESt4hashIyENS_18_Mod_range_hashingENS_20_Default_ranged_hashELb0EE12_M_hash_codeERS2_, symObjAddr: 0x4692, symBinAddr: 0x10000826C, symSize: 0x34 }
  - { offsetInCU: 0x1B361, offset: 0x1C3E5, size: 0x8, addend: 0x0, symName: __ZNSt10_HashtableIySt4pairIKyN6tinyrv10MemoryUnit8TLBEntryEESaIS5_ENSt8__detail10_Select1stESt8equal_toIyESt4hashIyENS7_18_Mod_range_hashingENS7_20_Default_ranged_hashENS7_20_Prime_rehash_policyENS7_17_Hashtable_traitsILb0ELb0ELb1EEEE21_M_deallocate_bucketsEPPNS7_15_Hash_node_baseEm, symObjAddr: 0x464A, symBinAddr: 0x100008224, symSize: 0x48 }
  - { offsetInCU: 0x1B526, offset: 0x1C5AA, size: 0x8, addend: 0x0, symName: __ZSt34__uninitialized_move_if_noexcept_aIPN6tinyrv10MemoryUnit8ADecoder7entry_tES4_SaIS3_EET0_T_S7_S6_RT1_, symObjAddr: 0x45F6, symBinAddr: 0x1000081D0, symSize: 0x54 }
  - { offsetInCU: 0x1B4AD, offset: 0x1C531, size: 0x8, addend: 0x0, symName: __ZNK9__gnu_cxx17__normal_iteratorIPN6tinyrv10MemoryUnit8ADecoder7entry_tESt6vectorIS4_SaIS4_EEE4baseEv, symObjAddr: 0x45E8, symBinAddr: 0x1000081C2, symSize: 0xE }
  - { offsetInCU: 0x1B4B5, offset: 0x1C539, size: 0x8, addend: 0x0, symName: __ZSt34__uninitialized_move_if_noexcept_aIPN6tinyrv10MemoryUnit8ADecoder7entry_tES4_SaIS3_EET0_T_S7_S6_RT1_, symObjAddr: 0x45F6, symBinAddr: 0x1000081D0, symSize: 0x54 }
  - { offsetInCU: 0x1B4DC, offset: 0x1C560, size: 0x8, addend: 0x0, symName: __ZNSt6vectorIN6tinyrv10MemoryUnit8ADecoder7entry_tESaIS3_EE11_S_relocateEPS3_S6_S6_RS4_, symObjAddr: 0x45B5, symBinAddr: 0x10000818F, symSize: 0x33 }
  - { offsetInCU: 0x1B54A, offset: 0x1C5CE, size: 0x8, addend: 0x0, symName: __ZNSt12_Vector_baseIN6tinyrv10MemoryUnit8ADecoder7entry_tESaIS3_EE11_M_allocateEm, symObjAddr: 0x456C, symBinAddr: 0x100008146, symSize: 0x49 }
  - { offsetInCU: 0x1B552, offset: 0x1C5D6, size: 0x8, addend: 0x0, symName: __ZNSt6vectorIN6tinyrv10MemoryUnit8ADecoder7entry_tESaIS3_EE11_S_relocateEPS3_S6_S6_RS4_, symObjAddr: 0x45B5, symBinAddr: 0x10000818F, symSize: 0x33 }
  - { offsetInCU: 0x1B6B1, offset: 0x1C735, size: 0x8, addend: 0x0, symName: __ZN9__gnu_cxxmiIPN6tinyrv10MemoryUnit8ADecoder7entry_tESt6vectorIS4_SaIS4_EEEENS_17__normal_iteratorIT_T0_E15difference_typeERKSC_SF_, symObjAddr: 0x451E, symBinAddr: 0x1000080F8, symSize: 0x4E }
  - { offsetInCU: 0x1B636, offset: 0x1C6BA, size: 0x8, addend: 0x0, symName: __ZNKSt6vectorIN6tinyrv10MemoryUnit8ADecoder7entry_tESaIS3_EE12_M_check_lenEmPKc, symObjAddr: 0x4456, symBinAddr: 0x100008030, symSize: 0xC8 }
  - { offsetInCU: 0x1B63E, offset: 0x1C6C2, size: 0x8, addend: 0x0, symName: __ZN9__gnu_cxxmiIPN6tinyrv10MemoryUnit8ADecoder7entry_tESt6vectorIS4_SaIS4_EEEENS_17__normal_iteratorIT_T0_E15difference_typeERKSC_SF_, symObjAddr: 0x451E, symBinAddr: 0x1000080F8, symSize: 0x4E }
  - { offsetInCU: 0x1B6F5, offset: 0x1C779, size: 0x8, addend: 0x0, symName: __ZNK9__gnu_cxx17__normal_iteratorIPN6tinyrv10MemoryUnit8ADecoder7entry_tESt6vectorIS4_SaIS4_EEEptEv, symObjAddr: 0x4444, symBinAddr: 0x10000801E, symSize: 0x12 }
  - { offsetInCU: 0x1B804, offset: 0x1C888, size: 0x8, addend: 0x0, symName: __ZN9__gnu_cxxeqIPN6tinyrv10MemoryUnit8ADecoder7entry_tESt6vectorIS4_SaIS4_EEEEbRKNS_17__normal_iteratorIT_T0_EESE_, symObjAddr: 0x4409, symBinAddr: 0x100007FE3, symSize: 0x3B }
  - { offsetInCU: 0x1B80C, offset: 0x1C890, size: 0x8, addend: 0x0, symName: __ZNK9__gnu_cxx17__normal_iteratorIPN6tinyrv10MemoryUnit8ADecoder7entry_tESt6vectorIS4_SaIS4_EEEptEv, symObjAddr: 0x4444, symBinAddr: 0x10000801E, symSize: 0x12 }
  - { offsetInCU: 0x1B791, offset: 0x1C815, size: 0x8, addend: 0x0, symName: __ZNKSt16reverse_iteratorIN9__gnu_cxx17__normal_iteratorIPN6tinyrv10MemoryUnit8ADecoder7entry_tESt6vectorIS5_SaIS5_EEEEE4baseEv, symObjAddr: 0x43F8, symBinAddr: 0x100007FD2, symSize: 0x11 }
  - { offsetInCU: 0x1B799, offset: 0x1C81D, size: 0x8, addend: 0x0, symName: __ZN9__gnu_cxxeqIPN6tinyrv10MemoryUnit8ADecoder7entry_tESt6vectorIS4_SaIS4_EEEEbRKNS_17__normal_iteratorIT_T0_EESE_, symObjAddr: 0x4409, symBinAddr: 0x100007FE3, symSize: 0x3B }
  - { offsetInCU: 0x1B851, offset: 0x1C8D5, size: 0x8, addend: 0x0, symName: __ZN9__gnu_cxx17__normal_iteratorIPN6tinyrv10MemoryUnit8ADecoder7entry_tESt6vectorIS4_SaIS4_EEEC1ERKS5_, symObjAddr: 0x43DA, symBinAddr: 0x100007FB4, symSize: 0x1E }
  - { offsetInCU: 0x1B8AF, offset: 0x1C933, size: 0x8, addend: 0x0, symName: __ZSt27__uninitialized_default_n_aIPhmhET_S1_T0_RSaIT1_E, symObjAddr: 0x43B0, symBinAddr: 0x100007F8A, symSize: 0x2A }
  - { offsetInCU: 0x1B8AA, offset: 0x1C92E, size: 0x8, addend: 0x0, symName: __ZNSt12_Vector_baseIhSaIhEE17_M_create_storageEm, symObjAddr: 0x435E, symBinAddr: 0x100007F38, symSize: 0x52 }
  - { offsetInCU: 0x1B8B2, offset: 0x1C936, size: 0x8, addend: 0x0, symName: __ZSt27__uninitialized_default_n_aIPhmhET_S1_T0_RSaIT1_E, symObjAddr: 0x43B0, symBinAddr: 0x100007F8A, symSize: 0x2A }
  - { offsetInCU: 0x1B948, offset: 0x1C9CC, size: 0x8, addend: 0x0, symName: __ZNSt12_Vector_baseIhSaIhEE12_Vector_implC1ERKS0_, symObjAddr: 0x431C, symBinAddr: 0x100007EF6, symSize: 0x42 }
  - { offsetInCU: 0x1B9DD, offset: 0x1CA61, size: 0x8, addend: 0x0, symName: __ZNSt6vectorIhSaIhEE11_S_max_sizeERKS0_, symObjAddr: 0x42C2, symBinAddr: 0x100007E9C, symSize: 0x5A }
  - { offsetInCU: 0x1B9E5, offset: 0x1CA69, size: 0x8, addend: 0x0, symName: __ZNSt12_Vector_baseIhSaIhEE12_Vector_implC1ERKS0_, symObjAddr: 0x431C, symBinAddr: 0x100007EF6, symSize: 0x42 }
  - { offsetInCU: 0x1BAAA, offset: 0x1CB2E, size: 0x8, addend: 0x0, symName: __ZNSt6vectorIhSaIhEE17_M_realloc_insertIJhEEEvN9__gnu_cxx17__normal_iteratorIPhS1_EEDpOT_, symObjAddr: 0x3F24, symBinAddr: 0x100007AFE, symSize: 0x39E }
  - { offsetInCU: 0x1BAB2, offset: 0x1CB36, size: 0x8, addend: 0x0, symName: __ZNSt6vectorIhSaIhEE11_S_max_sizeERKS0_, symObjAddr: 0x42C2, symBinAddr: 0x100007E9C, symSize: 0x5A }
  - { offsetInCU: 0x1BCF7, offset: 0x1CD7B, size: 0x8, addend: 0x0, symName: __ZNSt6vectorIhSaIhEE19_S_nothrow_relocateESt17integral_constantIbLb1EE, symObjAddr: 0x3F18, symBinAddr: 0x100007AF2, symSize: 0xC }
  - { offsetInCU: 0x1BD21, offset: 0x1CDA5, size: 0x8, addend: 0x0, symName: __ZNSt6vectorIhSaIhEE15_S_use_relocateEv, symObjAddr: 0x3F09, symBinAddr: 0x100007AE3, symSize: 0xF }
  - { offsetInCU: 0x1BD29, offset: 0x1CDAD, size: 0x8, addend: 0x0, symName: __ZNSt6vectorIhSaIhEE19_S_nothrow_relocateESt17integral_constantIbLb1EE, symObjAddr: 0x3F18, symBinAddr: 0x100007AF2, symSize: 0xC }
  - { offsetInCU: 0x1BD3F, offset: 0x1CDC3, size: 0x8, addend: 0x0, symName: __ZNSt6vectorIhSaIhEE3endEv, symObjAddr: 0x3EE0, symBinAddr: 0x100007ABA, symSize: 0x29 }
  - { offsetInCU: 0x1BD47, offset: 0x1CDCB, size: 0x8, addend: 0x0, symName: __ZNSt6vectorIhSaIhEE15_S_use_relocateEv, symObjAddr: 0x3F09, symBinAddr: 0x100007AE3, symSize: 0xF }
  - { offsetInCU: 0x1BE15, offset: 0x1CE99, size: 0x8, addend: 0x0, symName: __ZSt7forwardIhEOT_RNSt16remove_referenceIS0_E4typeE, symObjAddr: 0x3ED2, symBinAddr: 0x100007AAC, symSize: 0xE }
  - { offsetInCU: 0x1BE1D, offset: 0x1CEA1, size: 0x8, addend: 0x0, symName: __ZNSt6vectorIhSaIhEE3endEv, symObjAddr: 0x3EE0, symBinAddr: 0x100007ABA, symSize: 0x29 }
  - { offsetInCU: 0x1BF1C, offset: 0x1CFA0, size: 0x8, addend: 0x0, symName: __ZSt8_DestroyIPN6tinyrv10MemoryUnit8ADecoder7entry_tEEvT_S5_, symObjAddr: 0x3EAC, symBinAddr: 0x100007A86, symSize: 0x26 }
  - { offsetInCU: 0x1BF24, offset: 0x1CFA8, size: 0x8, addend: 0x0, symName: __ZSt7forwardIhEOT_RNSt16remove_referenceIS0_E4typeE, symObjAddr: 0x3ED2, symBinAddr: 0x100007AAC, symSize: 0xE }
  - { offsetInCU: 0x1BF5A, offset: 0x1CFDE, size: 0x8, addend: 0x0, symName: __ZNSt8__detail16_Hashtable_allocISaINS_10_Hash_nodeISt4pairIKyN6tinyrv10MemoryUnit8TLBEntryEELb0EEEEE19_M_deallocate_nodesEPS8_, symObjAddr: 0x3E64, symBinAddr: 0x100007A3E, symSize: 0x48 }
  - { offsetInCU: 0x1BF62, offset: 0x1CFE6, size: 0x8, addend: 0x0, symName: __ZSt8_DestroyIPN6tinyrv10MemoryUnit8ADecoder7entry_tEEvT_S5_, symObjAddr: 0x3EAC, symBinAddr: 0x100007A86, symSize: 0x26 }
  - { offsetInCU: 0x1BFC3, offset: 0x1D047, size: 0x8, addend: 0x0, symName: __ZNKSt10_HashtableIySt4pairIKyN6tinyrv10MemoryUnit8TLBEntryEESaIS5_ENSt8__detail10_Select1stESt8equal_toIyESt4hashIyENS7_18_Mod_range_hashingENS7_20_Default_ranged_hashENS7_20_Prime_rehash_policyENS7_17_Hashtable_traitsILb0ELb0ELb1EEEE8_M_beginEv, symObjAddr: 0x3E52, symBinAddr: 0x100007A2C, symSize: 0x12 }
  - { offsetInCU: 0x1BFCB, offset: 0x1D04F, size: 0x8, addend: 0x0, symName: __ZNSt8__detail16_Hashtable_allocISaINS_10_Hash_nodeISt4pairIKyN6tinyrv10MemoryUnit8TLBEntryEELb0EEEEE19_M_deallocate_nodesEPS8_, symObjAddr: 0x3E64, symBinAddr: 0x100007A3E, symSize: 0x48 }
  - { offsetInCU: 0x1C023, offset: 0x1D0A7, size: 0x8, addend: 0x0, symName: __ZSt8_DestroyIPhEvT_S1_, symObjAddr: 0x3E2C, symBinAddr: 0x100007A06, symSize: 0x26 }
  - { offsetInCU: 0x1C02B, offset: 0x1D0AF, size: 0x8, addend: 0x0, symName: __ZNKSt10_HashtableIySt4pairIKyN6tinyrv10MemoryUnit8TLBEntryEESaIS5_ENSt8__detail10_Select1stESt8equal_toIyESt4hashIyENS7_18_Mod_range_hashingENS7_20_Default_ranged_hashENS7_20_Prime_rehash_policyENS7_17_Hashtable_traitsILb0ELb0ELb1EEEE8_M_beginEv, symObjAddr: 0x3E52, symBinAddr: 0x100007A2C, symSize: 0x12 }
  - { offsetInCU: 0x1C047, offset: 0x1D0CB, size: 0x8, addend: 0x0, symName: __ZNKSt6vectorIcSaIcEE11_M_data_ptrIcEEPT_S4_, symObjAddr: 0x3E1A, symBinAddr: 0x1000079F4, symSize: 0x12 }
  - { offsetInCU: 0x1C04F, offset: 0x1D0D3, size: 0x8, addend: 0x0, symName: __ZSt8_DestroyIPhEvT_S1_, symObjAddr: 0x3E2C, symBinAddr: 0x100007A06, symSize: 0x26 }
  - { offsetInCU: 0x1C0ED, offset: 0x1D171, size: 0x8, addend: 0x0, symName: __ZNSt12_Vector_baseIcSaIcEE19_M_get_Tp_allocatorEv, symObjAddr: 0x3E0C, symBinAddr: 0x1000079E6, symSize: 0xE }
  - { offsetInCU: 0x1C0F5, offset: 0x1D179, size: 0x8, addend: 0x0, symName: __ZNKSt6vectorIcSaIcEE11_M_data_ptrIcEEPT_S4_, symObjAddr: 0x3E1A, symBinAddr: 0x1000079F4, symSize: 0x12 }
  - { offsetInCU: 0x1C11C, offset: 0x1D1A0, size: 0x8, addend: 0x0, symName: __ZNSt6vectorIcSaIcEE21_M_default_initializeEm, symObjAddr: 0x3DCC, symBinAddr: 0x1000079A6, symSize: 0x40 }
  - { offsetInCU: 0x1C124, offset: 0x1D1A8, size: 0x8, addend: 0x0, symName: __ZNSt12_Vector_baseIcSaIcEE19_M_get_Tp_allocatorEv, symObjAddr: 0x3E0C, symBinAddr: 0x1000079E6, symSize: 0xE }
  - { offsetInCU: 0x1C1A6, offset: 0x1D22A, size: 0x8, addend: 0x0, symName: __ZNSt12_Vector_baseIcSaIcEED2Ev, symObjAddr: 0x3D88, symBinAddr: 0x100007962, symSize: 0x44 }
  - { offsetInCU: 0x1C214, offset: 0x1D298, size: 0x8, addend: 0x0, symName: __ZNSt12_Vector_baseIcSaIcEEC2EmRKS0_, symObjAddr: 0x3D2A, symBinAddr: 0x100007904, symSize: 0x5E }
  - { offsetInCU: 0x1C28E, offset: 0x1D312, size: 0x8, addend: 0x0, symName: __ZNSt12_Vector_baseIcSaIcEE12_Vector_implD1Ev, symObjAddr: 0x3D06, symBinAddr: 0x1000078E0, symSize: 0x24 }
  - { offsetInCU: 0x1C296, offset: 0x1D31A, size: 0x8, addend: 0x0, symName: __ZNSt12_Vector_baseIcSaIcEEC2EmRKS0_, symObjAddr: 0x3D2A, symBinAddr: 0x100007904, symSize: 0x5E }
  - { offsetInCU: 0x1C2B4, offset: 0x1D338, size: 0x8, addend: 0x0, symName: __ZNSt6vectorIcSaIcEE17_S_check_init_lenEmRKS0_, symObjAddr: 0x3C9D, symBinAddr: 0x100007877, symSize: 0x69 }
  - { offsetInCU: 0x1C380, offset: 0x1D404, size: 0x8, addend: 0x0, symName: __ZNSt10_HashtableIySt4pairIKyPhESaIS3_ENSt8__detail10_Select1stESt8equal_toIyESt4hashIyENS5_18_Mod_range_hashingENS5_20_Default_ranged_hashENS5_20_Prime_rehash_policyENS5_17_Hashtable_traitsILb0ELb0ELb1EEEE7emplaceIJRyRS2_EEES0_INS5_14_Node_iteratorIS3_Lb0ELb0EEEbEDpOT_, symObjAddr: 0x3C52, symBinAddr: 0x10000782C, symSize: 0x4B }
  - { offsetInCU: 0x1C388, offset: 0x1D40C, size: 0x8, addend: 0x0, symName: __ZNSt6vectorIcSaIcEE17_S_check_init_lenEmRKS0_, symObjAddr: 0x3C9D, symBinAddr: 0x100007877, symSize: 0x69 }
  - { offsetInCU: 0x1C438, offset: 0x1D4BC, size: 0x8, addend: 0x0, symName: __ZSt7forwardIRPhEOT_RNSt16remove_referenceIS2_E4typeE, symObjAddr: 0x3C44, symBinAddr: 0x10000781E, symSize: 0xE }
  - { offsetInCU: 0x1C440, offset: 0x1D4C4, size: 0x8, addend: 0x0, symName: __ZNSt10_HashtableIySt4pairIKyPhESaIS3_ENSt8__detail10_Select1stESt8equal_toIyESt4hashIyENS5_18_Mod_range_hashingENS5_20_Default_ranged_hashENS5_20_Prime_rehash_policyENS5_17_Hashtable_traitsILb0ELb0ELb1EEEE7emplaceIJRyRS2_EEES0_INS5_14_Node_iteratorIS3_Lb0ELb0EEEbEDpOT_, symObjAddr: 0x3C52, symBinAddr: 0x10000782C, symSize: 0x4B }
  - { offsetInCU: 0x1C493, offset: 0x1D517, size: 0x8, addend: 0x0, symName: __ZSt7forwardIRyEOT_RNSt16remove_referenceIS1_E4typeE, symObjAddr: 0x3C36, symBinAddr: 0x100007810, symSize: 0xE }
  - { offsetInCU: 0x1C49B, offset: 0x1D51F, size: 0x8, addend: 0x0, symName: __ZSt7forwardIRPhEOT_RNSt16remove_referenceIS2_E4typeE, symObjAddr: 0x3C44, symBinAddr: 0x10000781E, symSize: 0xE }
  - { offsetInCU: 0x1C48D, offset: 0x1D511, size: 0x8, addend: 0x0, symName: __ZNSt8__detail21_Hash_node_value_baseISt4pairIKyPhEE9_M_valptrEv, symObjAddr: 0x3C1C, symBinAddr: 0x1000077F6, symSize: 0x1A }
  - { offsetInCU: 0x1C495, offset: 0x1D519, size: 0x8, addend: 0x0, symName: __ZSt7forwardIRyEOT_RNSt16remove_referenceIS1_E4typeE, symObjAddr: 0x3C36, symBinAddr: 0x100007810, symSize: 0xE }
  - { offsetInCU: 0x1C4BC, offset: 0x1D540, size: 0x8, addend: 0x0, symName: __ZNSt10_HashtableIySt4pairIKyPhESaIS3_ENSt8__detail10_Select1stESt8equal_toIyESt4hashIyENS5_18_Mod_range_hashingENS5_20_Default_ranged_hashENS5_20_Prime_rehash_policyENS5_17_Hashtable_traitsILb0ELb0ELb1EEEE4findERS1_, symObjAddr: 0x3B10, symBinAddr: 0x1000076EA, symSize: 0x10C }
  - { offsetInCU: 0x1C4C4, offset: 0x1D548, size: 0x8, addend: 0x0, symName: __ZNSt8__detail21_Hash_node_value_baseISt4pairIKyPhEE9_M_valptrEv, symObjAddr: 0x3C1C, symBinAddr: 0x1000077F6, symSize: 0x1A }
  - { offsetInCU: 0x1C550, offset: 0x1D5D4, size: 0x8, addend: 0x0, symName: __ZNKSt10_HashtableIySt4pairIKyPhESaIS3_ENSt8__detail10_Select1stESt8equal_toIyESt4hashIyENS5_18_Mod_range_hashingENS5_20_Default_ranged_hashENS5_20_Prime_rehash_policyENS5_17_Hashtable_traitsILb0ELb0ELb1EEEE4sizeEv, symObjAddr: 0x3AFE, symBinAddr: 0x1000076D8, symSize: 0x12 }
  - { offsetInCU: 0x1C558, offset: 0x1D5DC, size: 0x8, addend: 0x0, symName: __ZNSt10_HashtableIySt4pairIKyPhESaIS3_ENSt8__detail10_Select1stESt8equal_toIyESt4hashIyENS5_18_Mod_range_hashingENS5_20_Default_ranged_hashENS5_20_Prime_rehash_policyENS5_17_Hashtable_traitsILb0ELb0ELb1EEEE4findERS1_, symObjAddr: 0x3B10, symBinAddr: 0x1000076EA, symSize: 0x10C }
  - { offsetInCU: 0x1C57F, offset: 0x1D603, size: 0x8, addend: 0x0, symName: __ZNSt8__detail21_Hash_node_value_baseISt4pairIKyPhEE4_M_vEv, symObjAddr: 0x3AE4, symBinAddr: 0x1000076BE, symSize: 0x1A }
  - { offsetInCU: 0x1C587, offset: 0x1D60B, size: 0x8, addend: 0x0, symName: __ZNKSt10_HashtableIySt4pairIKyPhESaIS3_ENSt8__detail10_Select1stESt8equal_toIyESt4hashIyENS5_18_Mod_range_hashingENS5_20_Default_ranged_hashENS5_20_Prime_rehash_policyENS5_17_Hashtable_traitsILb0ELb0ELb1EEEE4sizeEv, symObjAddr: 0x3AFE, symBinAddr: 0x1000076D8, symSize: 0x12 }
  - { offsetInCU: 0x1C5AE, offset: 0x1D632, size: 0x8, addend: 0x0, symName: __ZNSt8__detail19_Node_iterator_baseISt4pairIKyPhELb0EE7_M_incrEv, symObjAddr: 0x3ABE, symBinAddr: 0x100007698, symSize: 0x26 }
  - { offsetInCU: 0x1C5DD, offset: 0x1D661, size: 0x8, addend: 0x0, symName: __ZNSt10_HashtableIySt4pairIKyPhESaIS3_ENSt8__detail10_Select1stESt8equal_toIyESt4hashIyENS5_18_Mod_range_hashingENS5_20_Default_ranged_hashENS5_20_Prime_rehash_policyENS5_17_Hashtable_traitsILb0ELb0ELb1EEEE3endEv, symObjAddr: 0x3A9A, symBinAddr: 0x100007674, symSize: 0x24 }
  - { offsetInCU: 0x1C60C, offset: 0x1D690, size: 0x8, addend: 0x0, symName: __ZNSt10_HashtableIySt4pairIKyPhESaIS3_ENSt8__detail10_Select1stESt8equal_toIyESt4hashIyENS5_18_Mod_range_hashingENS5_20_Default_ranged_hashENS5_20_Prime_rehash_policyENS5_17_Hashtable_traitsILb0ELb0ELb1EEEE5beginEv, symObjAddr: 0x3A6A, symBinAddr: 0x100007644, symSize: 0x30 }
  - { offsetInCU: 0x1C614, offset: 0x1D698, size: 0x8, addend: 0x0, symName: __ZNSt10_HashtableIySt4pairIKyPhESaIS3_ENSt8__detail10_Select1stESt8equal_toIyESt4hashIyENS5_18_Mod_range_hashingENS5_20_Default_ranged_hashENS5_20_Prime_rehash_policyENS5_17_Hashtable_traitsILb0ELb0ELb1EEEE3endEv, symObjAddr: 0x3A9A, symBinAddr: 0x100007674, symSize: 0x24 }
  - { offsetInCU: 0x1C63B, offset: 0x1D6BF, size: 0x8, addend: 0x0, symName: __ZNSt10_HashtableIySt4pairIKyPhESaIS3_ENSt8__detail10_Select1stESt8equal_toIyESt4hashIyENS5_18_Mod_range_hashingENS5_20_Default_ranged_hashENS5_20_Prime_rehash_policyENS5_17_Hashtable_traitsILb0ELb0ELb1EEEE21_M_deallocate_bucketsEv, symObjAddr: 0x3A3C, symBinAddr: 0x100007616, symSize: 0x2E }
  - { offsetInCU: 0x1C66A, offset: 0x1D6EE, size: 0x8, addend: 0x0, symName: __ZNSt10_HashtableIySt4pairIKyPhESaIS3_ENSt8__detail10_Select1stESt8equal_toIyESt4hashIyENS5_18_Mod_range_hashingENS5_20_Default_ranged_hashENS5_20_Prime_rehash_policyENS5_17_Hashtable_traitsILb0ELb0ELb1EEEE5clearEv, symObjAddr: 0x39D2, symBinAddr: 0x1000075AC, symSize: 0x6A }
  - { offsetInCU: 0x1C709, offset: 0x1D78D, size: 0x8, addend: 0x0, symName: __ZNSt15__new_allocatorINSt8__detail10_Hash_nodeISt4pairIKyPhELb0EEEED2Ev, symObjAddr: 0x39C6, symBinAddr: 0x1000075A0, symSize: 0xC }
  - { offsetInCU: 0x1C707, offset: 0x1D78B, size: 0x8, addend: 0x0, symName: __ZNSt10_HashtableIySt4pairIKyN6tinyrv10MemoryUnit8TLBEntryEESaIS5_ENSt8__detail10_Select1stESt8equal_toIyESt4hashIyENS7_18_Mod_range_hashingENS7_20_Default_ranged_hashENS7_20_Prime_rehash_policyENS7_17_Hashtable_traitsILb0ELb0ELb1EEEE5eraseENS7_14_Node_iteratorIS5_Lb0ELb0EEE, symObjAddr: 0x398E, symBinAddr: 0x100007568, symSize: 0x38 }
  - { offsetInCU: 0x1C70F, offset: 0x1D793, size: 0x8, addend: 0x0, symName: __ZNSt15__new_allocatorINSt8__detail10_Hash_nodeISt4pairIKyPhELb0EEEED2Ev, symObjAddr: 0x39C6, symBinAddr: 0x1000075A0, symSize: 0xC }
  - { offsetInCU: 0x1C74A, offset: 0x1D7CE, size: 0x8, addend: 0x0, symName: __ZNSt8__detail21_Hash_node_value_baseISt4pairIKyN6tinyrv10MemoryUnit8TLBEntryEEE9_M_valptrEv, symObjAddr: 0x3974, symBinAddr: 0x10000754E, symSize: 0x1A }
  - { offsetInCU: 0x1C752, offset: 0x1D7D6, size: 0x8, addend: 0x0, symName: __ZNSt10_HashtableIySt4pairIKyN6tinyrv10MemoryUnit8TLBEntryEESaIS5_ENSt8__detail10_Select1stESt8equal_toIyESt4hashIyENS7_18_Mod_range_hashingENS7_20_Default_ranged_hashENS7_20_Prime_rehash_policyENS7_17_Hashtable_traitsILb0ELb0ELb1EEEE5eraseENS7_14_Node_iteratorIS5_Lb0ELb0EEE, symObjAddr: 0x398E, symBinAddr: 0x100007568, symSize: 0x38 }
  - { offsetInCU: 0x1C779, offset: 0x1D7FD, size: 0x8, addend: 0x0, symName: __ZNSt10_HashtableIySt4pairIKyN6tinyrv10MemoryUnit8TLBEntryEESaIS5_ENSt8__detail10_Select1stESt8equal_toIyESt4hashIyENS7_18_Mod_range_hashingENS7_20_Default_ranged_hashENS7_20_Prime_rehash_policyENS7_17_Hashtable_traitsILb0ELb0ELb1EEEE3endEv, symObjAddr: 0x3950, symBinAddr: 0x10000752A, symSize: 0x24 }
  - { offsetInCU: 0x1C7A8, offset: 0x1D82C, size: 0x8, addend: 0x0, symName: __ZNSt10_HashtableIySt4pairIKyN6tinyrv10MemoryUnit8TLBEntryEESaIS5_ENSt8__detail10_Select1stESt8equal_toIyESt4hashIyENS7_18_Mod_range_hashingENS7_20_Default_ranged_hashENS7_20_Prime_rehash_policyENS7_17_Hashtable_traitsILb0ELb0ELb1EEEE4findERS1_, symObjAddr: 0x3844, symBinAddr: 0x10000741E, symSize: 0x10C }
  - { offsetInCU: 0x1C7B0, offset: 0x1D834, size: 0x8, addend: 0x0, symName: __ZNSt10_HashtableIySt4pairIKyN6tinyrv10MemoryUnit8TLBEntryEESaIS5_ENSt8__detail10_Select1stESt8equal_toIyESt4hashIyENS7_18_Mod_range_hashingENS7_20_Default_ranged_hashENS7_20_Prime_rehash_policyENS7_17_Hashtable_traitsILb0ELb0ELb1EEEE3endEv, symObjAddr: 0x3950, symBinAddr: 0x10000752A, symSize: 0x24 }
  - { offsetInCU: 0x1C83C, offset: 0x1D8C0, size: 0x8, addend: 0x0, symName: __ZNSt8__detail9_Map_baseIySt4pairIKyN6tinyrv10MemoryUnit8TLBEntryEESaIS6_ENS_10_Select1stESt8equal_toIyESt4hashIyENS_18_Mod_range_hashingENS_20_Default_ranged_hashENS_20_Prime_rehash_policyENS_17_Hashtable_traitsILb0ELb0ELb1EEELb1EEixEOy, symObjAddr: 0x3710, symBinAddr: 0x1000072EA, symSize: 0x134 }
  - { offsetInCU: 0x1C844, offset: 0x1D8C8, size: 0x8, addend: 0x0, symName: __ZNSt10_HashtableIySt4pairIKyN6tinyrv10MemoryUnit8TLBEntryEESaIS5_ENSt8__detail10_Select1stESt8equal_toIyESt4hashIyENS7_18_Mod_range_hashingENS7_20_Default_ranged_hashENS7_20_Prime_rehash_policyENS7_17_Hashtable_traitsILb0ELb0ELb1EEEE4findERS1_, symObjAddr: 0x3844, symBinAddr: 0x10000741E, symSize: 0x10C }
  - { offsetInCU: 0x1C96B, offset: 0x1D9EF, size: 0x8, addend: 0x0, symName: __ZSt4moveIRyEONSt16remove_referenceIT_E4typeEOS2_, symObjAddr: 0x3701, symBinAddr: 0x1000072DB, symSize: 0xF }
  - { offsetInCU: 0x1C96B, offset: 0x1D9EF, size: 0x8, addend: 0x0, symName: __ZNSt10_HashtableIySt4pairIKyN6tinyrv10MemoryUnit8TLBEntryEESaIS5_ENSt8__detail10_Select1stESt8equal_toIyESt4hashIyENS7_18_Mod_range_hashingENS7_20_Default_ranged_hashENS7_20_Prime_rehash_policyENS7_17_Hashtable_traitsILb0ELb0ELb1EEEE21_M_deallocate_bucketsEv, symObjAddr: 0x36D4, symBinAddr: 0x1000072AE, symSize: 0x2D }
  - { offsetInCU: 0x1C973, offset: 0x1D9F7, size: 0x8, addend: 0x0, symName: __ZSt4moveIRyEONSt16remove_referenceIT_E4typeEOS2_, symObjAddr: 0x3701, symBinAddr: 0x1000072DB, symSize: 0xF }
  - { offsetInCU: 0x1CA26, offset: 0x1DAAA, size: 0x8, addend: 0x0, symName: __ZNSt15__new_allocatorINSt8__detail10_Hash_nodeISt4pairIKyN6tinyrv10MemoryUnit8TLBEntryEELb0EEEED2Ev, symObjAddr: 0x36C8, symBinAddr: 0x1000072A2, symSize: 0xC }
  - { offsetInCU: 0x1CA08, offset: 0x1DA8C, size: 0x8, addend: 0x0, symName: __ZNSt6vectorIN6tinyrv10MemoryUnit8ADecoder7entry_tESaIS3_EE17_M_realloc_insertIJRS3_EEEvN9__gnu_cxx17__normal_iteratorIPS3_S5_EEDpOT_, symObjAddr: 0x32D0, symBinAddr: 0x100006EAA, symSize: 0x3F8 }
  - { offsetInCU: 0x1CC55, offset: 0x1DCD9, size: 0x8, addend: 0x0, symName: __ZNSt6vectorIN6tinyrv10MemoryUnit8ADecoder7entry_tESaIS3_EE19_S_nothrow_relocateESt17integral_constantIbLb1EE, symObjAddr: 0x32C5, symBinAddr: 0x100006E9F, symSize: 0xB }
  - { offsetInCU: 0x1CC5D, offset: 0x1DCE1, size: 0x8, addend: 0x0, symName: __ZNSt6vectorIN6tinyrv10MemoryUnit8ADecoder7entry_tESaIS3_EE17_M_realloc_insertIJRS3_EEEvN9__gnu_cxx17__normal_iteratorIPS3_S5_EEDpOT_, symObjAddr: 0x32D0, symBinAddr: 0x100006EAA, symSize: 0x3F8 }
  - { offsetInCU: 0x1CC7F, offset: 0x1DD03, size: 0x8, addend: 0x0, symName: __ZNSt6vectorIN6tinyrv10MemoryUnit8ADecoder7entry_tESaIS3_EE15_S_use_relocateEv, symObjAddr: 0x32B6, symBinAddr: 0x100006E90, symSize: 0xF }
  - { offsetInCU: 0x1CC87, offset: 0x1DD0B, size: 0x8, addend: 0x0, symName: __ZNSt6vectorIN6tinyrv10MemoryUnit8ADecoder7entry_tESaIS3_EE19_S_nothrow_relocateESt17integral_constantIbLb1EE, symObjAddr: 0x32C5, symBinAddr: 0x100006E9F, symSize: 0xB }
  - { offsetInCU: 0x1CD83, offset: 0x1DE07, size: 0x8, addend: 0x0, symName: __ZSt7forwardIRN6tinyrv10MemoryUnit8ADecoder7entry_tEEOT_RNSt16remove_referenceIS5_E4typeE, symObjAddr: 0x32A8, symBinAddr: 0x100006E82, symSize: 0xE }
  - { offsetInCU: 0x1CD8B, offset: 0x1DE0F, size: 0x8, addend: 0x0, symName: __ZNSt6vectorIN6tinyrv10MemoryUnit8ADecoder7entry_tESaIS3_EE15_S_use_relocateEv, symObjAddr: 0x32B6, symBinAddr: 0x100006E90, symSize: 0xF }
  - { offsetInCU: 0x1CD49, offset: 0x1DDCD, size: 0x8, addend: 0x0, symName: __ZNSt16reverse_iteratorIN9__gnu_cxx17__normal_iteratorIPN6tinyrv10MemoryUnit8ADecoder7entry_tESt6vectorIS5_SaIS5_EEEEE13_S_to_pointerISA_EES6_T_, symObjAddr: 0x328E, symBinAddr: 0x100006E68, symSize: 0x1A }
  - { offsetInCU: 0x1CD51, offset: 0x1DDD5, size: 0x8, addend: 0x0, symName: __ZSt7forwardIRN6tinyrv10MemoryUnit8ADecoder7entry_tEEOT_RNSt16remove_referenceIS5_E4typeE, symObjAddr: 0x32A8, symBinAddr: 0x100006E82, symSize: 0xE }
  - { offsetInCU: 0x1CD88, offset: 0x1DE0C, size: 0x8, addend: 0x0, symName: __ZN9__gnu_cxx17__normal_iteratorIPN6tinyrv10MemoryUnit8ADecoder7entry_tESt6vectorIS4_SaIS4_EEEmmEv, symObjAddr: 0x326E, symBinAddr: 0x100006E48, symSize: 0x20 }
  - { offsetInCU: 0x1CD90, offset: 0x1DE14, size: 0x8, addend: 0x0, symName: __ZNSt16reverse_iteratorIN9__gnu_cxx17__normal_iteratorIPN6tinyrv10MemoryUnit8ADecoder7entry_tESt6vectorIS5_SaIS5_EEEEE13_S_to_pointerISA_EES6_T_, symObjAddr: 0x328E, symBinAddr: 0x100006E68, symSize: 0x1A }
  - { offsetInCU: 0x1CEC7, offset: 0x1DF4B, size: 0x8, addend: 0x0, symName: __ZSteqIN9__gnu_cxx17__normal_iteratorIPN6tinyrv10MemoryUnit8ADecoder7entry_tESt6vectorIS5_SaIS5_EEEEEbRKSt16reverse_iteratorIT_ESF_, symObjAddr: 0x3229, symBinAddr: 0x100006E03, symSize: 0x45 }
  - { offsetInCU: 0x1CECF, offset: 0x1DF53, size: 0x8, addend: 0x0, symName: __ZN9__gnu_cxx17__normal_iteratorIPN6tinyrv10MemoryUnit8ADecoder7entry_tESt6vectorIS4_SaIS4_EEEmmEv, symObjAddr: 0x326E, symBinAddr: 0x100006E48, symSize: 0x20 }
  - { offsetInCU: 0x1CE17, offset: 0x1DE9B, size: 0x8, addend: 0x0, symName: __ZNSt6vectorIN6tinyrv10MemoryUnit8ADecoder7entry_tESaIS3_EE5beginEv, symObjAddr: 0x3204, symBinAddr: 0x100006DDE, symSize: 0x25 }
  - { offsetInCU: 0x1CE1F, offset: 0x1DEA3, size: 0x8, addend: 0x0, symName: __ZSteqIN9__gnu_cxx17__normal_iteratorIPN6tinyrv10MemoryUnit8ADecoder7entry_tESt6vectorIS5_SaIS5_EEEEEbRKSt16reverse_iteratorIT_ESF_, symObjAddr: 0x3229, symBinAddr: 0x100006E03, symSize: 0x45 }
  - { offsetInCU: 0x1CEEC, offset: 0x1DF70, size: 0x8, addend: 0x0, symName: __ZNSt16reverse_iteratorIN9__gnu_cxx17__normal_iteratorIPN6tinyrv10MemoryUnit8ADecoder7entry_tESt6vectorIS5_SaIS5_EEEEEC1ESA_, symObjAddr: 0x31EA, symBinAddr: 0x100006DC4, symSize: 0x1A }
  - { offsetInCU: 0x1CEF4, offset: 0x1DF78, size: 0x8, addend: 0x0, symName: __ZNSt6vectorIN6tinyrv10MemoryUnit8ADecoder7entry_tESaIS3_EE5beginEv, symObjAddr: 0x3204, symBinAddr: 0x100006DDE, symSize: 0x25 }
  - { offsetInCU: 0x1CEA9, offset: 0x1DF2D, size: 0x8, addend: 0x0, symName: __ZNSt6vectorIN6tinyrv10MemoryUnit8ADecoder7entry_tESaIS3_EE3endEv, symObjAddr: 0x31C0, symBinAddr: 0x100006D9A, symSize: 0x2A }
  - { offsetInCU: 0x1CED8, offset: 0x1DF5C, size: 0x8, addend: 0x0, symName: __ZNKSt6vectorIhSaIhEE11_M_data_ptrIhEEPT_S4_, symObjAddr: 0x31AE, symBinAddr: 0x100006D88, symSize: 0x12 }
  - { offsetInCU: 0x1CEE0, offset: 0x1DF64, size: 0x8, addend: 0x0, symName: __ZNSt6vectorIN6tinyrv10MemoryUnit8ADecoder7entry_tESaIS3_EE3endEv, symObjAddr: 0x31C0, symBinAddr: 0x100006D9A, symSize: 0x2A }
  - { offsetInCU: 0x1CF28, offset: 0x1DFAC, size: 0x8, addend: 0x0, symName: __ZNSt6vectorIhSaIhEE21_M_default_initializeEm, symObjAddr: 0x316E, symBinAddr: 0x100006D48, symSize: 0x40 }
  - { offsetInCU: 0x1CF30, offset: 0x1DFB4, size: 0x8, addend: 0x0, symName: __ZNKSt6vectorIhSaIhEE11_M_data_ptrIhEEPT_S4_, symObjAddr: 0x31AE, symBinAddr: 0x100006D88, symSize: 0x12 }
  - { offsetInCU: 0x1CFCB, offset: 0x1E04F, size: 0x8, addend: 0x0, symName: __ZNSt12_Vector_baseIhSaIhEEC2EmRKS0_, symObjAddr: 0x3110, symBinAddr: 0x100006CEA, symSize: 0x5E }
  - { offsetInCU: 0x1CFEC, offset: 0x1E070, size: 0x8, addend: 0x0, symName: __ZNSt6vectorIhSaIhEE17_S_check_init_lenEmRKS0_, symObjAddr: 0x30A8, symBinAddr: 0x100006C82, symSize: 0x68 }
  - { offsetInCU: 0x1CFF4, offset: 0x1E078, size: 0x8, addend: 0x0, symName: __ZNSt12_Vector_baseIhSaIhEEC2EmRKS0_, symObjAddr: 0x3110, symBinAddr: 0x100006CEA, symSize: 0x5E }
  - { offsetInCU: 0x1D0D1, offset: 0x1E155, size: 0x8, addend: 0x0, symName: __ZNSt6vectorIhSaIhEE12emplace_backIJhEEEvDpOT_, symObjAddr: 0x2FC6, symBinAddr: 0x100006BA0, symSize: 0xE2 }
  - { offsetInCU: 0x1D0D9, offset: 0x1E15D, size: 0x8, addend: 0x0, symName: __ZNSt6vectorIhSaIhEE17_S_check_init_lenEmRKS0_, symObjAddr: 0x30A8, symBinAddr: 0x100006C82, symSize: 0x68 }
  - { offsetInCU: 0x1D1EB, offset: 0x1E26F, size: 0x8, addend: 0x0, symName: __ZSt4moveIRhEONSt16remove_referenceIT_E4typeEOS2_, symObjAddr: 0x2FB8, symBinAddr: 0x100006B92, symSize: 0xE }
  - { offsetInCU: 0x1D1F3, offset: 0x1E277, size: 0x8, addend: 0x0, symName: __ZNSt6vectorIhSaIhEE12emplace_backIJhEEEvDpOT_, symObjAddr: 0x2FC6, symBinAddr: 0x100006BA0, symSize: 0xE2 }
  - { offsetInCU: 0x1D1F4, offset: 0x1E278, size: 0x8, addend: 0x0, symName: __ZNSt12_Vector_baseIhSaIhEE13_M_deallocateEPhm, symObjAddr: 0x2F6A, symBinAddr: 0x100006B44, symSize: 0x4E }
  - { offsetInCU: 0x1D1FC, offset: 0x1E280, size: 0x8, addend: 0x0, symName: __ZSt4moveIRhEONSt16remove_referenceIT_E4typeEOS2_, symObjAddr: 0x2FB8, symBinAddr: 0x100006B92, symSize: 0xE }
  - { offsetInCU: 0x1D2CF, offset: 0x1E353, size: 0x8, addend: 0x0, symName: __ZNSt15__new_allocatorIhED2Ev, symObjAddr: 0x2F5E, symBinAddr: 0x100006B38, symSize: 0xC }
  - { offsetInCU: 0x1D32B, offset: 0x1E3AF, size: 0x8, addend: 0x0, symName: __ZNSt12_Vector_baseIhSaIhEE17_Vector_impl_dataC2Ev, symObjAddr: 0x2F30, symBinAddr: 0x100006B0A, symSize: 0x2E }
  - { offsetInCU: 0x1D333, offset: 0x1E3B7, size: 0x8, addend: 0x0, symName: __ZNSt15__new_allocatorIhED2Ev, symObjAddr: 0x2F5E, symBinAddr: 0x100006B38, symSize: 0xC }
  - { offsetInCU: 0x1D36B, offset: 0x1E3EF, size: 0x8, addend: 0x0, symName: __ZNSt15__new_allocatorIcED2Ev, symObjAddr: 0x2F24, symBinAddr: 0x100006AFE, symSize: 0xC }
  - { offsetInCU: 0x1D3EA, offset: 0x1E46E, size: 0x8, addend: 0x0, symName: __ZNSt12_Vector_baseIN6tinyrv10MemoryUnit8ADecoder7entry_tESaIS3_EE19_M_get_Tp_allocatorEv, symObjAddr: 0x2F16, symBinAddr: 0x100006AF0, symSize: 0xE }
  - { offsetInCU: 0x1D3F2, offset: 0x1E476, size: 0x8, addend: 0x0, symName: __ZNSt15__new_allocatorIcED2Ev, symObjAddr: 0x2F24, symBinAddr: 0x100006AFE, symSize: 0xC }
  - { offsetInCU: 0x1D419, offset: 0x1E49D, size: 0x8, addend: 0x0, symName: __ZNSt12_Vector_baseIN6tinyrv10MemoryUnit8ADecoder7entry_tESaIS3_EE13_M_deallocateEPS3_m, symObjAddr: 0x2EC8, symBinAddr: 0x100006AA2, symSize: 0x4E }
  - { offsetInCU: 0x1D421, offset: 0x1E4A5, size: 0x8, addend: 0x0, symName: __ZNSt12_Vector_baseIN6tinyrv10MemoryUnit8ADecoder7entry_tESaIS3_EE19_M_get_Tp_allocatorEv, symObjAddr: 0x2F16, symBinAddr: 0x100006AF0, symSize: 0xE }
  - { offsetInCU: 0x1D519, offset: 0x1E59D, size: 0x8, addend: 0x0, symName: __ZNSt15__new_allocatorIN6tinyrv10MemoryUnit8ADecoder7entry_tEED2Ev, symObjAddr: 0x2EBC, symBinAddr: 0x100006A96, symSize: 0xC }
  - { offsetInCU: 0x1D577, offset: 0x1E5FB, size: 0x8, addend: 0x0, symName: __ZNSt12_Vector_baseIN6tinyrv10MemoryUnit8ADecoder7entry_tESaIS3_EE17_Vector_impl_dataC2Ev, symObjAddr: 0x2E8E, symBinAddr: 0x100006A68, symSize: 0x2E }
  - { offsetInCU: 0x1D57F, offset: 0x1E603, size: 0x8, addend: 0x0, symName: __ZNSt15__new_allocatorIN6tinyrv10MemoryUnit8ADecoder7entry_tEED2Ev, symObjAddr: 0x2EBC, symBinAddr: 0x100006A96, symSize: 0xC }
  - { offsetInCU: 0x1D564, offset: 0x1E5E8, size: 0x8, addend: 0x0, symName: __ZNSt10_HashtableIySt4pairIKyN6tinyrv10MemoryUnit8TLBEntryEESaIS5_ENSt8__detail10_Select1stESt8equal_toIyESt4hashIyENS7_18_Mod_range_hashingENS7_20_Default_ranged_hashENS7_20_Prime_rehash_policyENS7_17_Hashtable_traitsILb0ELb0ELb1EEEE5clearEv, symObjAddr: 0x2E24, symBinAddr: 0x1000069FE, symSize: 0x6A }
  - { offsetInCU: 0x1D5E9, offset: 0x1E66D, size: 0x8, addend: 0x0, symName: __ZNSt12_Vector_baseIhSaIhEE19_M_get_Tp_allocatorEv, symObjAddr: 0x2E16, symBinAddr: 0x1000069F0, symSize: 0xE }
  - { offsetInCU: 0x1D5F1, offset: 0x1E675, size: 0x8, addend: 0x0, symName: __ZNSt10_HashtableIySt4pairIKyN6tinyrv10MemoryUnit8TLBEntryEESaIS5_ENSt8__detail10_Select1stESt8equal_toIyESt4hashIyENS7_18_Mod_range_hashingENS7_20_Default_ranged_hashENS7_20_Prime_rehash_policyENS7_17_Hashtable_traitsILb0ELb0ELb1EEEE5clearEv, symObjAddr: 0x2E24, symBinAddr: 0x1000069FE, symSize: 0x6A }
  - { offsetInCU: 0x1D618, offset: 0x1E69C, size: 0x8, addend: 0x0, symName: __ZNSt6vectorIcSaIcEE4dataEv, symObjAddr: 0x2DE4, symBinAddr: 0x1000069CC, symSize: 0x24 }
  - { offsetInCU: 0x1D687, offset: 0x1E70B, size: 0x8, addend: 0x0, symName: __ZNSt6vectorIcSaIcEED1Ev, symObjAddr: 0x2D8E, symBinAddr: 0x100006976, symSize: 0x56 }
  - { offsetInCU: 0x1D68F, offset: 0x1E713, size: 0x8, addend: 0x0, symName: __ZNSt6vectorIcSaIcEE4dataEv, symObjAddr: 0x2DE4, symBinAddr: 0x1000069CC, symSize: 0x24 }
  - { offsetInCU: 0x1D733, offset: 0x1E7B7, size: 0x8, addend: 0x0, symName: __ZNSt6vectorIcSaIcEEC1EmRKS0_, symObjAddr: 0x2D18, symBinAddr: 0x100006900, symSize: 0x76 }
  - { offsetInCU: 0x1D73B, offset: 0x1E7BF, size: 0x8, addend: 0x0, symName: __ZNSt6vectorIcSaIcEED1Ev, symObjAddr: 0x2D8E, symBinAddr: 0x100006976, symSize: 0x56 }
  - { offsetInCU: 0x1D75B, offset: 0x1E7DF, size: 0x8, addend: 0x0, symName: __ZNKSt4fposI11__mbstate_tEcvxEv, symObjAddr: 0x2D06, symBinAddr: 0x1000068EE, symSize: 0x12 }
  - { offsetInCU: 0x1D78A, offset: 0x1E80E, size: 0x8, addend: 0x0, symName: __ZNSt13unordered_mapIyPhSt4hashIyESt8equal_toIyESaISt4pairIKyS0_EEE7emplaceIJRyRS0_EEES5_INSt8__detail14_Node_iteratorIS7_Lb0ELb0EEEbEDpOT_, symObjAddr: 0x2CB8, symBinAddr: 0x1000068A0, symSize: 0x4E }
  - { offsetInCU: 0x1D7EF, offset: 0x1E873, size: 0x8, addend: 0x0, symName: __ZNKSt8__detail14_Node_iteratorISt4pairIKyPhELb0ELb0EEptEv, symObjAddr: 0x2C96, symBinAddr: 0x10000687E, symSize: 0x22 }
  - { offsetInCU: 0x1D81E, offset: 0x1E8A2, size: 0x8, addend: 0x0, symName: __ZNSt13unordered_mapIyPhSt4hashIyESt8equal_toIyESaISt4pairIKyS0_EEE4findERS6_, symObjAddr: 0x2C70, symBinAddr: 0x100006858, symSize: 0x26 }
  - { offsetInCU: 0x1D861, offset: 0x1E8E5, size: 0x8, addend: 0x0, symName: __ZNKSt13unordered_mapIyPhSt4hashIyESt8equal_toIyESaISt4pairIKyS0_EEE4sizeEv, symObjAddr: 0x2C56, symBinAddr: 0x10000683E, symSize: 0x1A }
  - { offsetInCU: 0x1D869, offset: 0x1E8ED, size: 0x8, addend: 0x0, symName: __ZNSt13unordered_mapIyPhSt4hashIyESt8equal_toIyESaISt4pairIKyS0_EEE4findERS6_, symObjAddr: 0x2C70, symBinAddr: 0x100006858, symSize: 0x26 }
  - { offsetInCU: 0x1D890, offset: 0x1E914, size: 0x8, addend: 0x0, symName: __ZNKSt8__detail14_Node_iteratorISt4pairIKyPhELb0ELb0EEdeEv, symObjAddr: 0x2C34, symBinAddr: 0x10000681C, symSize: 0x22 }
  - { offsetInCU: 0x1D8BF, offset: 0x1E943, size: 0x8, addend: 0x0, symName: __ZNSt8__detail14_Node_iteratorISt4pairIKyPhELb0ELb0EEppEv, symObjAddr: 0x2C16, symBinAddr: 0x1000067FE, symSize: 0x1E }
  - { offsetInCU: 0x1D8C7, offset: 0x1E94B, size: 0x8, addend: 0x0, symName: __ZNKSt8__detail14_Node_iteratorISt4pairIKyPhELb0ELb0EEdeEv, symObjAddr: 0x2C34, symBinAddr: 0x10000681C, symSize: 0x22 }
  - { offsetInCU: 0x1D93A, offset: 0x1E9BE, size: 0x8, addend: 0x0, symName: __ZNSt8__detailneERKNS_19_Node_iterator_baseISt4pairIKyPhELb0EEES7_, symObjAddr: 0x2BF4, symBinAddr: 0x1000067DC, symSize: 0x22 }
  - { offsetInCU: 0x1D942, offset: 0x1E9C6, size: 0x8, addend: 0x0, symName: __ZNSt8__detail14_Node_iteratorISt4pairIKyPhELb0ELb0EEppEv, symObjAddr: 0x2C16, symBinAddr: 0x1000067FE, symSize: 0x1E }
  - { offsetInCU: 0x1D94B, offset: 0x1E9CF, size: 0x8, addend: 0x0, symName: __ZNSt13unordered_mapIyPhSt4hashIyESt8equal_toIyESaISt4pairIKyS0_EEE3endEv, symObjAddr: 0x2BDA, symBinAddr: 0x1000067C2, symSize: 0x1A }
  - { offsetInCU: 0x1D953, offset: 0x1E9D7, size: 0x8, addend: 0x0, symName: __ZNSt8__detailneERKNS_19_Node_iterator_baseISt4pairIKyPhELb0EEES7_, symObjAddr: 0x2BF4, symBinAddr: 0x1000067DC, symSize: 0x22 }
  - { offsetInCU: 0x1D97A, offset: 0x1E9FE, size: 0x8, addend: 0x0, symName: __ZNSt13unordered_mapIyPhSt4hashIyESt8equal_toIyESaISt4pairIKyS0_EEE5beginEv, symObjAddr: 0x2BC0, symBinAddr: 0x1000067A8, symSize: 0x1A }
  - { offsetInCU: 0x1D982, offset: 0x1EA06, size: 0x8, addend: 0x0, symName: __ZNSt13unordered_mapIyPhSt4hashIyESt8equal_toIyESaISt4pairIKyS0_EEE3endEv, symObjAddr: 0x2BDA, symBinAddr: 0x1000067C2, symSize: 0x1A }
  - { offsetInCU: 0x1DAA3, offset: 0x1EB27, size: 0x8, addend: 0x0, symName: __ZNSt10_HashtableIySt4pairIKyPhESaIS3_ENSt8__detail10_Select1stESt8equal_toIyESt4hashIyENS5_18_Mod_range_hashingENS5_20_Default_ranged_hashENS5_20_Prime_rehash_policyENS5_17_Hashtable_traitsILb0ELb0ELb1EEEED1Ev, symObjAddr: 0x2B8C, symBinAddr: 0x100006774, symSize: 0x34 }
  - { offsetInCU: 0x1DA99, offset: 0x1EB1D, size: 0x8, addend: 0x0, symName: __ZNSt8__detail21_Hashtable_ebo_helperILi0ESaINS_10_Hash_nodeISt4pairIKyPhELb0EEEELb1EEC2Ev, symObjAddr: 0x2B6E, symBinAddr: 0x100006756, symSize: 0x1E }
  - { offsetInCU: 0x1DAB8, offset: 0x1EB3C, size: 0x8, addend: 0x0, symName: __ZNSt13unordered_mapIyN6tinyrv10MemoryUnit8TLBEntryESt4hashIyESt8equal_toIyESaISt4pairIKyS2_EEE5eraseENSt8__detail14_Node_iteratorIS9_Lb0ELb0EEE, symObjAddr: 0x2B48, symBinAddr: 0x100006730, symSize: 0x26 }
  - { offsetInCU: 0x1DAFB, offset: 0x1EB7F, size: 0x8, addend: 0x0, symName: __ZNKSt8__detail14_Node_iteratorISt4pairIKyN6tinyrv10MemoryUnit8TLBEntryEELb0ELb0EEptEv, symObjAddr: 0x2B26, symBinAddr: 0x10000670E, symSize: 0x22 }
  - { offsetInCU: 0x1DB92, offset: 0x1EC16, size: 0x8, addend: 0x0, symName: __ZNSt8__detailneERKNS_19_Node_iterator_baseISt4pairIKyN6tinyrv10MemoryUnit8TLBEntryEELb0EEES9_, symObjAddr: 0x2B04, symBinAddr: 0x1000066EC, symSize: 0x22 }
  - { offsetInCU: 0x1DB9A, offset: 0x1EC1E, size: 0x8, addend: 0x0, symName: __ZNKSt8__detail14_Node_iteratorISt4pairIKyN6tinyrv10MemoryUnit8TLBEntryEELb0ELb0EEptEv, symObjAddr: 0x2B26, symBinAddr: 0x10000670E, symSize: 0x22 }
  - { offsetInCU: 0x1DB87, offset: 0x1EC0B, size: 0x8, addend: 0x0, symName: __ZNSt13unordered_mapIyN6tinyrv10MemoryUnit8TLBEntryESt4hashIyESt8equal_toIyESaISt4pairIKyS2_EEE3endEv, symObjAddr: 0x2AEA, symBinAddr: 0x1000066D2, symSize: 0x1A }
  - { offsetInCU: 0x1DB8F, offset: 0x1EC13, size: 0x8, addend: 0x0, symName: __ZNSt8__detailneERKNS_19_Node_iterator_baseISt4pairIKyN6tinyrv10MemoryUnit8TLBEntryEELb0EEES9_, symObjAddr: 0x2B04, symBinAddr: 0x1000066EC, symSize: 0x22 }
  - { offsetInCU: 0x1DBB6, offset: 0x1EC3A, size: 0x8, addend: 0x0, symName: __ZNSt13unordered_mapIyN6tinyrv10MemoryUnit8TLBEntryESt4hashIyESt8equal_toIyESaISt4pairIKyS2_EEE4findERS8_, symObjAddr: 0x2AC4, symBinAddr: 0x1000066AC, symSize: 0x26 }
  - { offsetInCU: 0x1DBF9, offset: 0x1EC7D, size: 0x8, addend: 0x0, symName: __ZNSt13unordered_mapIyN6tinyrv10MemoryUnit8TLBEntryESt4hashIyESt8equal_toIyESaISt4pairIKyS2_EEEixEOy, symObjAddr: 0x2A94, symBinAddr: 0x10000667C, symSize: 0x30 }
  - { offsetInCU: 0x1DC01, offset: 0x1EC85, size: 0x8, addend: 0x0, symName: __ZNSt13unordered_mapIyN6tinyrv10MemoryUnit8TLBEntryESt4hashIyESt8equal_toIyESaISt4pairIKyS2_EEE4findERS8_, symObjAddr: 0x2AC4, symBinAddr: 0x1000066AC, symSize: 0x26 }
  - { offsetInCU: 0x1DD52, offset: 0x1EDD6, size: 0x8, addend: 0x0, symName: __ZNSt10_HashtableIySt4pairIKyN6tinyrv10MemoryUnit8TLBEntryEESaIS5_ENSt8__detail10_Select1stESt8equal_toIyESt4hashIyENS7_18_Mod_range_hashingENS7_20_Default_ranged_hashENS7_20_Prime_rehash_policyENS7_17_Hashtable_traitsILb0ELb0ELb1EEEED1Ev, symObjAddr: 0x2A60, symBinAddr: 0x100006648, symSize: 0x34 }
  - { offsetInCU: 0x1DD48, offset: 0x1EDCC, size: 0x8, addend: 0x0, symName: __ZNSt8__detail21_Hashtable_ebo_helperILi0ESaINS_10_Hash_nodeISt4pairIKyN6tinyrv10MemoryUnit8TLBEntryEELb0EEEELb1EEC2Ev, symObjAddr: 0x2A42, symBinAddr: 0x10000662A, symSize: 0x1E }
  - { offsetInCU: 0x1DDA6, offset: 0x1EE2A, size: 0x8, addend: 0x0, symName: __ZNSt8__detail21_Hashtable_ebo_helperILi0ESt8equal_toIyELb1EEC2Ev, symObjAddr: 0x2A36, symBinAddr: 0x10000661E, symSize: 0xC }
  - { offsetInCU: 0x1DDE9, offset: 0x1EE6D, size: 0x8, addend: 0x0, symName: __ZNSt8__detail21_Hashtable_ebo_helperILi1ESt4hashIyELb1EEC2Ev, symObjAddr: 0x2A2A, symBinAddr: 0x100006612, symSize: 0xC }
  - { offsetInCU: 0x1DDD9, offset: 0x1EE5D, size: 0x8, addend: 0x0, symName: __ZNSt6vectorIN6tinyrv10MemoryUnit8ADecoder7entry_tESaIS3_EE12emplace_backIJRS3_EEEvDpOT_, symObjAddr: 0x2936, symBinAddr: 0x10000651E, symSize: 0xF4 }
  - { offsetInCU: 0x1DEA8, offset: 0x1EF2C, size: 0x8, addend: 0x0, symName: __ZNKSt16reverse_iteratorIN9__gnu_cxx17__normal_iteratorIPN6tinyrv10MemoryUnit8ADecoder7entry_tESt6vectorIS5_SaIS5_EEEEEptEv, symObjAddr: 0x2904, symBinAddr: 0x1000064EC, symSize: 0x32 }
  - { offsetInCU: 0x1DEEB, offset: 0x1EF6F, size: 0x8, addend: 0x0, symName: __ZNSt16reverse_iteratorIN9__gnu_cxx17__normal_iteratorIPN6tinyrv10MemoryUnit8ADecoder7entry_tESt6vectorIS5_SaIS5_EEEEEppEv, symObjAddr: 0x28E6, symBinAddr: 0x1000064CE, symSize: 0x1E }
  - { offsetInCU: 0x1DEF3, offset: 0x1EF77, size: 0x8, addend: 0x0, symName: __ZNKSt16reverse_iteratorIN9__gnu_cxx17__normal_iteratorIPN6tinyrv10MemoryUnit8ADecoder7entry_tESt6vectorIS5_SaIS5_EEEEEptEv, symObjAddr: 0x2904, symBinAddr: 0x1000064EC, symSize: 0x32 }
  - { offsetInCU: 0x1E02A, offset: 0x1F0AE, size: 0x8, addend: 0x0, symName: __ZStneIN9__gnu_cxx17__normal_iteratorIPN6tinyrv10MemoryUnit8ADecoder7entry_tESt6vectorIS5_SaIS5_EEEEEbRKSt16reverse_iteratorIT_ESF_, symObjAddr: 0x28BE, symBinAddr: 0x1000064A6, symSize: 0x28 }
  - { offsetInCU: 0x1E032, offset: 0x1F0B6, size: 0x8, addend: 0x0, symName: __ZNSt16reverse_iteratorIN9__gnu_cxx17__normal_iteratorIPN6tinyrv10MemoryUnit8ADecoder7entry_tESt6vectorIS5_SaIS5_EEEEEppEv, symObjAddr: 0x28E6, symBinAddr: 0x1000064CE, symSize: 0x1E }
  - { offsetInCU: 0x1DF7A, offset: 0x1EFFE, size: 0x8, addend: 0x0, symName: __ZNSt6vectorIN6tinyrv10MemoryUnit8ADecoder7entry_tESaIS3_EE4rendEv, symObjAddr: 0x288A, symBinAddr: 0x100006472, symSize: 0x34 }
  - { offsetInCU: 0x1DF82, offset: 0x1F006, size: 0x8, addend: 0x0, symName: __ZStneIN9__gnu_cxx17__normal_iteratorIPN6tinyrv10MemoryUnit8ADecoder7entry_tESt6vectorIS5_SaIS5_EEEEEbRKSt16reverse_iteratorIT_ESF_, symObjAddr: 0x28BE, symBinAddr: 0x1000064A6, symSize: 0x28 }
  - { offsetInCU: 0x1DFA9, offset: 0x1F02D, size: 0x8, addend: 0x0, symName: __ZNSt6vectorIN6tinyrv10MemoryUnit8ADecoder7entry_tESaIS3_EE6rbeginEv, symObjAddr: 0x2856, symBinAddr: 0x10000643E, symSize: 0x34 }
  - { offsetInCU: 0x1DFB1, offset: 0x1F035, size: 0x8, addend: 0x0, symName: __ZNSt6vectorIN6tinyrv10MemoryUnit8ADecoder7entry_tESaIS3_EE4rendEv, symObjAddr: 0x288A, symBinAddr: 0x100006472, symSize: 0x34 }
  - { offsetInCU: 0x1DFD8, offset: 0x1F05C, size: 0x8, addend: 0x0, symName: __ZNSt6vectorIhSaIhEE4dataEv, symObjAddr: 0x2832, symBinAddr: 0x10000641A, symSize: 0x24 }
  - { offsetInCU: 0x1DFE0, offset: 0x1F064, size: 0x8, addend: 0x0, symName: __ZNSt6vectorIN6tinyrv10MemoryUnit8ADecoder7entry_tESaIS3_EE6rbeginEv, symObjAddr: 0x2856, symBinAddr: 0x10000643E, symSize: 0x34 }
  - { offsetInCU: 0x1E060, offset: 0x1F0E4, size: 0x8, addend: 0x0, symName: __ZNSt6vectorIhSaIhEEC1EmRKS0_, symObjAddr: 0x27BC, symBinAddr: 0x1000063A4, symSize: 0x76 }
  - { offsetInCU: 0x1E068, offset: 0x1F0EC, size: 0x8, addend: 0x0, symName: __ZNSt6vectorIhSaIhEE4dataEv, symObjAddr: 0x2832, symBinAddr: 0x10000641A, symSize: 0x24 }
  - { offsetInCU: 0x1E0A1, offset: 0x1F125, size: 0x8, addend: 0x0, symName: __ZNSt6vectorIhSaIhEE9push_backEOh, symObjAddr: 0x278A, symBinAddr: 0x100006372, symSize: 0x32 }
  - { offsetInCU: 0x1E1D5, offset: 0x1F259, size: 0x8, addend: 0x0, symName: __ZNSt12_Vector_baseIhSaIhEED2Ev, symObjAddr: 0x2746, symBinAddr: 0x10000632E, symSize: 0x44 }
  - { offsetInCU: 0x1E251, offset: 0x1F2D5, size: 0x8, addend: 0x0, symName: __ZNSt12_Vector_baseIhSaIhEE12_Vector_implC1Ev, symObjAddr: 0x2718, symBinAddr: 0x100006300, symSize: 0x2E }
  - { offsetInCU: 0x1E344, offset: 0x1F3C8, size: 0x8, addend: 0x0, symName: __ZNSt6vectorIN6tinyrv10MemoryUnit8ADecoder7entry_tESaIS3_EED1Ev, symObjAddr: 0x26C2, symBinAddr: 0x1000062AA, symSize: 0x56 }
  - { offsetInCU: 0x1E34C, offset: 0x1F3D0, size: 0x8, addend: 0x0, symName: __ZNSt12_Vector_baseIhSaIhEE12_Vector_implC1Ev, symObjAddr: 0x2718, symBinAddr: 0x100006300, symSize: 0x2E }
  - { offsetInCU: 0x1E3DE, offset: 0x1F462, size: 0x8, addend: 0x0, symName: __ZNSt12_Vector_baseIN6tinyrv10MemoryUnit8ADecoder7entry_tESaIS3_EED2Ev, symObjAddr: 0x266A, symBinAddr: 0x100006252, symSize: 0x58 }
  - { offsetInCU: 0x1E3E6, offset: 0x1F46A, size: 0x8, addend: 0x0, symName: __ZNSt6vectorIN6tinyrv10MemoryUnit8ADecoder7entry_tESaIS3_EED1Ev, symObjAddr: 0x26C2, symBinAddr: 0x1000062AA, symSize: 0x56 }
  - { offsetInCU: 0x1E45A, offset: 0x1F4DE, size: 0x8, addend: 0x0, symName: __ZNSt12_Vector_baseIN6tinyrv10MemoryUnit8ADecoder7entry_tESaIS3_EE12_Vector_implC1Ev, symObjAddr: 0x263C, symBinAddr: 0x100006224, symSize: 0x2E }
  - { offsetInCU: 0x1E47F, offset: 0x1F503, size: 0x8, addend: 0x0, symName: __ZNKSt6vectorIhSaIhEE4sizeEv, symObjAddr: 0x261C, symBinAddr: 0x100006204, symSize: 0x20 }
  - { offsetInCU: 0x1E4EE, offset: 0x1F572, size: 0x8, addend: 0x0, symName: __ZNSt6vectorIhSaIhEED1Ev, symObjAddr: 0x25C6, symBinAddr: 0x1000061AE, symSize: 0x56 }
  - { offsetInCU: 0x1E4F6, offset: 0x1F57A, size: 0x8, addend: 0x0, symName: __ZNKSt6vectorIhSaIhEE4sizeEv, symObjAddr: 0x261C, symBinAddr: 0x100006204, symSize: 0x20 }
  - { offsetInCU: 0x1E573, offset: 0x1F5F7, size: 0x8, addend: 0x0, symName: __ZSt3maxImERKT_S2_S2_, symObjAddr: 0x259A, symBinAddr: 0x100006182, symSize: 0x2C }
  - { offsetInCU: 0x1E5A1, offset: 0x1F625, size: 0x8, addend: 0x0, symName: __ZN6tinyrv3RAM12loadHexImageEPKc, symObjAddr: 0x21DE, symBinAddr: 0x100005DF0, symSize: 0x391 }
  - { offsetInCU: 0x1E681, offset: 0x1F705, size: 0x8, addend: 0x0, symName: __ZZN6tinyrv3RAM12loadHexImageEPKcENKUlcE_clEc, symObjAddr: 0x2132, symBinAddr: 0x100005D44, symSize: 0x40 }
  - { offsetInCU: 0x1E689, offset: 0x1F70D, size: 0x8, addend: 0x0, symName: __ZZN6tinyrv3RAM12loadHexImageEPKcENKUlS2_jE_clES2_j, symObjAddr: 0x2172, symBinAddr: 0x100005D84, symSize: 0x6C }
  - { offsetInCU: 0x1E789, offset: 0x1F80D, size: 0x8, addend: 0x0, symName: __ZZN6tinyrv3RAM12loadHexImageEPKcENKUlS2_jE_clES2_j, symObjAddr: 0x2172, symBinAddr: 0x100005D84, symSize: 0x6C }
  - { offsetInCU: 0x1E791, offset: 0x1F815, size: 0x8, addend: 0x0, symName: __ZN6tinyrv3RAM12loadHexImageEPKc, symObjAddr: 0x21DE, symBinAddr: 0x100005DF0, symSize: 0x391 }
  - { offsetInCU: 0x1EA3E, offset: 0x1FAC2, size: 0x8, addend: 0x0, symName: __ZN6tinyrv3RAM12loadBinImageEPKcy, symObjAddr: 0x1F14, symBinAddr: 0x100005B26, symSize: 0x21E }
  - { offsetInCU: 0x1EA46, offset: 0x1FACA, size: 0x8, addend: 0x0, symName: __ZZN6tinyrv3RAM12loadHexImageEPKcENKUlcE_clEc, symObjAddr: 0x2132, symBinAddr: 0x100005D44, symSize: 0x40 }
  - { offsetInCU: 0x1EB65, offset: 0x1FBE9, size: 0x8, addend: 0x0, symName: __ZN6tinyrv3RAM5writeEPKvyy, symObjAddr: 0x1EA4, symBinAddr: 0x100005AB6, symSize: 0x70 }
  - { offsetInCU: 0x1EB6D, offset: 0x1FBF1, size: 0x8, addend: 0x0, symName: __ZN6tinyrv3RAM12loadBinImageEPKcy, symObjAddr: 0x1F14, symBinAddr: 0x100005B26, symSize: 0x21E }
  - { offsetInCU: 0x1EC13, offset: 0x1FC97, size: 0x8, addend: 0x0, symName: __ZN6tinyrv3RAM4readEPvyy, symObjAddr: 0x1E3C, symBinAddr: 0x100005A4E, symSize: 0x68 }
  - { offsetInCU: 0x1ECB3, offset: 0x1FD37, size: 0x8, addend: 0x0, symName: __ZNK6tinyrv3RAM3getEy, symObjAddr: 0x1C9A, symBinAddr: 0x1000058AC, symSize: 0x1A2 }
  - { offsetInCU: 0x1ECBB, offset: 0x1FD3F, size: 0x8, addend: 0x0, symName: __ZN6tinyrv3RAM4readEPvyy, symObjAddr: 0x1E3C, symBinAddr: 0x100005A4E, symSize: 0x68 }
  - { offsetInCU: 0x1EDB3, offset: 0x1FE37, size: 0x8, addend: 0x0, symName: __ZNK6tinyrv3RAM4sizeEv, symObjAddr: 0x1C6A, symBinAddr: 0x10000587C, symSize: 0x30 }
  - { offsetInCU: 0x1EDBB, offset: 0x1FE3F, size: 0x8, addend: 0x0, symName: __ZNK6tinyrv3RAM3getEy, symObjAddr: 0x1C9A, symBinAddr: 0x1000058AC, symSize: 0x1A2 }
  - { offsetInCU: 0x1EDE2, offset: 0x1FE66, size: 0x8, addend: 0x0, symName: __ZN6tinyrv3RAM5clearEv, symObjAddr: 0x1BDC, symBinAddr: 0x1000057EE, symSize: 0x8E }
  - { offsetInCU: 0x1EDEA, offset: 0x1FE6E, size: 0x8, addend: 0x0, symName: __ZNK6tinyrv3RAM4sizeEv, symObjAddr: 0x1C6A, symBinAddr: 0x10000587C, symSize: 0x30 }
  - { offsetInCU: 0x1EEA3, offset: 0x1FF27, size: 0x8, addend: 0x0, symName: __ZN6tinyrv3RAMD0Ev, symObjAddr: 0x1BB6, symBinAddr: 0x1000057C8, symSize: 0x26 }
  - { offsetInCU: 0x1EEAB, offset: 0x1FF2F, size: 0x8, addend: 0x0, symName: __ZN6tinyrv3RAM5clearEv, symObjAddr: 0x1BDC, symBinAddr: 0x1000057EE, symSize: 0x8E }
  - { offsetInCU: 0x1EED1, offset: 0x1FF55, size: 0x8, addend: 0x0, symName: __ZN6tinyrv3RAMD1Ev, symObjAddr: 0x1B70, symBinAddr: 0x100005782, symSize: 0x46 }
  - { offsetInCU: 0x1EEFF, offset: 0x1FF83, size: 0x8, addend: 0x0, symName: __ZN6tinyrv3RAMD2Ev, symObjAddr: 0x1B2A, symBinAddr: 0x10000573C, symSize: 0x46 }
  - { offsetInCU: 0x1EF93, offset: 0x20017, size: 0x8, addend: 0x0, symName: __ZN6tinyrv3RAMC1Ejy, symObjAddr: 0x199E, symBinAddr: 0x1000055B0, symSize: 0x18C }
  - { offsetInCU: 0x1EFED, offset: 0x20071, size: 0x8, addend: 0x0, symName: __ZN6tinyrv3RAMC2Ejy, symObjAddr: 0x1812, symBinAddr: 0x100005424, symSize: 0x18C }
  - { offsetInCU: 0x1F0A6, offset: 0x2012A, size: 0x8, addend: 0x0, symName: __ZNSt13unordered_mapIyPhSt4hashIyESt8equal_toIyESaISt4pairIKyS0_EEED1Ev, symObjAddr: 0x17F6, symBinAddr: 0x100005408, symSize: 0x1C }
  - { offsetInCU: 0x1F0ED, offset: 0x20171, size: 0x8, addend: 0x0, symName: __ZNSt13unordered_mapIyPhSt4hashIyESt8equal_toIyESaISt4pairIKyS0_EEEC1Ev, symObjAddr: 0x17DA, symBinAddr: 0x1000053EC, symSize: 0x1C }
  - { offsetInCU: 0x1F1BF, offset: 0x20243, size: 0x8, addend: 0x0, symName: __ZNSt10_HashtableIySt4pairIKyPhESaIS3_ENSt8__detail10_Select1stESt8equal_toIyESt4hashIyENS5_18_Mod_range_hashingENS5_20_Default_ranged_hashENS5_20_Prime_rehash_policyENS5_17_Hashtable_traitsILb0ELb0ELb1EEEEC1Ev, symObjAddr: 0x1756, symBinAddr: 0x100005368, symSize: 0x84 }
  - { offsetInCU: 0x1F1C7, offset: 0x2024B, size: 0x8, addend: 0x0, symName: __ZNSt13unordered_mapIyPhSt4hashIyESt8equal_toIyESaISt4pairIKyS0_EEEC1Ev, symObjAddr: 0x17DA, symBinAddr: 0x1000053EC, symSize: 0x1C }
  - { offsetInCU: 0x1F193, offset: 0x20217, size: 0x8, addend: 0x0, symName: __ZNSt8__detail16_Hashtable_allocISaINS_10_Hash_nodeISt4pairIKyPhELb0EEEEED2Ev, symObjAddr: 0x173A, symBinAddr: 0x10000534C, symSize: 0x1C }
  - { offsetInCU: 0x1F1DA, offset: 0x2025E, size: 0x8, addend: 0x0, symName: __ZNSt8__detail16_Hashtable_allocISaINS_10_Hash_nodeISt4pairIKyPhELb0EEEEEC2Ev, symObjAddr: 0x171E, symBinAddr: 0x100005330, symSize: 0x1C }
  - { offsetInCU: 0x1F240, offset: 0x202C4, size: 0x8, addend: 0x0, symName: __ZNSt8__detail21_Hashtable_ebo_helperILi0ESaINS_10_Hash_nodeISt4pairIKyPhELb0EEEELb1EED2Ev, symObjAddr: 0x16FA, symBinAddr: 0x10000530C, symSize: 0x24 }
  - { offsetInCU: 0x1F248, offset: 0x202CC, size: 0x8, addend: 0x0, symName: __ZNSt8__detail16_Hashtable_allocISaINS_10_Hash_nodeISt4pairIKyPhELb0EEEEEC2Ev, symObjAddr: 0x171E, symBinAddr: 0x100005330, symSize: 0x1C }
  - { offsetInCU: 0x1F305, offset: 0x20389, size: 0x8, addend: 0x0, symName: __ZNSt8__detail15_Hashtable_baseIySt4pairIKyPhENS_10_Select1stESt8equal_toIyESt4hashIyENS_18_Mod_range_hashingENS_20_Default_ranged_hashENS_17_Hashtable_traitsILb0ELb0ELb1EEEEC2Ev, symObjAddr: 0x16D2, symBinAddr: 0x1000052E4, symSize: 0x28 }
  - { offsetInCU: 0x1F31D, offset: 0x203A1, size: 0x8, addend: 0x0, symName: __ZNSt8__detail15_Hash_code_baseIySt4pairIKyPhENS_10_Select1stESt4hashIyENS_18_Mod_range_hashingENS_20_Default_ranged_hashELb0EEC2Ev, symObjAddr: 0x16B6, symBinAddr: 0x1000052C8, symSize: 0x1C }
  - { offsetInCU: 0x1F2CA, offset: 0x2034E, size: 0x8, addend: 0x0, symName: __ZN6tinyrv10MemoryUnit5tlbRmEy, symObjAddr: 0x160E, symBinAddr: 0x100005220, symSize: 0xA8 }
  - { offsetInCU: 0x1F2D2, offset: 0x20356, size: 0x8, addend: 0x0, symName: __ZNSt8__detail15_Hash_code_baseIySt4pairIKyPhENS_10_Select1stESt4hashIyENS_18_Mod_range_hashingENS_20_Default_ranged_hashELb0EEC2Ev, symObjAddr: 0x16B6, symBinAddr: 0x1000052C8, symSize: 0x1C }
  - { offsetInCU: 0x1F312, offset: 0x20396, size: 0x8, addend: 0x0, symName: __ZN6tinyrv10MemoryUnit6tlbAddEyyj, symObjAddr: 0x159A, symBinAddr: 0x1000051AC, symSize: 0x74 }
  - { offsetInCU: 0x1F37E, offset: 0x20402, size: 0x8, addend: 0x0, symName: __ZN6tinyrv10MemoryUnit9amo_checkEy, symObjAddr: 0x1546, symBinAddr: 0x100005158, symSize: 0x54 }
  - { offsetInCU: 0x1F386, offset: 0x2040A, size: 0x8, addend: 0x0, symName: __ZN6tinyrv10MemoryUnit6tlbAddEyyj, symObjAddr: 0x159A, symBinAddr: 0x1000051AC, symSize: 0x74 }
  - { offsetInCU: 0x1F3D7, offset: 0x2045B, size: 0x8, addend: 0x0, symName: __ZN6tinyrv10MemoryUnit11amo_reserveEy, symObjAddr: 0x1502, symBinAddr: 0x100005114, symSize: 0x44 }
  - { offsetInCU: 0x1F430, offset: 0x204B4, size: 0x8, addend: 0x0, symName: __ZN6tinyrv10MemoryUnit5writeEPKvyyb, symObjAddr: 0x1494, symBinAddr: 0x1000050A6, symSize: 0x6E }
  - { offsetInCU: 0x1F438, offset: 0x204BC, size: 0x8, addend: 0x0, symName: __ZN6tinyrv10MemoryUnit11amo_reserveEy, symObjAddr: 0x1502, symBinAddr: 0x100005114, symSize: 0x44 }
  - { offsetInCU: 0x1F4C3, offset: 0x20547, size: 0x8, addend: 0x0, symName: __ZN6tinyrv10MemoryUnit4readEPvyyb, symObjAddr: 0x142E, symBinAddr: 0x100005040, symSize: 0x66 }
  - { offsetInCU: 0x1F4CB, offset: 0x2054F, size: 0x8, addend: 0x0, symName: __ZN6tinyrv10MemoryUnit5writeEPKvyyb, symObjAddr: 0x1494, symBinAddr: 0x1000050A6, symSize: 0x6E }
  - { offsetInCU: 0x1F556, offset: 0x205DA, size: 0x8, addend: 0x0, symName: __ZN6tinyrv10MemoryUnit9toPhyAddrEyj, symObjAddr: 0x13B2, symBinAddr: 0x100004FC4, symSize: 0x7C }
  - { offsetInCU: 0x1F5E7, offset: 0x2066B, size: 0x8, addend: 0x0, symName: __ZN6tinyrv10MemoryUnit9tlbLookupEyj, symObjAddr: 0x12A4, symBinAddr: 0x100004EB6, symSize: 0x10E }
  - { offsetInCU: 0x1F656, offset: 0x206DA, size: 0x8, addend: 0x0, symName: __ZN6tinyrv10MemoryUnit6attachERNS_9MemDeviceEyy, symObjAddr: 0x126C, symBinAddr: 0x100004E7E, symSize: 0x38 }
  - { offsetInCU: 0x1F707, offset: 0x2078B, size: 0x8, addend: 0x0, symName: __ZN6tinyrv10MemoryUnitC1Ey, symObjAddr: 0x119E, symBinAddr: 0x100004DB0, symSize: 0xCE }
  - { offsetInCU: 0x1F70F, offset: 0x20793, size: 0x8, addend: 0x0, symName: __ZN6tinyrv10MemoryUnit6attachERNS_9MemDeviceEyy, symObjAddr: 0x126C, symBinAddr: 0x100004E7E, symSize: 0x38 }
  - { offsetInCU: 0x1F741, offset: 0x207C5, size: 0x8, addend: 0x0, symName: __ZN6tinyrv10MemoryUnitC2Ey, symObjAddr: 0x10D0, symBinAddr: 0x100004CE2, symSize: 0xCE }
  - { offsetInCU: 0x1F749, offset: 0x207CD, size: 0x8, addend: 0x0, symName: __ZN6tinyrv10MemoryUnitC1Ey, symObjAddr: 0x119E, symBinAddr: 0x100004DB0, symSize: 0xCE }
  - { offsetInCU: 0x1F7AF, offset: 0x20833, size: 0x8, addend: 0x0, symName: __ZN6tinyrv10MemoryUnit8ADecoderD1Ev, symObjAddr: 0x10B4, symBinAddr: 0x100004CC6, symSize: 0x1C }
  - { offsetInCU: 0x1F848, offset: 0x208CC, size: 0x8, addend: 0x0, symName: __ZNSt13unordered_mapIyN6tinyrv10MemoryUnit8TLBEntryESt4hashIyESt8equal_toIyESaISt4pairIKyS2_EEED1Ev, symObjAddr: 0x1098, symBinAddr: 0x100004CAA, symSize: 0x1C }
  - { offsetInCU: 0x1F88F, offset: 0x20913, size: 0x8, addend: 0x0, symName: __ZNSt13unordered_mapIyN6tinyrv10MemoryUnit8TLBEntryESt4hashIyESt8equal_toIyESaISt4pairIKyS2_EEEC1Ev, symObjAddr: 0x107C, symBinAddr: 0x100004C8E, symSize: 0x1C }
  - { offsetInCU: 0x1F961, offset: 0x209E5, size: 0x8, addend: 0x0, symName: __ZNSt10_HashtableIySt4pairIKyN6tinyrv10MemoryUnit8TLBEntryEESaIS5_ENSt8__detail10_Select1stESt8equal_toIyESt4hashIyENS7_18_Mod_range_hashingENS7_20_Default_ranged_hashENS7_20_Prime_rehash_policyENS7_17_Hashtable_traitsILb0ELb0ELb1EEEEC1Ev, symObjAddr: 0xFF8, symBinAddr: 0x100004C0A, symSize: 0x84 }
  - { offsetInCU: 0x1F969, offset: 0x209ED, size: 0x8, addend: 0x0, symName: __ZNSt13unordered_mapIyN6tinyrv10MemoryUnit8TLBEntryESt4hashIyESt8equal_toIyESaISt4pairIKyS2_EEEC1Ev, symObjAddr: 0x107C, symBinAddr: 0x100004C8E, symSize: 0x1C }
  - { offsetInCU: 0x1F935, offset: 0x209B9, size: 0x8, addend: 0x0, symName: __ZNSt8__detail16_Hashtable_allocISaINS_10_Hash_nodeISt4pairIKyN6tinyrv10MemoryUnit8TLBEntryEELb0EEEEED2Ev, symObjAddr: 0xFDC, symBinAddr: 0x100004BEE, symSize: 0x1C }
  - { offsetInCU: 0x1F97C, offset: 0x20A00, size: 0x8, addend: 0x0, symName: __ZNSt8__detail16_Hashtable_allocISaINS_10_Hash_nodeISt4pairIKyN6tinyrv10MemoryUnit8TLBEntryEELb0EEEEEC2Ev, symObjAddr: 0xFC0, symBinAddr: 0x100004BD2, symSize: 0x1C }
  - { offsetInCU: 0x1F9E2, offset: 0x20A66, size: 0x8, addend: 0x0, symName: __ZNSt8__detail21_Hashtable_ebo_helperILi0ESaINS_10_Hash_nodeISt4pairIKyN6tinyrv10MemoryUnit8TLBEntryEELb0EEEELb1EED2Ev, symObjAddr: 0xF9C, symBinAddr: 0x100004BAE, symSize: 0x24 }
  - { offsetInCU: 0x1F9EA, offset: 0x20A6E, size: 0x8, addend: 0x0, symName: __ZNSt8__detail16_Hashtable_allocISaINS_10_Hash_nodeISt4pairIKyN6tinyrv10MemoryUnit8TLBEntryEELb0EEEEEC2Ev, symObjAddr: 0xFC0, symBinAddr: 0x100004BD2, symSize: 0x1C }
  - { offsetInCU: 0x1FAA7, offset: 0x20B2B, size: 0x8, addend: 0x0, symName: __ZNSt8__detail15_Hashtable_baseIySt4pairIKyN6tinyrv10MemoryUnit8TLBEntryEENS_10_Select1stESt8equal_toIyESt4hashIyENS_18_Mod_range_hashingENS_20_Default_ranged_hashENS_17_Hashtable_traitsILb0ELb0ELb1EEEEC2Ev, symObjAddr: 0xF74, symBinAddr: 0x100004B86, symSize: 0x28 }
  - { offsetInCU: 0x1FABF, offset: 0x20B43, size: 0x8, addend: 0x0, symName: __ZNSt8__detail15_Hash_code_baseIySt4pairIKyN6tinyrv10MemoryUnit8TLBEntryEENS_10_Select1stESt4hashIyENS_18_Mod_range_hashingENS_20_Default_ranged_hashELb0EEC2Ev, symObjAddr: 0xF58, symBinAddr: 0x100004B6A, symSize: 0x1C }
  - { offsetInCU: 0x1FA50, offset: 0x20AD4, size: 0x8, addend: 0x0, symName: __ZN6tinyrv10MemoryUnit8ADecoder5writeEPKvyy, symObjAddr: 0xE82, symBinAddr: 0x100004A94, symSize: 0xD6 }
  - { offsetInCU: 0x1FA58, offset: 0x20ADC, size: 0x8, addend: 0x0, symName: __ZNSt8__detail15_Hash_code_baseIySt4pairIKyN6tinyrv10MemoryUnit8TLBEntryEENS_10_Select1stESt4hashIyENS_18_Mod_range_hashingENS_20_Default_ranged_hashELb0EEC2Ev, symObjAddr: 0xF58, symBinAddr: 0x100004B6A, symSize: 0x1C }
  - { offsetInCU: 0x1FACF, offset: 0x20B53, size: 0x8, addend: 0x0, symName: __ZN6tinyrv10MemoryUnit8ADecoder4readEPvyy, symObjAddr: 0xDAC, symBinAddr: 0x1000049BE, symSize: 0xD6 }
  - { offsetInCU: 0x1FAD7, offset: 0x20B5B, size: 0x8, addend: 0x0, symName: __ZN6tinyrv10MemoryUnit8ADecoder5writeEPKvyy, symObjAddr: 0xE82, symBinAddr: 0x100004A94, symSize: 0xD6 }
  - { offsetInCU: 0x1FB4E, offset: 0x20BD2, size: 0x8, addend: 0x0, symName: __ZN6tinyrv10MemoryUnit8ADecoder3mapEyyRNS_9MemDeviceE, symObjAddr: 0xD2A, symBinAddr: 0x10000493C, symSize: 0x82 }
  - { offsetInCU: 0x1FBE7, offset: 0x20C6B, size: 0x8, addend: 0x0, symName: __ZN6tinyrv10MemoryUnit8ADecoder6lookupEyjPNS1_14mem_accessor_tE, symObjAddr: 0xBF4, symBinAddr: 0x100004806, symSize: 0x136 }
  - { offsetInCU: 0x1FBEF, offset: 0x20C73, size: 0x8, addend: 0x0, symName: __ZN6tinyrv10MemoryUnit8ADecoder3mapEyyRNS_9MemDeviceE, symObjAddr: 0xD2A, symBinAddr: 0x10000493C, symSize: 0x82 }
  - { offsetInCU: 0x1FD2C, offset: 0x20DB0, size: 0x8, addend: 0x0, symName: __ZN6tinyrv12RomMemDevice5writeEPKvyy, symObjAddr: 0xBBE, symBinAddr: 0x1000047D0, symSize: 0x36 }
  - { offsetInCU: 0x1FD34, offset: 0x20DB8, size: 0x8, addend: 0x0, symName: __ZN6tinyrv10MemoryUnit8ADecoder6lookupEyjPNS1_14mem_accessor_tE, symObjAddr: 0xBF4, symBinAddr: 0x100004806, symSize: 0x136 }
  - { offsetInCU: 0x1FD7F, offset: 0x20E03, size: 0x8, addend: 0x0, symName: __ZN6tinyrv12RamMemDevice5writeEPKvyy, symObjAddr: 0xA6E, symBinAddr: 0x100004680, symSize: 0x150 }
  - { offsetInCU: 0x1FD87, offset: 0x20E0B, size: 0x8, addend: 0x0, symName: __ZN6tinyrv12RomMemDevice5writeEPKvyy, symObjAddr: 0xBBE, symBinAddr: 0x1000047D0, symSize: 0x36 }
  - { offsetInCU: 0x1FE47, offset: 0x20ECB, size: 0x8, addend: 0x0, symName: __ZN6tinyrv12RamMemDevice4readEPvyy, symObjAddr: 0x91E, symBinAddr: 0x100004530, symSize: 0x150 }
  - { offsetInCU: 0x1FE4F, offset: 0x20ED3, size: 0x8, addend: 0x0, symName: __ZN6tinyrv12RamMemDevice5writeEPKvyy, symObjAddr: 0xA6E, symBinAddr: 0x100004680, symSize: 0x150 }
  - { offsetInCU: 0x1FF66, offset: 0x20FEA, size: 0x8, addend: 0x0, symName: __ZN6tinyrv12RamMemDeviceC1Eyj, symObjAddr: 0x884, symBinAddr: 0x100004496, symSize: 0x9A }
  - { offsetInCU: 0x2003C, offset: 0x210C0, size: 0x8, addend: 0x0, symName: __ZN6tinyrv12RamMemDeviceC2Eyj, symObjAddr: 0x7EA, symBinAddr: 0x1000043FC, symSize: 0x9A }
  - { offsetInCU: 0x20161, offset: 0x211E5, size: 0x8, addend: 0x0, symName: __ZN6tinyrv12RamMemDeviceC1EPKcj, symObjAddr: 0x61C, symBinAddr: 0x10000422E, symSize: 0x1CE }
  - { offsetInCU: 0x201E8, offset: 0x2126C, size: 0x8, addend: 0x0, symName: __ZN6tinyrv12RamMemDeviceC2EPKcj, symObjAddr: 0x44E, symBinAddr: 0x100004060, symSize: 0x1CE }
  - { offsetInCU: 0x20281, offset: 0x21305, size: 0x8, addend: 0x0, symName: __ZNSt6vectorIhSaIhEEC1Ev, symObjAddr: 0x432, symBinAddr: 0x100004044, symSize: 0x1C }
  - { offsetInCU: 0x202CF, offset: 0x21353, size: 0x8, addend: 0x0, symName: __ZNSt12_Vector_baseIhSaIhEEC2Ev, symObjAddr: 0x416, symBinAddr: 0x100004028, symSize: 0x1C }
  - { offsetInCU: 0x20336, offset: 0x213BA, size: 0x8, addend: 0x0, symName: __ZNSt12_Vector_baseIhSaIhEE12_Vector_implD1Ev, symObjAddr: 0x3F2, symBinAddr: 0x100004004, symSize: 0x24 }
  - { offsetInCU: 0x2033E, offset: 0x213C2, size: 0x8, addend: 0x0, symName: __ZNSt12_Vector_baseIhSaIhEEC2Ev, symObjAddr: 0x416, symBinAddr: 0x100004028, symSize: 0x1C }
  - { offsetInCU: 0x20392, offset: 0x21416, size: 0x8, addend: 0x0, symName: __ZN6tinyrv9MemDeviceC2Ev, symObjAddr: 0x3D4, symBinAddr: 0x100003FE6, symSize: 0x1E }
  - { offsetInCU: 0x203C1, offset: 0x21445, size: 0x8, addend: 0x0, symName: __Z8log2ceilj, symObjAddr: 0x3B1, symBinAddr: 0x100003FC3, symSize: 0x23 }
  - { offsetInCU: 0x203C9, offset: 0x2144D, size: 0x8, addend: 0x0, symName: __ZN6tinyrv9MemDeviceC2Ev, symObjAddr: 0x3D4, symBinAddr: 0x100003FE6, symSize: 0x1E }
  - { offsetInCU: 0x203FA, offset: 0x2147E, size: 0x8, addend: 0x0, symName: __Z6ispow2j, symObjAddr: 0x389, symBinAddr: 0x100003F9B, symSize: 0x28 }
  - { offsetInCU: 0x20402, offset: 0x21486, size: 0x8, addend: 0x0, symName: __Z8log2ceilj, symObjAddr: 0x3B1, symBinAddr: 0x100003FC3, symSize: 0x23 }
  - { offsetInCU: 0x20455, offset: 0x214D9, size: 0x8, addend: 0x0, symName: __ZStaNRSt13_Ios_FmtflagsS_, symObjAddr: 0x2B5, symBinAddr: 0x100003F6D, symSize: 0x2D }
  - { offsetInCU: 0x204ED, offset: 0x21571, size: 0x8, addend: 0x0, symName: __ZN6tinyrv10MemoryUnit8TLBEntryC1Ejj, symObjAddr: 0x232, symBinAddr: 0x100003F48, symSize: 0x24 }
  - { offsetInCU: 0x2054B, offset: 0x215CF, size: 0x8, addend: 0x0, symName: __ZN6tinyrv10MemoryUnit8TLBEntryC1Ev, symObjAddr: 0x226, symBinAddr: 0x100003F3C, symSize: 0xC }
  - { offsetInCU: 0x20592, offset: 0x21616, size: 0x8, addend: 0x0, symName: __ZN6tinyrv10MemoryUnit8ADecoderC1Ev, symObjAddr: 0x20A, symBinAddr: 0x100003F20, symSize: 0x1C }
  - { offsetInCU: 0x205F5, offset: 0x21679, size: 0x8, addend: 0x0, symName: __ZNSt6vectorIN6tinyrv10MemoryUnit8ADecoder7entry_tESaIS3_EEC1Ev, symObjAddr: 0x1EE, symBinAddr: 0x100003F04, symSize: 0x1C }
  - { offsetInCU: 0x20643, offset: 0x216C7, size: 0x8, addend: 0x0, symName: __ZNSt12_Vector_baseIN6tinyrv10MemoryUnit8ADecoder7entry_tESaIS3_EEC2Ev, symObjAddr: 0x1D2, symBinAddr: 0x100003EE8, symSize: 0x1C }
  - { offsetInCU: 0x206AA, offset: 0x2172E, size: 0x8, addend: 0x0, symName: __ZNSt12_Vector_baseIN6tinyrv10MemoryUnit8ADecoder7entry_tESaIS3_EE12_Vector_implD1Ev, symObjAddr: 0x1AE, symBinAddr: 0x100003EC4, symSize: 0x24 }
  - { offsetInCU: 0x206B2, offset: 0x21736, size: 0x8, addend: 0x0, symName: __ZNSt12_Vector_baseIN6tinyrv10MemoryUnit8ADecoder7entry_tESaIS3_EEC2Ev, symObjAddr: 0x1D2, symBinAddr: 0x100003EE8, symSize: 0x1C }
  - { offsetInCU: 0x20708, offset: 0x2178C, size: 0x8, addend: 0x0, symName: __ZN6tinyrv10MemoryUnit9PageFaultC1Eyb, symObjAddr: 0x184, symBinAddr: 0x100003E9A, symSize: 0x2A }
  - { offsetInCU: 0x20710, offset: 0x21794, size: 0x8, addend: 0x0, symName: __ZNSt12_Vector_baseIN6tinyrv10MemoryUnit8ADecoder7entry_tESaIS3_EE12_Vector_implD1Ev, symObjAddr: 0x1AE, symBinAddr: 0x100003EC4, symSize: 0x24 }
  - { offsetInCU: 0x20728, offset: 0x217AC, size: 0x8, addend: 0x0, symName: __ZNK6tinyrv12RamMemDevice4sizeEv, symObjAddr: 0x166, symBinAddr: 0x100003E7C, symSize: 0x1E }
  - { offsetInCU: 0x20730, offset: 0x217B4, size: 0x8, addend: 0x0, symName: __ZN6tinyrv10MemoryUnit9PageFaultC1Eyb, symObjAddr: 0x184, symBinAddr: 0x100003E9A, symSize: 0x2A }
  - { offsetInCU: 0x2079B, offset: 0x2181F, size: 0x8, addend: 0x0, symName: __ZN6tinyrv12RamMemDeviceD0Ev, symObjAddr: 0x140, symBinAddr: 0x100003E56, symSize: 0x26 }
  - { offsetInCU: 0x207A3, offset: 0x21827, size: 0x8, addend: 0x0, symName: __ZNK6tinyrv12RamMemDevice4sizeEv, symObjAddr: 0x166, symBinAddr: 0x100003E7C, symSize: 0x1E }
  - { offsetInCU: 0x207C9, offset: 0x2184D, size: 0x8, addend: 0x0, symName: __ZN6tinyrv12RamMemDeviceD1Ev, symObjAddr: 0x106, symBinAddr: 0x100003E1C, symSize: 0x3A }
  - { offsetInCU: 0x2081A, offset: 0x2189E, size: 0x8, addend: 0x0, symName: __ZN6tinyrv9MemDeviceD2Ev, symObjAddr: 0xE8, symBinAddr: 0x100003DFE, symSize: 0x1E }
  - { offsetInCU: 0x2082F, offset: 0x218B3, size: 0x8, addend: 0x0, symName: __ZNKSt8__detail20_Prime_rehash_policy8_M_stateEv, symObjAddr: 0xBA, symBinAddr: 0x100003DEC, symSize: 0x12 }
  - { offsetInCU: 0x2085E, offset: 0x218E2, size: 0x8, addend: 0x0, symName: __ZNKSt8__detail18_Mod_range_hashingclEmm, symObjAddr: 0x6E, symBinAddr: 0x100003DCA, symSize: 0x22 }
  - { offsetInCU: 0x208F2, offset: 0x21976, size: 0x8, addend: 0x0, symName: __ZNSt8__detail15_Hash_node_baseC2Ev, symObjAddr: 0x42, symBinAddr: 0x100003DB4, symSize: 0x16 }
  - { offsetInCU: 0x208FC, offset: 0x21980, size: 0x8, addend: 0x0, symName: __ZNKSt4hashIyEclEy, symObjAddr: 0x30, symBinAddr: 0x100003DA2, symSize: 0x12 }
  - { offsetInCU: 0x20904, offset: 0x21988, size: 0x8, addend: 0x0, symName: __ZNSt8__detail15_Hash_node_baseC2Ev, symObjAddr: 0x42, symBinAddr: 0x100003DB4, symSize: 0x16 }
  - { offsetInCU: 0x2094F, offset: 0x219D3, size: 0x8, addend: 0x0, symName: __ZnwmPv, symObjAddr: 0xE, symBinAddr: 0x100003D90, symSize: 0x12 }
  - { offsetInCU: 0x209B7, offset: 0x21A3B, size: 0x8, addend: 0x0, symName: __ZSt17__size_to_integerm, symObjAddr: 0x0, symBinAddr: 0x100003D82, symSize: 0xE }
  - { offsetInCU: 0x209BF, offset: 0x21A43, size: 0x8, addend: 0x0, symName: __ZnwmPv, symObjAddr: 0xE, symBinAddr: 0x100003D90, symSize: 0x12 }
  - { offsetInCU: 0xDC, offset: 0x21B30, size: 0x8, addend: 0x0, symName: __ZNSt11char_traitsIcE7compareEPKcS2_m, symObjAddr: 0x0, symBinAddr: 0x10000BBF4, symSize: 0x3C }
  - { offsetInCU: 0x1758, offset: 0x231AC, size: 0x8, addend: 0x0, symName: __ZStL19piecewise_construct, symObjAddr: 0x540, symBinAddr: 0x10002E4A8, symSize: 0x0 }
  - { offsetInCU: 0x4977, offset: 0x263CB, size: 0x8, addend: 0x0, symName: __ZStL8__ioinit, symObjAddr: 0xF0B8, symBinAddr: 0x100058FC1, symSize: 0x0 }
  - { offsetInCU: 0x5033, offset: 0x26A87, size: 0x8, addend: 0x0, symName: __ZStL13allocator_arg, symObjAddr: 0x541, symBinAddr: 0x10002E4A9, symSize: 0x0 }
  - { offsetInCU: 0x5050, offset: 0x26AA4, size: 0x8, addend: 0x0, symName: __ZStL6ignore, symObjAddr: 0x542, symBinAddr: 0x10002E4AA, symSize: 0x0 }
  - { offsetInCU: 0x509E, offset: 0x26AF2, size: 0x8, addend: 0x0, symName: __ZN9__gnu_cxxL21__default_lock_policyE, symObjAddr: 0x544, symBinAddr: 0x10002E4AC, symSize: 0x0 }
  - { offsetInCU: 0x50E3, offset: 0x26B37, size: 0x8, addend: 0x0, symName: _showStats, symObjAddr: 0xF0C0, symBinAddr: 0x100059040, symSize: 0x0 }
  - { offsetInCU: 0x5103, offset: 0x26B57, size: 0x8, addend: 0x0, symName: _program, symObjAddr: 0xF0C8, symBinAddr: 0x100059048, symSize: 0x0 }
  - { offsetInCU: 0x5126, offset: 0x26B7A, size: 0x8, addend: 0x0, symName: _gshare_enabled, symObjAddr: 0xF0D0, symBinAddr: 0x100059050, symSize: 0x0 }
  - { offsetInCU: 0x513F, offset: 0x26B93, size: 0x8, addend: 0x0, symName: _ooo_enabled, symObjAddr: 0xF0D1, symBinAddr: 0x100059051, symSize: 0x0 }
  - { offsetInCU: 0x52AE, offset: 0x26D02, size: 0x8, addend: 0x0, symName: __GLOBAL__sub_I_main.cpp, symObjAddr: 0x534, symBinAddr: 0x10000C11E, symSize: 0xB }
  - { offsetInCU: 0x52DA, offset: 0x26D2E, size: 0x8, addend: 0x0, symName: __Z41__static_initialization_and_destruction_0v, symObjAddr: 0x4FB, symBinAddr: 0x10000C0E5, symSize: 0x39 }
  - { offsetInCU: 0x52E2, offset: 0x26D36, size: 0x8, addend: 0x0, symName: __GLOBAL__sub_I_main.cpp, symObjAddr: 0x534, symBinAddr: 0x10000C11E, symSize: 0xB }
  - { offsetInCU: 0x5378, offset: 0x26DCC, size: 0x8, addend: 0x0, symName: __ZSteqIcSt11char_traitsIcESaIcEEbRKNSt7__cxx1112basic_stringIT_T0_T1_EEPKS5_, symObjAddr: 0x479, symBinAddr: 0x10000C06D, symSize: 0x77 }
  - { offsetInCU: 0x53A9, offset: 0x26DFD, size: 0x8, addend: 0x0, symName: _main, symObjAddr: 0x1C8, symBinAddr: 0x10000BDBC, symSize: 0x2B1 }
  - { offsetInCU: 0x53B1, offset: 0x26E05, size: 0x8, addend: 0x0, symName: __ZSteqIcSt11char_traitsIcESaIcEEbRKNSt7__cxx1112basic_stringIT_T0_T1_EEPKS5_, symObjAddr: 0x479, symBinAddr: 0x10000C06D, symSize: 0x77 }
  - { offsetInCU: 0x54FA, offset: 0x26F4E, size: 0x8, addend: 0x0, symName: __ZL10parse_argsiPPc, symObjAddr: 0x88, symBinAddr: 0x10000BC7C, symSize: 0x140 }
  - { offsetInCU: 0x5502, offset: 0x26F56, size: 0x8, addend: 0x0, symName: _main, symObjAddr: 0x1C8, symBinAddr: 0x10000BDBC, symSize: 0x2B1 }
  - { offsetInCU: 0x5551, offset: 0x26FA5, size: 0x8, addend: 0x0, symName: __ZL10show_usagev, symObjAddr: 0x56, symBinAddr: 0x10000BC4A, symSize: 0x32 }
  - { offsetInCU: 0x5559, offset: 0x26FAD, size: 0x8, addend: 0x0, symName: __ZL10parse_argsiPPc, symObjAddr: 0x88, symBinAddr: 0x10000BC7C, symSize: 0x140 }
  - { offsetInCU: 0x5564, offset: 0x26FB8, size: 0x8, addend: 0x0, symName: __ZNSt11char_traitsIcE6lengthEPKc, symObjAddr: 0x3C, symBinAddr: 0x10000BC30, symSize: 0x1A }
  - { offsetInCU: 0x556C, offset: 0x26FC0, size: 0x8, addend: 0x0, symName: __ZL10show_usagev, symObjAddr: 0x56, symBinAddr: 0x10000BC4A, symSize: 0x32 }
  - { offsetInCU: 0x5596, offset: 0x26FEA, size: 0x8, addend: 0x0, symName: __ZNSt11char_traitsIcE7compareEPKcS2_m, symObjAddr: 0x0, symBinAddr: 0x10000BBF4, symSize: 0x3C }
  - { offsetInCU: 0x559E, offset: 0x26FF2, size: 0x8, addend: 0x0, symName: __ZNSt11char_traitsIcE6lengthEPKc, symObjAddr: 0x3C, symBinAddr: 0x10000BC30, symSize: 0x1A }
  - { offsetInCU: 0x1539, offset: 0x28587, size: 0x8, addend: 0x0, symName: __ZStL19piecewise_construct, symObjAddr: 0x2660, symBinAddr: 0x10002E4C0, symSize: 0x0 }
  - { offsetInCU: 0x44BE, offset: 0x2B50C, size: 0x8, addend: 0x0, symName: __ZStL13allocator_arg, symObjAddr: 0x2661, symBinAddr: 0x10002E4C1, symSize: 0x0 }
  - { offsetInCU: 0x44DB, offset: 0x2B529, size: 0x8, addend: 0x0, symName: __ZStL6ignore, symObjAddr: 0x2662, symBinAddr: 0x10002E4C2, symSize: 0x0 }
  - { offsetInCU: 0x4605, offset: 0x2B653, size: 0x8, addend: 0x0, symName: __ZN9__gnu_cxxL21__default_lock_policyE, symObjAddr: 0x2664, symBinAddr: 0x10002E4C4, symSize: 0x0 }
  - { offsetInCU: 0x4A24, offset: 0x2BA72, size: 0x8, addend: 0x0, symName: __ZStL8__ioinit, symObjAddr: 0x378C8, symBinAddr: 0x100058FC2, symSize: 0x0 }
  - { offsetInCU: 0xC2C9, offset: 0x33317, size: 0x8, addend: 0x0, symName: __GLOBAL__sub_I_processor.cpp, symObjAddr: 0x2640, symBinAddr: 0x10000E3B4, symSize: 0xB }
  - { offsetInCU: 0xC301, offset: 0x3334F, size: 0x8, addend: 0x0, symName: __ZSt8_DestroyIN6tinyrv4CoreEEvPT_, symObjAddr: 0x261E, symBinAddr: 0x10000E392, symSize: 0x22 }
  - { offsetInCU: 0xC309, offset: 0x33357, size: 0x8, addend: 0x0, symName: __GLOBAL__sub_I_processor.cpp, symObjAddr: 0x2640, symBinAddr: 0x10000E3B4, symSize: 0xB }
  - { offsetInCU: 0xC33C, offset: 0x3338A, size: 0x8, addend: 0x0, symName: __ZNSt23_Sp_counted_ptr_inplaceIN6tinyrv4CoreESaIvELN9__gnu_cxx12_Lock_policyE2EE5_Impl8_M_allocEv, symObjAddr: 0x25F6, symBinAddr: 0x10000E378, symSize: 0x1A }
  - { offsetInCU: 0xC36F, offset: 0x333BD, size: 0x8, addend: 0x0, symName: __ZNSt23_Sp_counted_ptr_inplaceIN6tinyrv4CoreESaIvELN9__gnu_cxx12_Lock_policyE2EE14_M_get_deleterERKSt9type_info, symObjAddr: 0x2594, symBinAddr: 0x10000E316, symSize: 0x62 }
  - { offsetInCU: 0xC377, offset: 0x333C5, size: 0x8, addend: 0x0, symName: __ZNSt23_Sp_counted_ptr_inplaceIN6tinyrv4CoreESaIvELN9__gnu_cxx12_Lock_policyE2EE5_Impl8_M_allocEv, symObjAddr: 0x25F6, symBinAddr: 0x10000E378, symSize: 0x1A }
  - { offsetInCU: 0xC3CA, offset: 0x33418, size: 0x8, addend: 0x0, symName: __ZNSt23_Sp_counted_ptr_inplaceIN6tinyrv4CoreESaIvELN9__gnu_cxx12_Lock_policyE2EE10_M_destroyEv, symObjAddr: 0x252A, symBinAddr: 0x10000E2AC, symSize: 0x6A }
  - { offsetInCU: 0xC49A, offset: 0x334E8, size: 0x8, addend: 0x0, symName: __ZNSt23_Sp_counted_ptr_inplaceIN6tinyrv4CoreESaIvELN9__gnu_cxx12_Lock_policyE2EE10_M_disposeEv, symObjAddr: 0x24E2, symBinAddr: 0x10000E264, symSize: 0x48 }
  - { offsetInCU: 0xC4A2, offset: 0x334F0, size: 0x8, addend: 0x0, symName: __ZNSt23_Sp_counted_ptr_inplaceIN6tinyrv4CoreESaIvELN9__gnu_cxx12_Lock_policyE2EE10_M_destroyEv, symObjAddr: 0x252A, symBinAddr: 0x10000E2AC, symSize: 0x6A }
  - { offsetInCU: 0xC577, offset: 0x335C5, size: 0x8, addend: 0x0, symName: __ZNSt23_Sp_counted_ptr_inplaceIN6tinyrv4CoreESaIvELN9__gnu_cxx12_Lock_policyE2EED0Ev, symObjAddr: 0x24BC, symBinAddr: 0x10000E23E, symSize: 0x26 }
  - { offsetInCU: 0xC57F, offset: 0x335CD, size: 0x8, addend: 0x0, symName: __ZNSt23_Sp_counted_ptr_inplaceIN6tinyrv4CoreESaIvELN9__gnu_cxx12_Lock_policyE2EE10_M_disposeEv, symObjAddr: 0x24E2, symBinAddr: 0x10000E264, symSize: 0x48 }
  - { offsetInCU: 0xC5A5, offset: 0x335F3, size: 0x8, addend: 0x0, symName: __ZNSt23_Sp_counted_ptr_inplaceIN6tinyrv4CoreESaIvELN9__gnu_cxx12_Lock_policyE2EED1Ev, symObjAddr: 0x248E, symBinAddr: 0x10000E210, symSize: 0x2E }
  - { offsetInCU: 0xC5A6, offset: 0x335F4, size: 0x8, addend: 0x0, symName: __Z41__static_initialization_and_destruction_0v, symObjAddr: 0x2455, symBinAddr: 0x10000E1D7, symSize: 0x39 }
  - { offsetInCU: 0xC5AE, offset: 0x335FC, size: 0x8, addend: 0x0, symName: __ZNSt23_Sp_counted_ptr_inplaceIN6tinyrv4CoreESaIvELN9__gnu_cxx12_Lock_policyE2EED1Ev, symObjAddr: 0x248E, symBinAddr: 0x10000E210, symSize: 0x2E }
  - { offsetInCU: 0xC624, offset: 0x33672, size: 0x8, addend: 0x0, symName: __ZNSt12__shared_ptrI13SimObjectBaseLN9__gnu_cxx12_Lock_policyE2EEC2EOS3_, symObjAddr: 0x23FE, symBinAddr: 0x10000E180, symSize: 0x57 }
  - { offsetInCU: 0xC62C, offset: 0x3367A, size: 0x8, addend: 0x0, symName: __Z41__static_initialization_and_destruction_0v, symObjAddr: 0x2455, symBinAddr: 0x10000E1D7, symSize: 0x39 }
  - { offsetInCU: 0xC632, offset: 0x33680, size: 0x8, addend: 0x0, symName: __ZN9__gnu_cxx16__aligned_bufferIN6tinyrv4CoreEE7_M_addrEv, symObjAddr: 0x23F0, symBinAddr: 0x10000E172, symSize: 0xE }
  - { offsetInCU: 0xC63A, offset: 0x33688, size: 0x8, addend: 0x0, symName: __ZNSt12__shared_ptrI13SimObjectBaseLN9__gnu_cxx12_Lock_policyE2EEC2EOS3_, symObjAddr: 0x23FE, symBinAddr: 0x10000E180, symSize: 0x57 }
  - { offsetInCU: 0xC6F6, offset: 0x33744, size: 0x8, addend: 0x0, symName: __ZSt10_ConstructIN6tinyrv4CoreEJ10SimContextiPNS0_13ProcessorImplEEEvPT_DpOT0_, symObjAddr: 0x2349, symBinAddr: 0x10000E0CB, symSize: 0xA7 }
  - { offsetInCU: 0xC6FE, offset: 0x3374C, size: 0x8, addend: 0x0, symName: __ZN9__gnu_cxx16__aligned_bufferIN6tinyrv4CoreEE7_M_addrEv, symObjAddr: 0x23F0, symBinAddr: 0x10000E172, symSize: 0xE }
  - { offsetInCU: 0xC713, offset: 0x33761, size: 0x8, addend: 0x0, symName: __ZNSt15__new_allocatorISt23_Sp_counted_ptr_inplaceIN6tinyrv4CoreESaIvELN9__gnu_cxx12_Lock_policyE2EEE10deallocateEPS6_m, symObjAddr: 0x2316, symBinAddr: 0x10000E0A6, symSize: 0x24 }
  - { offsetInCU: 0xC854, offset: 0x338A2, size: 0x8, addend: 0x0, symName: __ZSt11__addressofISaISt23_Sp_counted_ptr_inplaceIN6tinyrv4CoreESaIvELN9__gnu_cxx12_Lock_policyE2EEEEPT_RS8_, symObjAddr: 0x2307, symBinAddr: 0x10000E097, symSize: 0xF }
  - { offsetInCU: 0xC7B2, offset: 0x33800, size: 0x8, addend: 0x0, symName: __ZNSt15__new_allocatorISt23_Sp_counted_ptr_inplaceIN6tinyrv4CoreESaIvELN9__gnu_cxx12_Lock_policyE2EEE8allocateEmPKv, symObjAddr: 0x229E, symBinAddr: 0x10000E02E, symSize: 0x69 }
  - { offsetInCU: 0xC7BA, offset: 0x33808, size: 0x8, addend: 0x0, symName: __ZSt11__addressofISaISt23_Sp_counted_ptr_inplaceIN6tinyrv4CoreESaIvELN9__gnu_cxx12_Lock_policyE2EEEEPT_RS8_, symObjAddr: 0x2307, symBinAddr: 0x10000E097, symSize: 0xF }
  - { offsetInCU: 0xC87A, offset: 0x338C8, size: 0x8, addend: 0x0, symName: __ZNSt10shared_ptrI13SimObjectBaseEC1EOS1_, symObjAddr: 0x226A, symBinAddr: 0x10000DFFA, symSize: 0x34 }
  - { offsetInCU: 0xC88A, offset: 0x338D8, size: 0x8, addend: 0x0, symName: __ZNSt15__new_allocatorISt10_List_nodeISt10shared_ptrI13SimObjectBaseEEE8allocateEmPKv, symObjAddr: 0x2204, symBinAddr: 0x10000DF94, symSize: 0x66 }
  - { offsetInCU: 0xC892, offset: 0x338E0, size: 0x8, addend: 0x0, symName: __ZNSt10shared_ptrI13SimObjectBaseEC1EOS1_, symObjAddr: 0x226A, symBinAddr: 0x10000DFFA, symSize: 0x34 }
  - { offsetInCU: 0xC8FE, offset: 0x3394C, size: 0x8, addend: 0x0, symName: __ZN9__gnu_cxx16__aligned_bufferIN6tinyrv4CoreEE6_M_ptrEv, symObjAddr: 0x21EA, symBinAddr: 0x10000DF7A, symSize: 0x1A }
  - { offsetInCU: 0xC906, offset: 0x33954, size: 0x8, addend: 0x0, symName: __ZNSt15__new_allocatorISt10_List_nodeISt10shared_ptrI13SimObjectBaseEEE8allocateEmPKv, symObjAddr: 0x2204, symBinAddr: 0x10000DF94, symSize: 0x66 }
  - { offsetInCU: 0xCA28, offset: 0x33A76, size: 0x8, addend: 0x0, symName: __ZNSt23_Sp_counted_ptr_inplaceIN6tinyrv4CoreESaIvELN9__gnu_cxx12_Lock_policyE2EE5_ImplC1ES2_, symObjAddr: 0x21C8, symBinAddr: 0x10000DF58, symSize: 0x22 }
  - { offsetInCU: 0xCA30, offset: 0x33A7E, size: 0x8, addend: 0x0, symName: __ZN9__gnu_cxx16__aligned_bufferIN6tinyrv4CoreEE6_M_ptrEv, symObjAddr: 0x21EA, symBinAddr: 0x10000DF7A, symSize: 0x1A }
  - { offsetInCU: 0xCADD, offset: 0x33B2B, size: 0x8, addend: 0x0, symName: __ZSt12__to_addressISt23_Sp_counted_ptr_inplaceIN6tinyrv4CoreESaIvELN9__gnu_cxx12_Lock_policyE2EEEPT_S8_, symObjAddr: 0x2186, symBinAddr: 0x10000DF4A, symSize: 0xE }
  - { offsetInCU: 0xCB3B, offset: 0x33B89, size: 0x8, addend: 0x0, symName: __ZNSt15__allocated_ptrISaISt23_Sp_counted_ptr_inplaceIN6tinyrv4CoreESaIvELN9__gnu_cxx12_Lock_policyE2EEEEC1ERS7_PS6_, symObjAddr: 0x2150, symBinAddr: 0x10000DF14, symSize: 0x36 }
  - { offsetInCU: 0xCB43, offset: 0x33B91, size: 0x8, addend: 0x0, symName: __ZSt12__to_addressISt23_Sp_counted_ptr_inplaceIN6tinyrv4CoreESaIvELN9__gnu_cxx12_Lock_policyE2EEEPT_S8_, symObjAddr: 0x2186, symBinAddr: 0x10000DF4A, symSize: 0xE }
  - { offsetInCU: 0xCBCA, offset: 0x33C18, size: 0x8, addend: 0x0, symName: __ZNSt15__new_allocatorISt23_Sp_counted_ptr_inplaceIN6tinyrv4CoreESaIvELN9__gnu_cxx12_Lock_policyE2EEED2Ev, symObjAddr: 0x2144, symBinAddr: 0x10000DF08, symSize: 0xC }
  - { offsetInCU: 0xCC9C, offset: 0x33CEA, size: 0x8, addend: 0x0, symName: __ZSt11__addressofISaISt10_List_nodeISt10shared_ptrI13SimObjectBaseEEEEPT_RS6_, symObjAddr: 0x2136, symBinAddr: 0x10000DEFA, symSize: 0xE }
  - { offsetInCU: 0xCCA4, offset: 0x33CF2, size: 0x8, addend: 0x0, symName: __ZNSt15__new_allocatorISt23_Sp_counted_ptr_inplaceIN6tinyrv4CoreESaIvELN9__gnu_cxx12_Lock_policyE2EEED2Ev, symObjAddr: 0x2144, symBinAddr: 0x10000DF08, symSize: 0xC }
  - { offsetInCU: 0xCC71, offset: 0x33CBF, size: 0x8, addend: 0x0, symName: __ZNSt23_Sp_counted_ptr_inplaceIN6tinyrv4CoreESaIvELN9__gnu_cxx12_Lock_policyE2EE6_M_ptrEv, symObjAddr: 0x2118, symBinAddr: 0x10000DEDC, symSize: 0x1E }
  - { offsetInCU: 0xCC79, offset: 0x33CC7, size: 0x8, addend: 0x0, symName: __ZSt11__addressofISaISt10_List_nodeISt10shared_ptrI13SimObjectBaseEEEEPT_RS6_, symObjAddr: 0x2136, symBinAddr: 0x10000DEFA, symSize: 0xE }
  - { offsetInCU: 0xCCA0, offset: 0x33CEE, size: 0x8, addend: 0x0, symName: __ZNSt15__allocated_ptrISaISt23_Sp_counted_ptr_inplaceIN6tinyrv4CoreESaIvELN9__gnu_cxx12_Lock_policyE2EEEEaSEDn, symObjAddr: 0x20FA, symBinAddr: 0x10000DEBE, symSize: 0x1E }
  - { offsetInCU: 0xCCA8, offset: 0x33CF6, size: 0x8, addend: 0x0, symName: __ZNSt23_Sp_counted_ptr_inplaceIN6tinyrv4CoreESaIvELN9__gnu_cxx12_Lock_policyE2EE6_M_ptrEv, symObjAddr: 0x2118, symBinAddr: 0x10000DEDC, symSize: 0x1E }
  - { offsetInCU: 0xCDC9, offset: 0x33E17, size: 0x8, addend: 0x0, symName: __ZNSt23_Sp_counted_ptr_inplaceIN6tinyrv4CoreESaIvELN9__gnu_cxx12_Lock_policyE2EEC1IJ10SimContextiPNS0_13ProcessorImplEEEES2_DpOT_, symObjAddr: 0x1FFE, symBinAddr: 0x10000DDC2, symSize: 0xFC }
  - { offsetInCU: 0xCE26, offset: 0x33E74, size: 0x8, addend: 0x0, symName: __ZNSt15__allocated_ptrISaISt23_Sp_counted_ptr_inplaceIN6tinyrv4CoreESaIvELN9__gnu_cxx12_Lock_policyE2EEEE3getEv, symObjAddr: 0x1FE0, symBinAddr: 0x10000DDA4, symSize: 0x1E }
  - { offsetInCU: 0xCE2E, offset: 0x33E7C, size: 0x8, addend: 0x0, symName: __ZNSt23_Sp_counted_ptr_inplaceIN6tinyrv4CoreESaIvELN9__gnu_cxx12_Lock_policyE2EEC1IJ10SimContextiPNS0_13ProcessorImplEEEES2_DpOT_, symObjAddr: 0x1FFE, symBinAddr: 0x10000DDC2, symSize: 0xFC }
  - { offsetInCU: 0xCEEA, offset: 0x33F38, size: 0x8, addend: 0x0, symName: __ZNSt15__allocated_ptrISaISt23_Sp_counted_ptr_inplaceIN6tinyrv4CoreESaIvELN9__gnu_cxx12_Lock_policyE2EEEED1Ev, symObjAddr: 0x1F8C, symBinAddr: 0x10000DD50, symSize: 0x54 }
  - { offsetInCU: 0xCFF6, offset: 0x34044, size: 0x8, addend: 0x0, symName: __ZSt18__allocate_guardedISaISt23_Sp_counted_ptr_inplaceIN6tinyrv4CoreESaIvELN9__gnu_cxx12_Lock_policyE2EEEESt15__allocated_ptrIT_ERS9_, symObjAddr: 0x1F36, symBinAddr: 0x10000DCFA, symSize: 0x56 }
  - { offsetInCU: 0xCFB3, offset: 0x34001, size: 0x8, addend: 0x0, symName: __ZNSt15__allocated_ptrISaISt10_List_nodeISt10shared_ptrI13SimObjectBaseEEEEaSEDn, symObjAddr: 0x1F18, symBinAddr: 0x10000DCDC, symSize: 0x1E }
  - { offsetInCU: 0xCFBB, offset: 0x34009, size: 0x8, addend: 0x0, symName: __ZSt18__allocate_guardedISaISt23_Sp_counted_ptr_inplaceIN6tinyrv4CoreESaIvELN9__gnu_cxx12_Lock_policyE2EEEESt15__allocated_ptrIT_ERS9_, symObjAddr: 0x1F36, symBinAddr: 0x10000DCFA, symSize: 0x56 }
  - { offsetInCU: 0xD0BD, offset: 0x3410B, size: 0x8, addend: 0x0, symName: __ZNSt15__allocated_ptrISaISt10_List_nodeISt10shared_ptrI13SimObjectBaseEEEED1Ev, symObjAddr: 0x1EC4, symBinAddr: 0x10000DC88, symSize: 0x54 }
  - { offsetInCU: 0xD169, offset: 0x341B7, size: 0x8, addend: 0x0, symName: __ZNSt15__allocated_ptrISaISt10_List_nodeISt10shared_ptrI13SimObjectBaseEEEEC1ERS5_PS4_, symObjAddr: 0x1E8E, symBinAddr: 0x10000DC52, symSize: 0x36 }
  - { offsetInCU: 0xD171, offset: 0x341BF, size: 0x8, addend: 0x0, symName: __ZNSt15__allocated_ptrISaISt10_List_nodeISt10shared_ptrI13SimObjectBaseEEEED1Ev, symObjAddr: 0x1EC4, symBinAddr: 0x10000DC88, symSize: 0x54 }
  - { offsetInCU: 0xD158, offset: 0x341A6, size: 0x8, addend: 0x0, symName: __ZNSt7__cxx1110_List_baseISt10shared_ptrI13SimObjectBaseESaIS3_EE11_M_get_nodeEv, symObjAddr: 0x1E56, symBinAddr: 0x10000DC1A, symSize: 0x38 }
  - { offsetInCU: 0xD1B9, offset: 0x34207, size: 0x8, addend: 0x0, symName: __ZNSt16_Sp_counted_baseILN9__gnu_cxx12_Lock_policyE2EE15_M_add_ref_copyEv, symObjAddr: 0x1DEA, symBinAddr: 0x10000DBAE, symSize: 0x6C }
  - { offsetInCU: 0xD299, offset: 0x342E7, size: 0x8, addend: 0x0, symName: __ZNSt12__shared_ptrIN6tinyrv4CoreELN9__gnu_cxx12_Lock_policyE2EE31_M_enable_shared_from_this_withIS1_S1_EENSt9enable_ifIXntsrNS4_15__has_esft_baseIT0_vEE5valueEvE4typeEPT_, symObjAddr: 0x1DDA, symBinAddr: 0x10000DB9E, symSize: 0x10 }
  - { offsetInCU: 0xD484, offset: 0x344D2, size: 0x8, addend: 0x0, symName: __ZNSt14__shared_countILN9__gnu_cxx12_Lock_policyE2EEC1IN6tinyrv4CoreESaIvEJ10SimContextiPNS4_13ProcessorImplEEEERPT_St20_Sp_alloc_shared_tagIT0_EDpOT1_, symObjAddr: 0x1C72, symBinAddr: 0x10000DA36, symSize: 0x168 }
  - { offsetInCU: 0xD619, offset: 0x34667, size: 0x8, addend: 0x0, symName: __ZSt4moveIRPN6tinyrv4CoreEEONSt16remove_referenceIT_E4typeEOS5_, symObjAddr: 0x1C64, symBinAddr: 0x10000DA28, symSize: 0xE }
  - { offsetInCU: 0xD621, offset: 0x3466F, size: 0x8, addend: 0x0, symName: __ZNSt14__shared_countILN9__gnu_cxx12_Lock_policyE2EEC1IN6tinyrv4CoreESaIvEJ10SimContextiPNS4_13ProcessorImplEEEERPT_St20_Sp_alloc_shared_tagIT0_EDpOT1_, symObjAddr: 0x1C72, symBinAddr: 0x10000DA36, symSize: 0x168 }
  - { offsetInCU: 0xD61E, offset: 0x3466C, size: 0x8, addend: 0x0, symName: __ZNSt7__cxx114listISt10shared_ptrI13SimObjectBaseESaIS3_EE14_M_create_nodeIJS3_EEEPSt10_List_nodeIS3_EDpOT_, symObjAddr: 0x1B7A, symBinAddr: 0x10000D93E, symSize: 0xEA }
  - { offsetInCU: 0xD626, offset: 0x34674, size: 0x8, addend: 0x0, symName: __ZSt4moveIRPN6tinyrv4CoreEEONSt16remove_referenceIT_E4typeEOS5_, symObjAddr: 0x1C64, symBinAddr: 0x10000DA28, symSize: 0xE }
  - { offsetInCU: 0xD7AC, offset: 0x347FA, size: 0x8, addend: 0x0, symName: __ZSt7forwardISt10shared_ptrI13SimObjectBaseEEOT_RNSt16remove_referenceIS3_E4typeE, symObjAddr: 0x1B6C, symBinAddr: 0x10000D930, symSize: 0xE }
  - { offsetInCU: 0xD7B4, offset: 0x34802, size: 0x8, addend: 0x0, symName: __ZNSt7__cxx114listISt10shared_ptrI13SimObjectBaseESaIS3_EE14_M_create_nodeIJS3_EEEPSt10_List_nodeIS3_EDpOT_, symObjAddr: 0x1B7A, symBinAddr: 0x10000D93E, symSize: 0xEA }
  - { offsetInCU: 0xD7E8, offset: 0x34836, size: 0x8, addend: 0x0, symName: __ZNSt14__shared_countILN9__gnu_cxx12_Lock_policyE2EEC1ERKS2_, symObjAddr: 0x1B30, symBinAddr: 0x10000D8F4, symSize: 0x3C }
  - { offsetInCU: 0xD7F0, offset: 0x3483E, size: 0x8, addend: 0x0, symName: __ZSt7forwardISt10shared_ptrI13SimObjectBaseEEOT_RNSt16remove_referenceIS3_E4typeE, symObjAddr: 0x1B6C, symBinAddr: 0x10000D930, symSize: 0xE }
  - { offsetInCU: 0xD8EF, offset: 0x3493D, size: 0x8, addend: 0x0, symName: __ZNSt12__shared_ptrIN6tinyrv4CoreELN9__gnu_cxx12_Lock_policyE2EEC2ISaIvEJ10SimContextiPNS0_13ProcessorImplEEEESt20_Sp_alloc_shared_tagIT_EDpOT0_, symObjAddr: 0x1A94, symBinAddr: 0x10000D858, symSize: 0x9C }
  - { offsetInCU: 0xD8F7, offset: 0x34945, size: 0x8, addend: 0x0, symName: __ZNSt14__shared_countILN9__gnu_cxx12_Lock_policyE2EEC1ERKS2_, symObjAddr: 0x1B30, symBinAddr: 0x10000D8F4, symSize: 0x3C }
  - { offsetInCU: 0xD8F3, offset: 0x34941, size: 0x8, addend: 0x0, symName: __ZNSt15__new_allocatorISt10_List_nodeISt10shared_ptrI13SimObjectBaseEEE10deallocateEPS4_m, symObjAddr: 0x1A70, symBinAddr: 0x10000D834, symSize: 0x24 }
  - { offsetInCU: 0xD948, offset: 0x34996, size: 0x8, addend: 0x0, symName: __ZNSt15__new_allocatorISt10_List_nodeISt10shared_ptrI12SimEventBaseEEE10deallocateEPS4_m, symObjAddr: 0x1A4C, symBinAddr: 0x10000D810, symSize: 0x24 }
  - { offsetInCU: 0xDA5B, offset: 0x34AA9, size: 0x8, addend: 0x0, symName: __ZSt4swapIPN6tinyrv4CoreEENSt9enable_ifIXsrSt6__and_IJSt6__not_ISt15__is_tuple_likeIT_EESt21is_move_constructibleIS7_ESt18is_move_assignableIS7_EEE5valueEvE4typeERS7_SH_, symObjAddr: 0x19F9, symBinAddr: 0x10000D7BD, symSize: 0x53 }
  - { offsetInCU: 0xDA05, offset: 0x34A53, size: 0x8, addend: 0x0, symName: __ZNSt7__cxx114listISt10shared_ptrI13SimObjectBaseESaIS3_EE9_M_insertIJS3_EEEvSt14_List_iteratorIS3_EDpOT_, symObjAddr: 0x1968, symBinAddr: 0x10000D75E, symSize: 0x5E }
  - { offsetInCU: 0xDAF7, offset: 0x34B45, size: 0x8, addend: 0x0, symName: __ZSt4moveIRSt10shared_ptrI13SimObjectBaseEEONSt16remove_referenceIT_E4typeEOS5_, symObjAddr: 0x195A, symBinAddr: 0x10000D750, symSize: 0xE }
  - { offsetInCU: 0xDAFF, offset: 0x34B4D, size: 0x8, addend: 0x0, symName: __ZNSt7__cxx114listISt10shared_ptrI13SimObjectBaseESaIS3_EE9_M_insertIJS3_EEEvSt14_List_iteratorIS3_EDpOT_, symObjAddr: 0x1968, symBinAddr: 0x10000D75E, symSize: 0x5E }
  - { offsetInCU: 0xDB6C, offset: 0x34BBA, size: 0x8, addend: 0x0, symName: __ZNSt12__shared_ptrI13SimObjectBaseLN9__gnu_cxx12_Lock_policyE2EEC2IN6tinyrv4CoreEvEERKS_IT_LS2_2EE, symObjAddr: 0x191E, symBinAddr: 0x10000D714, symSize: 0x3C }
  - { offsetInCU: 0xDB74, offset: 0x34BC2, size: 0x8, addend: 0x0, symName: __ZSt4moveIRSt10shared_ptrI13SimObjectBaseEEONSt16remove_referenceIT_E4typeEOS5_, symObjAddr: 0x195A, symBinAddr: 0x10000D750, symSize: 0xE }
  - { offsetInCU: 0xDC3A, offset: 0x34C88, size: 0x8, addend: 0x0, symName: __ZNSt10shared_ptrIN6tinyrv4CoreEEC1ISaIvEJ10SimContextiPNS0_13ProcessorImplEEEESt20_Sp_alloc_shared_tagIT_EDpOT0_, symObjAddr: 0x18AA, symBinAddr: 0x10000D6A0, symSize: 0x74 }
  - { offsetInCU: 0xDCB4, offset: 0x34D02, size: 0x8, addend: 0x0, symName: __ZSt7forwardI10SimContextEOT_RNSt16remove_referenceIS1_E4typeE, symObjAddr: 0x189C, symBinAddr: 0x10000D692, symSize: 0xE }
  - { offsetInCU: 0xDCBC, offset: 0x34D0A, size: 0x8, addend: 0x0, symName: __ZNSt10shared_ptrIN6tinyrv4CoreEEC1ISaIvEJ10SimContextiPNS0_13ProcessorImplEEEESt20_Sp_alloc_shared_tagIT_EDpOT0_, symObjAddr: 0x18AA, symBinAddr: 0x10000D6A0, symSize: 0x74 }
  - { offsetInCU: 0xDD29, offset: 0x34D77, size: 0x8, addend: 0x0, symName: __ZN9__gnu_cxx16__aligned_membufISt10shared_ptrI12SimEventBaseEE7_M_addrEv, symObjAddr: 0x188E, symBinAddr: 0x10000D684, symSize: 0xE }
  - { offsetInCU: 0xDD31, offset: 0x34D7F, size: 0x8, addend: 0x0, symName: __ZSt7forwardI10SimContextEOT_RNSt16remove_referenceIS1_E4typeE, symObjAddr: 0x189C, symBinAddr: 0x10000D692, symSize: 0xE }
  - { offsetInCU: 0xDD60, offset: 0x34DAE, size: 0x8, addend: 0x0, symName: __ZN9__gnu_cxx16__aligned_membufISt10shared_ptrI13SimObjectBaseEE7_M_addrEv, symObjAddr: 0x1880, symBinAddr: 0x10000D676, symSize: 0xE }
  - { offsetInCU: 0xDD68, offset: 0x34DB6, size: 0x8, addend: 0x0, symName: __ZN9__gnu_cxx16__aligned_membufISt10shared_ptrI12SimEventBaseEE7_M_addrEv, symObjAddr: 0x188E, symBinAddr: 0x10000D684, symSize: 0xE }
  - { offsetInCU: 0xDE58, offset: 0x34EA6, size: 0x8, addend: 0x0, symName: __ZNSt10shared_ptrI12SimEventBaseED1Ev, symObjAddr: 0x1864, symBinAddr: 0x10000D65A, symSize: 0x1C }
  - { offsetInCU: 0xDECC, offset: 0x34F1A, size: 0x8, addend: 0x0, symName: __ZNSt12__shared_ptrI12SimEventBaseLN9__gnu_cxx12_Lock_policyE2EED2Ev, symObjAddr: 0x1844, symBinAddr: 0x10000D63A, symSize: 0x20 }
  - { offsetInCU: 0xDEB5, offset: 0x34F03, size: 0x8, addend: 0x0, symName: __ZNSt7__cxx1110_List_baseISt10shared_ptrI13SimObjectBaseESaIS3_EE11_M_inc_sizeEm, symObjAddr: 0x181E, symBinAddr: 0x10000D614, symSize: 0x26 }
  - { offsetInCU: 0xDEBD, offset: 0x34F0B, size: 0x8, addend: 0x0, symName: __ZNSt12__shared_ptrI12SimEventBaseLN9__gnu_cxx12_Lock_policyE2EED2Ev, symObjAddr: 0x1844, symBinAddr: 0x10000D63A, symSize: 0x20 }
  - { offsetInCU: 0xDEF8, offset: 0x34F46, size: 0x8, addend: 0x0, symName: __ZNKSt12__shared_ptrIN6tinyrv4CoreELN9__gnu_cxx12_Lock_policyE2EE3getEv, symObjAddr: 0x180C, symBinAddr: 0x10000D602, symSize: 0x12 }
  - { offsetInCU: 0xDF27, offset: 0x34F75, size: 0x8, addend: 0x0, symName: __ZNSt12__shared_ptrIN6tinyrv4CoreELN9__gnu_cxx12_Lock_policyE2EE4swapERS4_, symObjAddr: 0x17CA, symBinAddr: 0x10000D5C0, symSize: 0x42 }
  - { offsetInCU: 0xE01F, offset: 0x3506D, size: 0x8, addend: 0x0, symName: __ZSt4moveIRSt12__shared_ptrIN6tinyrv4CoreELN9__gnu_cxx12_Lock_policyE2EEEONSt16remove_referenceIT_E4typeEOS8_, symObjAddr: 0x17BB, symBinAddr: 0x10000D5B1, symSize: 0xF }
  - { offsetInCU: 0xE030, offset: 0x3507E, size: 0x8, addend: 0x0, symName: __ZNSt12__shared_ptrIN6tinyrv4CoreELN9__gnu_cxx12_Lock_policyE2EEC1EOS4_, symObjAddr: 0x1764, symBinAddr: 0x10000D55A, symSize: 0x57 }
  - { offsetInCU: 0xE038, offset: 0x35086, size: 0x8, addend: 0x0, symName: __ZSt4moveIRSt12__shared_ptrIN6tinyrv4CoreELN9__gnu_cxx12_Lock_policyE2EEEONSt16remove_referenceIT_E4typeEOS8_, symObjAddr: 0x17BB, symBinAddr: 0x10000D5B1, symSize: 0xF }
  - { offsetInCU: 0xE022, offset: 0x35070, size: 0x8, addend: 0x0, symName: __ZNSt7__cxx114listISt10shared_ptrI13SimObjectBaseESaIS3_EE9push_backEOS3_, symObjAddr: 0x171C, symBinAddr: 0x10000D512, symSize: 0x48 }
  - { offsetInCU: 0xE02A, offset: 0x35078, size: 0x8, addend: 0x0, symName: __ZNSt12__shared_ptrIN6tinyrv4CoreELN9__gnu_cxx12_Lock_policyE2EEC1EOS4_, symObjAddr: 0x1764, symBinAddr: 0x10000D55A, symSize: 0x57 }
  - { offsetInCU: 0xE0DB, offset: 0x35129, size: 0x8, addend: 0x0, symName: __ZNSt10shared_ptrI13SimObjectBaseEC1IN6tinyrv4CoreEvEERKS_IT_E, symObjAddr: 0x16F6, symBinAddr: 0x10000D4EC, symSize: 0x26 }
  - { offsetInCU: 0xE0E3, offset: 0x35131, size: 0x8, addend: 0x0, symName: __ZNSt7__cxx114listISt10shared_ptrI13SimObjectBaseESaIS3_EE9push_backEOS3_, symObjAddr: 0x171C, symBinAddr: 0x10000D512, symSize: 0x48 }
  - { offsetInCU: 0xE1BB, offset: 0x35209, size: 0x8, addend: 0x0, symName: __ZSt11make_sharedIN6tinyrv4CoreEJ10SimContextiPNS0_13ProcessorImplEEESt10shared_ptrINSt9enable_ifIXntsrSt8is_arrayIT_E5valueES8_E4typeEEDpOT0_, symObjAddr: 0x1688, symBinAddr: 0x10000D47E, symSize: 0x6E }
  - { offsetInCU: 0xE1C3, offset: 0x35211, size: 0x8, addend: 0x0, symName: __ZNSt10shared_ptrI13SimObjectBaseEC1IN6tinyrv4CoreEvEERKS_IT_E, symObjAddr: 0x16F6, symBinAddr: 0x10000D4EC, symSize: 0x26 }
  - { offsetInCU: 0xE1DF, offset: 0x3522D, size: 0x8, addend: 0x0, symName: __ZNSt14__shared_countILN9__gnu_cxx12_Lock_policyE2EEC1Ev, symObjAddr: 0x1672, symBinAddr: 0x10000D468, symSize: 0x16 }
  - { offsetInCU: 0xE1E7, offset: 0x35235, size: 0x8, addend: 0x0, symName: __ZSt11make_sharedIN6tinyrv4CoreEJ10SimContextiPNS0_13ProcessorImplEEESt10shared_ptrINSt9enable_ifIXntsrSt8is_arrayIT_E5valueES8_E4typeEEDpOT0_, symObjAddr: 0x1688, symBinAddr: 0x10000D47E, symSize: 0x6E }
  - { offsetInCU: 0xE1ED, offset: 0x3523B, size: 0x8, addend: 0x0, symName: __ZNSt7__cxx1110_List_baseISt10shared_ptrI13SimObjectBaseESaIS3_EE11_M_put_nodeEPSt10_List_nodeIS3_E, symObjAddr: 0x162E, symBinAddr: 0x10000D424, symSize: 0x44 }
  - { offsetInCU: 0xE2A8, offset: 0x352F6, size: 0x8, addend: 0x0, symName: __ZNSt7__cxx1110_List_baseISt10shared_ptrI13SimObjectBaseESaIS3_EE21_M_get_Node_allocatorEv, symObjAddr: 0x1620, symBinAddr: 0x10000D416, symSize: 0xE }
  - { offsetInCU: 0xE2B0, offset: 0x352FE, size: 0x8, addend: 0x0, symName: __ZNSt7__cxx1110_List_baseISt10shared_ptrI13SimObjectBaseESaIS3_EE11_M_put_nodeEPSt10_List_nodeIS3_E, symObjAddr: 0x162E, symBinAddr: 0x10000D424, symSize: 0x44 }
  - { offsetInCU: 0xE2F0, offset: 0x3533E, size: 0x8, addend: 0x0, symName: __ZNSt7__cxx1110_List_baseISt10shared_ptrI12SimEventBaseESaIS3_EE11_M_dec_sizeEm, symObjAddr: 0x15FC, symBinAddr: 0x10000D3F2, symSize: 0x24 }
  - { offsetInCU: 0xE333, offset: 0x35381, size: 0x8, addend: 0x0, symName: __ZNKSt12__shared_ptrI12SimEventBaseLN9__gnu_cxx12_Lock_policyE2EE3getEv, symObjAddr: 0x15EA, symBinAddr: 0x10000D3E0, symSize: 0x12 }
  - { offsetInCU: 0xE362, offset: 0x353B0, size: 0x8, addend: 0x0, symName: __ZN9__gnu_cxx16__aligned_membufISt10shared_ptrI12SimEventBaseEE6_M_ptrEv, symObjAddr: 0x15D0, symBinAddr: 0x10000D3C6, symSize: 0x1A }
  - { offsetInCU: 0xE36A, offset: 0x353B8, size: 0x8, addend: 0x0, symName: __ZNKSt12__shared_ptrI12SimEventBaseLN9__gnu_cxx12_Lock_policyE2EE3getEv, symObjAddr: 0x15EA, symBinAddr: 0x10000D3E0, symSize: 0x12 }
  - { offsetInCU: 0xE391, offset: 0x353DF, size: 0x8, addend: 0x0, symName: __ZN9__gnu_cxx16__aligned_membufISt10shared_ptrI13SimObjectBaseEE6_M_ptrEv, symObjAddr: 0x15B6, symBinAddr: 0x10000D3AC, symSize: 0x1A }
  - { offsetInCU: 0xE399, offset: 0x353E7, size: 0x8, addend: 0x0, symName: __ZN9__gnu_cxx16__aligned_membufISt10shared_ptrI12SimEventBaseEE6_M_ptrEv, symObjAddr: 0x15D0, symBinAddr: 0x10000D3C6, symSize: 0x1A }
  - { offsetInCU: 0xE3C0, offset: 0x3540E, size: 0x8, addend: 0x0, symName: __ZNSt7__cxx1110_List_baseISt10shared_ptrI12SimEventBaseESaIS3_EE11_M_put_nodeEPSt10_List_nodeIS3_E, symObjAddr: 0x1572, symBinAddr: 0x10000D368, symSize: 0x44 }
  - { offsetInCU: 0xE47B, offset: 0x354C9, size: 0x8, addend: 0x0, symName: __ZNSt7__cxx1110_List_baseISt10shared_ptrI12SimEventBaseESaIS3_EE21_M_get_Node_allocatorEv, symObjAddr: 0x1564, symBinAddr: 0x10000D35A, symSize: 0xE }
  - { offsetInCU: 0xE483, offset: 0x354D1, size: 0x8, addend: 0x0, symName: __ZNSt7__cxx1110_List_baseISt10shared_ptrI12SimEventBaseESaIS3_EE11_M_put_nodeEPSt10_List_nodeIS3_E, symObjAddr: 0x1572, symBinAddr: 0x10000D368, symSize: 0x44 }
  - { offsetInCU: 0xE4AA, offset: 0x354F8, size: 0x8, addend: 0x0, symName: __ZNKSt12__shared_ptrI13SimObjectBaseLN9__gnu_cxx12_Lock_policyE2EE3getEv, symObjAddr: 0x1552, symBinAddr: 0x10000D348, symSize: 0x12 }
  - { offsetInCU: 0xE4D9, offset: 0x35527, size: 0x8, addend: 0x0, symName: __ZNKSt19__shared_ptr_accessIN6tinyrv4CoreELN9__gnu_cxx12_Lock_policyE2ELb0ELb0EE6_M_getEv, symObjAddr: 0x1538, symBinAddr: 0x10000D32E, symSize: 0x1A }
  - { offsetInCU: 0xE4E1, offset: 0x3552F, size: 0x8, addend: 0x0, symName: __ZNKSt12__shared_ptrI13SimObjectBaseLN9__gnu_cxx12_Lock_policyE2EE3getEv, symObjAddr: 0x1552, symBinAddr: 0x10000D348, symSize: 0x12 }
  - { offsetInCU: 0xE508, offset: 0x35556, size: 0x8, addend: 0x0, symName: __ZNSt12__shared_ptrIN6tinyrv4CoreELN9__gnu_cxx12_Lock_policyE2EEaSEOS4_, symObjAddr: 0x14E4, symBinAddr: 0x10000D2DA, symSize: 0x54 }
  - { offsetInCU: 0xE5C3, offset: 0x35611, size: 0x8, addend: 0x0, symName: __ZSt4moveIRSt10shared_ptrIN6tinyrv4CoreEEEONSt16remove_referenceIT_E4typeEOS6_, symObjAddr: 0x14D6, symBinAddr: 0x10000D2CC, symSize: 0xE }
  - { offsetInCU: 0xE5CB, offset: 0x35619, size: 0x8, addend: 0x0, symName: __ZNSt12__shared_ptrIN6tinyrv4CoreELN9__gnu_cxx12_Lock_policyE2EEaSEOS4_, symObjAddr: 0x14E4, symBinAddr: 0x10000D2DA, symSize: 0x54 }
  - { offsetInCU: 0xE59F, offset: 0x355ED, size: 0x8, addend: 0x0, symName: __ZN11SimPlatform13create_objectIN6tinyrv4CoreEJiPNS1_13ProcessorImplEEEEN9SimObjectIT_E3PtrEDpOT0_, symObjAddr: 0x1410, symBinAddr: 0x10000D206, symSize: 0xC6 }
  - { offsetInCU: 0xE5A7, offset: 0x355F5, size: 0x8, addend: 0x0, symName: __ZSt4moveIRSt10shared_ptrIN6tinyrv4CoreEEEONSt16remove_referenceIT_E4typeEOS6_, symObjAddr: 0x14D6, symBinAddr: 0x10000D2CC, symSize: 0xE }
  - { offsetInCU: 0xE67C, offset: 0x356CA, size: 0x8, addend: 0x0, symName: __ZNSt10shared_ptrI13SimObjectBaseED1Ev, symObjAddr: 0x13F4, symBinAddr: 0x10000D1EA, symSize: 0x1C }
  - { offsetInCU: 0xE6F0, offset: 0x3573E, size: 0x8, addend: 0x0, symName: __ZNSt12__shared_ptrI13SimObjectBaseLN9__gnu_cxx12_Lock_policyE2EED2Ev, symObjAddr: 0x13D4, symBinAddr: 0x10000D1CA, symSize: 0x20 }
  - { offsetInCU: 0xE748, offset: 0x35796, size: 0x8, addend: 0x0, symName: __ZSt7forwardIPN6tinyrv13ProcessorImplEEOT_RNSt16remove_referenceIS3_E4typeE, symObjAddr: 0x13C6, symBinAddr: 0x10000D1BC, symSize: 0xE }
  - { offsetInCU: 0xE750, offset: 0x3579E, size: 0x8, addend: 0x0, symName: __ZNSt12__shared_ptrI13SimObjectBaseLN9__gnu_cxx12_Lock_policyE2EED2Ev, symObjAddr: 0x13D4, symBinAddr: 0x10000D1CA, symSize: 0x20 }
  - { offsetInCU: 0xE78A, offset: 0x357D8, size: 0x8, addend: 0x0, symName: __ZNSt12__shared_ptrIN6tinyrv4CoreELN9__gnu_cxx12_Lock_policyE2EEC2Ev, symObjAddr: 0x139C, symBinAddr: 0x10000D192, symSize: 0x2A }
  - { offsetInCU: 0xE792, offset: 0x357E0, size: 0x8, addend: 0x0, symName: __ZSt7forwardIPN6tinyrv13ProcessorImplEEOT_RNSt16remove_referenceIS3_E4typeE, symObjAddr: 0x13C6, symBinAddr: 0x10000D1BC, symSize: 0xE }
  - { offsetInCU: 0xE773, offset: 0x357C1, size: 0x8, addend: 0x0, symName: __ZNSt7__cxx1110_List_baseISt10shared_ptrI13SimObjectBaseESaIS3_EE7_M_initEv, symObjAddr: 0x1380, symBinAddr: 0x10000D176, symSize: 0x1C }
  - { offsetInCU: 0xE814, offset: 0x35862, size: 0x8, addend: 0x0, symName: __ZNSt15__new_allocatorISt10_List_nodeISt10shared_ptrI12SimEventBaseEEED2Ev, symObjAddr: 0x1374, symBinAddr: 0x10000D16A, symSize: 0xC }
  - { offsetInCU: 0xE810, offset: 0x3585E, size: 0x8, addend: 0x0, symName: __ZNSt7__cxx1110_List_baseISt10shared_ptrI13SimObjectBaseESaIS3_EE8_M_clearEv, symObjAddr: 0x12E0, symBinAddr: 0x10000D0D6, symSize: 0x94 }
  - { offsetInCU: 0xE97D, offset: 0x359CB, size: 0x8, addend: 0x0, symName: __ZNSt15__new_allocatorISt10_List_nodeISt10shared_ptrI13SimObjectBaseEEED2Ev, symObjAddr: 0x12D4, symBinAddr: 0x10000D0CA, symSize: 0xC }
  - { offsetInCU: 0xE978, offset: 0x359C6, size: 0x8, addend: 0x0, symName: __ZNKSt20_List_const_iteratorISt10shared_ptrI12SimEventBaseEE13_M_const_castEv, symObjAddr: 0x12AC, symBinAddr: 0x10000D0A2, symSize: 0x28 }
  - { offsetInCU: 0xE980, offset: 0x359CE, size: 0x8, addend: 0x0, symName: __ZNSt15__new_allocatorISt10_List_nodeISt10shared_ptrI13SimObjectBaseEEED2Ev, symObjAddr: 0x12D4, symBinAddr: 0x10000D0CA, symSize: 0xC }
  - { offsetInCU: 0xE9A7, offset: 0x359F5, size: 0x8, addend: 0x0, symName: __ZNSt7__cxx114listISt10shared_ptrI12SimEventBaseESaIS3_EE8_M_eraseESt14_List_iteratorIS3_E, symObjAddr: 0x121A, symBinAddr: 0x10000D010, symSize: 0x92 }
  - { offsetInCU: 0xEA6F, offset: 0x35ABD, size: 0x8, addend: 0x0, symName: __ZNKSt19__shared_ptr_accessI12SimEventBaseLN9__gnu_cxx12_Lock_policyE2ELb0ELb0EE6_M_getEv, symObjAddr: 0x1200, symBinAddr: 0x10000CFF6, symSize: 0x1A }
  - { offsetInCU: 0xEA77, offset: 0x35AC5, size: 0x8, addend: 0x0, symName: __ZNSt7__cxx114listISt10shared_ptrI12SimEventBaseESaIS3_EE8_M_eraseESt14_List_iteratorIS3_E, symObjAddr: 0x121A, symBinAddr: 0x10000D010, symSize: 0x92 }
  - { offsetInCU: 0xEA9E, offset: 0x35AEC, size: 0x8, addend: 0x0, symName: __ZNSt10_List_nodeISt10shared_ptrI12SimEventBaseEE9_M_valptrEv, symObjAddr: 0x11E2, symBinAddr: 0x10000CFD8, symSize: 0x1E }
  - { offsetInCU: 0xEAA6, offset: 0x35AF4, size: 0x8, addend: 0x0, symName: __ZNKSt19__shared_ptr_accessI12SimEventBaseLN9__gnu_cxx12_Lock_policyE2ELb0ELb0EE6_M_getEv, symObjAddr: 0x1200, symBinAddr: 0x10000CFF6, symSize: 0x1A }
  - { offsetInCU: 0xEB4F, offset: 0x35B9D, size: 0x8, addend: 0x0, symName: __ZNSt14_List_iteratorISt10shared_ptrI12SimEventBaseEEC1EPNSt8__detail15_List_node_baseE, symObjAddr: 0x11C8, symBinAddr: 0x10000CFBE, symSize: 0x1A }
  - { offsetInCU: 0xEB57, offset: 0x35BA5, size: 0x8, addend: 0x0, symName: __ZNSt10_List_nodeISt10shared_ptrI12SimEventBaseEE9_M_valptrEv, symObjAddr: 0x11E2, symBinAddr: 0x10000CFD8, symSize: 0x1E }
  - { offsetInCU: 0xEB31, offset: 0x35B7F, size: 0x8, addend: 0x0, symName: __ZNKSt19__shared_ptr_accessI13SimObjectBaseLN9__gnu_cxx12_Lock_policyE2ELb0ELb0EE6_M_getEv, symObjAddr: 0x11AE, symBinAddr: 0x10000CFA4, symSize: 0x1A }
  - { offsetInCU: 0xEB39, offset: 0x35B87, size: 0x8, addend: 0x0, symName: __ZNSt14_List_iteratorISt10shared_ptrI12SimEventBaseEEC1EPNSt8__detail15_List_node_baseE, symObjAddr: 0x11C8, symBinAddr: 0x10000CFBE, symSize: 0x1A }
  - { offsetInCU: 0xEB60, offset: 0x35BAE, size: 0x8, addend: 0x0, symName: __ZNSt10_List_nodeISt10shared_ptrI13SimObjectBaseEE9_M_valptrEv, symObjAddr: 0x1190, symBinAddr: 0x10000CF86, symSize: 0x1E }
  - { offsetInCU: 0xEB68, offset: 0x35BB6, size: 0x8, addend: 0x0, symName: __ZNKSt19__shared_ptr_accessI13SimObjectBaseLN9__gnu_cxx12_Lock_policyE2ELb0ELb0EE6_M_getEv, symObjAddr: 0x11AE, symBinAddr: 0x10000CFA4, symSize: 0x1A }
  - { offsetInCU: 0xEC12, offset: 0x35C60, size: 0x8, addend: 0x0, symName: __ZNSt14_List_iteratorISt10shared_ptrI13SimObjectBaseEEC1EPNSt8__detail15_List_node_baseE, symObjAddr: 0x1176, symBinAddr: 0x10000CF6C, symSize: 0x1A }
  - { offsetInCU: 0xEC1A, offset: 0x35C68, size: 0x8, addend: 0x0, symName: __ZNSt10_List_nodeISt10shared_ptrI13SimObjectBaseEE9_M_valptrEv, symObjAddr: 0x1190, symBinAddr: 0x10000CF86, symSize: 0x1E }
  - { offsetInCU: 0xEBF3, offset: 0x35C41, size: 0x8, addend: 0x0, symName: __ZNSt7__cxx1110_List_baseISt10shared_ptrI12SimEventBaseESaIS3_EE7_M_initEv, symObjAddr: 0x115A, symBinAddr: 0x10000CF50, symSize: 0x1C }
  - { offsetInCU: 0xEC22, offset: 0x35C70, size: 0x8, addend: 0x0, symName: __ZNSt7__cxx1110_List_baseISt10shared_ptrI12SimEventBaseESaIS3_EE8_M_clearEv, symObjAddr: 0x10C6, symBinAddr: 0x10000CEBC, symSize: 0x94 }
  - { offsetInCU: 0xED61, offset: 0x35DAF, size: 0x8, addend: 0x0, symName: __ZSt7forwardIiEOT_RNSt16remove_referenceIS0_E4typeE, symObjAddr: 0x109A, symBinAddr: 0x10000CEAE, symSize: 0xE }
  - { offsetInCU: 0xED70, offset: 0x35DBE, size: 0x8, addend: 0x0, symName: __ZNKSt19__shared_ptr_accessIN6tinyrv4CoreELN9__gnu_cxx12_Lock_policyE2ELb0ELb0EEptEv, symObjAddr: 0x1080, symBinAddr: 0x10000CE94, symSize: 0x1A }
  - { offsetInCU: 0xED78, offset: 0x35DC6, size: 0x8, addend: 0x0, symName: __ZSt7forwardIiEOT_RNSt16remove_referenceIS0_E4typeE, symObjAddr: 0x109A, symBinAddr: 0x10000CEAE, symSize: 0xE }
  - { offsetInCU: 0xED9F, offset: 0x35DED, size: 0x8, addend: 0x0, symName: __ZNSt10shared_ptrIN6tinyrv4CoreEEaSEOS2_, symObjAddr: 0x104A, symBinAddr: 0x10000CE5E, symSize: 0x36 }
  - { offsetInCU: 0xEDA7, offset: 0x35DF5, size: 0x8, addend: 0x0, symName: __ZNKSt19__shared_ptr_accessIN6tinyrv4CoreELN9__gnu_cxx12_Lock_policyE2ELb0ELb0EEptEv, symObjAddr: 0x1080, symBinAddr: 0x10000CE94, symSize: 0x1A }
  - { offsetInCU: 0xEDE2, offset: 0x35E30, size: 0x8, addend: 0x0, symName: __ZN9SimObjectIN6tinyrv4CoreEE6CreateIJiPNS0_13ProcessorImplEEEESt10shared_ptrIS1_EDpOT_, symObjAddr: 0xFEE, symBinAddr: 0x10000CE02, symSize: 0x5C }
  - { offsetInCU: 0xEDEA, offset: 0x35E38, size: 0x8, addend: 0x0, symName: __ZNSt10shared_ptrIN6tinyrv4CoreEEaSEOS2_, symObjAddr: 0x104A, symBinAddr: 0x10000CE5E, symSize: 0x36 }
  - { offsetInCU: 0xEE96, offset: 0x35EE4, size: 0x8, addend: 0x0, symName: __ZNSt14__shared_countILN9__gnu_cxx12_Lock_policyE2EED1Ev, symObjAddr: 0xFC4, symBinAddr: 0x10000CDD8, symSize: 0x2A }
  - { offsetInCU: 0xEE9E, offset: 0x35EEC, size: 0x8, addend: 0x0, symName: __ZN9SimObjectIN6tinyrv4CoreEE6CreateIJiPNS0_13ProcessorImplEEEESt10shared_ptrIS1_EDpOT_, symObjAddr: 0xFEE, symBinAddr: 0x10000CE02, symSize: 0x5C }
  - { offsetInCU: 0xEECA, offset: 0x35F18, size: 0x8, addend: 0x0, symName: __ZNSt10shared_ptrIN6tinyrv4CoreEEC1Ev, symObjAddr: 0xFA8, symBinAddr: 0x10000CDBC, symSize: 0x1C }
  - { offsetInCU: 0xEED2, offset: 0x35F20, size: 0x8, addend: 0x0, symName: __ZNSt7__cxx114listISt10shared_ptrI13SimObjectBaseESaIS3_EE5clearEv, symObjAddr: 0xF80, symBinAddr: 0x10000CD94, symSize: 0x28 }
  - { offsetInCU: 0xEF6D, offset: 0x35FBB, size: 0x8, addend: 0x0, symName: __ZNSt7__cxx1110_List_baseISt10shared_ptrI12SimEventBaseESaIS3_EED2Ev, symObjAddr: 0xF58, symBinAddr: 0x10000CD6C, symSize: 0x28 }
  - { offsetInCU: 0xEFE7, offset: 0x36035, size: 0x8, addend: 0x0, symName: __ZNSt7__cxx1110_List_baseISt10shared_ptrI12SimEventBaseESaIS3_EE10_List_implC1Ev, symObjAddr: 0xF2A, symBinAddr: 0x10000CD3E, symSize: 0x2E }
  - { offsetInCU: 0xF07D, offset: 0x360CB, size: 0x8, addend: 0x0, symName: __ZNSt7__cxx1110_List_baseISt10shared_ptrI13SimObjectBaseESaIS3_EED2Ev, symObjAddr: 0xF02, symBinAddr: 0x10000CD16, symSize: 0x28 }
  - { offsetInCU: 0xF0F7, offset: 0x36145, size: 0x8, addend: 0x0, symName: __ZNSt7__cxx1110_List_baseISt10shared_ptrI13SimObjectBaseESaIS3_EE10_List_implC1Ev, symObjAddr: 0xED4, symBinAddr: 0x10000CCE8, symSize: 0x2E }
  - { offsetInCU: 0xF11F, offset: 0x3616D, size: 0x8, addend: 0x0, symName: __ZNSt14_List_iteratorISt10shared_ptrI12SimEventBaseEEppEv, symObjAddr: 0xEB4, symBinAddr: 0x10000CCC8, symSize: 0x20 }
  - { offsetInCU: 0xF14E, offset: 0x3619C, size: 0x8, addend: 0x0, symName: __ZNSt7__cxx114listISt10shared_ptrI12SimEventBaseESaIS3_EE5eraseESt20_List_const_iteratorIS3_E, symObjAddr: 0xE6A, symBinAddr: 0x10000CC7E, symSize: 0x4A }
  - { offsetInCU: 0xF156, offset: 0x361A4, size: 0x8, addend: 0x0, symName: __ZNSt14_List_iteratorISt10shared_ptrI12SimEventBaseEEppEv, symObjAddr: 0xEB4, symBinAddr: 0x10000CCC8, symSize: 0x20 }
  - { offsetInCU: 0xF225, offset: 0x36273, size: 0x8, addend: 0x0, symName: __ZNSt20_List_const_iteratorISt10shared_ptrI12SimEventBaseEEC1ERKSt14_List_iteratorIS2_E, symObjAddr: 0xE4C, symBinAddr: 0x10000CC60, symSize: 0x1E }
  - { offsetInCU: 0xF207, offset: 0x36255, size: 0x8, addend: 0x0, symName: __ZNKSt19__shared_ptr_accessI12SimEventBaseLN9__gnu_cxx12_Lock_policyE2ELb0ELb0EEptEv, symObjAddr: 0xE32, symBinAddr: 0x10000CC46, symSize: 0x1A }
  - { offsetInCU: 0xF20F, offset: 0x3625D, size: 0x8, addend: 0x0, symName: __ZNSt20_List_const_iteratorISt10shared_ptrI12SimEventBaseEEC1ERKSt14_List_iteratorIS2_E, symObjAddr: 0xE4C, symBinAddr: 0x10000CC60, symSize: 0x1E }
  - { offsetInCU: 0xF236, offset: 0x36284, size: 0x8, addend: 0x0, symName: __ZNKSt14_List_iteratorISt10shared_ptrI12SimEventBaseEEdeEv, symObjAddr: 0xE14, symBinAddr: 0x10000CC28, symSize: 0x1E }
  - { offsetInCU: 0xF2AD, offset: 0x362FB, size: 0x8, addend: 0x0, symName: __ZStneRKSt14_List_iteratorISt10shared_ptrI12SimEventBaseEES5_, symObjAddr: 0xDF1, symBinAddr: 0x10000CC05, symSize: 0x23 }
  - { offsetInCU: 0xF2C2, offset: 0x36310, size: 0x8, addend: 0x0, symName: __ZNSt7__cxx114listISt10shared_ptrI12SimEventBaseESaIS3_EE3endEv, symObjAddr: 0xDCC, symBinAddr: 0x10000CBE0, symSize: 0x25 }
  - { offsetInCU: 0xF2CA, offset: 0x36318, size: 0x8, addend: 0x0, symName: __ZStneRKSt14_List_iteratorISt10shared_ptrI12SimEventBaseEES5_, symObjAddr: 0xDF1, symBinAddr: 0x10000CC05, symSize: 0x23 }
  - { offsetInCU: 0xF2F1, offset: 0x3633F, size: 0x8, addend: 0x0, symName: __ZNSt7__cxx114listISt10shared_ptrI12SimEventBaseESaIS3_EE5beginEv, symObjAddr: 0xDA4, symBinAddr: 0x10000CBB8, symSize: 0x28 }
  - { offsetInCU: 0xF2F9, offset: 0x36347, size: 0x8, addend: 0x0, symName: __ZNSt7__cxx114listISt10shared_ptrI12SimEventBaseESaIS3_EE3endEv, symObjAddr: 0xDCC, symBinAddr: 0x10000CBE0, symSize: 0x25 }
  - { offsetInCU: 0xF320, offset: 0x3636E, size: 0x8, addend: 0x0, symName: __ZNKSt19__shared_ptr_accessI13SimObjectBaseLN9__gnu_cxx12_Lock_policyE2ELb0ELb0EEptEv, symObjAddr: 0xD8A, symBinAddr: 0x10000CB9E, symSize: 0x1A }
  - { offsetInCU: 0xF328, offset: 0x36376, size: 0x8, addend: 0x0, symName: __ZNSt7__cxx114listISt10shared_ptrI12SimEventBaseESaIS3_EE5beginEv, symObjAddr: 0xDA4, symBinAddr: 0x10000CBB8, symSize: 0x28 }
  - { offsetInCU: 0xF34F, offset: 0x3639D, size: 0x8, addend: 0x0, symName: __ZNKSt14_List_iteratorISt10shared_ptrI13SimObjectBaseEEdeEv, symObjAddr: 0xD6C, symBinAddr: 0x10000CB80, symSize: 0x1E }
  - { offsetInCU: 0xF37E, offset: 0x363CC, size: 0x8, addend: 0x0, symName: __ZNSt14_List_iteratorISt10shared_ptrI13SimObjectBaseEEppEv, symObjAddr: 0xD4C, symBinAddr: 0x10000CB60, symSize: 0x20 }
  - { offsetInCU: 0xF3F6, offset: 0x36444, size: 0x8, addend: 0x0, symName: __ZStneRKSt14_List_iteratorISt10shared_ptrI13SimObjectBaseEES5_, symObjAddr: 0xD29, symBinAddr: 0x10000CB3D, symSize: 0x23 }
  - { offsetInCU: 0xF40A, offset: 0x36458, size: 0x8, addend: 0x0, symName: __ZNSt7__cxx114listISt10shared_ptrI13SimObjectBaseESaIS3_EE3endEv, symObjAddr: 0xD04, symBinAddr: 0x10000CB18, symSize: 0x25 }
  - { offsetInCU: 0xF412, offset: 0x36460, size: 0x8, addend: 0x0, symName: __ZStneRKSt14_List_iteratorISt10shared_ptrI13SimObjectBaseEES5_, symObjAddr: 0xD29, symBinAddr: 0x10000CB3D, symSize: 0x23 }
  - { offsetInCU: 0xF439, offset: 0x36487, size: 0x8, addend: 0x0, symName: __ZNSt7__cxx114listISt10shared_ptrI13SimObjectBaseESaIS3_EE5beginEv, symObjAddr: 0xCDC, symBinAddr: 0x10000CAF0, symSize: 0x28 }
  - { offsetInCU: 0xF441, offset: 0x3648F, size: 0x8, addend: 0x0, symName: __ZNSt7__cxx114listISt10shared_ptrI13SimObjectBaseESaIS3_EE3endEv, symObjAddr: 0xD04, symBinAddr: 0x10000CB18, symSize: 0x25 }
  - { offsetInCU: 0xF468, offset: 0x364B6, size: 0x8, addend: 0x0, symName: __ZNSt7__cxx114listISt10shared_ptrI12SimEventBaseESaIS3_EE5clearEv, symObjAddr: 0xCB4, symBinAddr: 0x10000CAC8, symSize: 0x28 }
  - { offsetInCU: 0xF49A, offset: 0x364E8, size: 0x8, addend: 0x0, symName: __ZN6tinyrv9Processor9showStatsEv, symObjAddr: 0xB9A, symBinAddr: 0x10000CAAA, symSize: 0x1E }
  - { offsetInCU: 0xF4CD, offset: 0x3651B, size: 0x8, addend: 0x0, symName: __ZN6tinyrv9Processor3runEb, symObjAddr: 0xB72, symBinAddr: 0x10000CA82, symSize: 0x28 }
  - { offsetInCU: 0xF4D5, offset: 0x36523, size: 0x8, addend: 0x0, symName: __ZN6tinyrv9Processor9showStatsEv, symObjAddr: 0xB9A, symBinAddr: 0x10000CAAA, symSize: 0x1E }
  - { offsetInCU: 0xF513, offset: 0x36561, size: 0x8, addend: 0x0, symName: __ZN6tinyrv9Processor10attach_ramEPNS_3RAME, symObjAddr: 0xB48, symBinAddr: 0x10000CA58, symSize: 0x2A }
  - { offsetInCU: 0xF59A, offset: 0x365E8, size: 0x8, addend: 0x0, symName: __ZN6tinyrv9ProcessorD1Ev, symObjAddr: 0xB18, symBinAddr: 0x10000CA28, symSize: 0x30 }
  - { offsetInCU: 0xF5A2, offset: 0x365F0, size: 0x8, addend: 0x0, symName: __ZN6tinyrv9Processor10attach_ramEPNS_3RAME, symObjAddr: 0xB48, symBinAddr: 0x10000CA58, symSize: 0x2A }
  - { offsetInCU: 0xF5C8, offset: 0x36616, size: 0x8, addend: 0x0, symName: __ZN6tinyrv9ProcessorD2Ev, symObjAddr: 0xAE8, symBinAddr: 0x10000C9F8, symSize: 0x30 }
  - { offsetInCU: 0xF5D0, offset: 0x3661E, size: 0x8, addend: 0x0, symName: __ZN6tinyrv9ProcessorD1Ev, symObjAddr: 0xB18, symBinAddr: 0x10000CA28, symSize: 0x30 }
  - { offsetInCU: 0xF613, offset: 0x36661, size: 0x8, addend: 0x0, symName: __ZN6tinyrv9ProcessorC1Ev, symObjAddr: 0xA8C, symBinAddr: 0x10000C99C, symSize: 0x5C }
  - { offsetInCU: 0xF641, offset: 0x3668F, size: 0x8, addend: 0x0, symName: __ZN6tinyrv9ProcessorC2Ev, symObjAddr: 0xA30, symBinAddr: 0x10000C940, symSize: 0x5C }
  - { offsetInCU: 0xF659, offset: 0x366A7, size: 0x8, addend: 0x0, symName: __ZN6tinyrv13ProcessorImpl9showStatsEv, symObjAddr: 0xA0C, symBinAddr: 0x10000C91C, symSize: 0x24 }
  - { offsetInCU: 0xF68C, offset: 0x366DA, size: 0x8, addend: 0x0, symName: __ZN6tinyrv13ProcessorImpl3runEb, symObjAddr: 0x970, symBinAddr: 0x10000C880, symSize: 0x9C }
  - { offsetInCU: 0xF694, offset: 0x366E2, size: 0x8, addend: 0x0, symName: __ZN6tinyrv13ProcessorImpl9showStatsEv, symObjAddr: 0xA0C, symBinAddr: 0x10000C91C, symSize: 0x24 }
  - { offsetInCU: 0xF71D, offset: 0x3676B, size: 0x8, addend: 0x0, symName: __ZN6tinyrv13ProcessorImpl10attach_ramEPNS_3RAME, symObjAddr: 0x93E, symBinAddr: 0x10000C84E, symSize: 0x32 }
  - { offsetInCU: 0xF763, offset: 0x367B1, size: 0x8, addend: 0x0, symName: __ZN6tinyrv13ProcessorImpl5resetEv, symObjAddr: 0x91A, symBinAddr: 0x10000C82A, symSize: 0x24 }
  - { offsetInCU: 0xF7DB, offset: 0x36829, size: 0x8, addend: 0x0, symName: __ZN6tinyrv13ProcessorImplD1Ev, symObjAddr: 0x8F2, symBinAddr: 0x10000C802, symSize: 0x28 }
  - { offsetInCU: 0xF7E3, offset: 0x36831, size: 0x8, addend: 0x0, symName: __ZN6tinyrv13ProcessorImpl5resetEv, symObjAddr: 0x91A, symBinAddr: 0x10000C82A, symSize: 0x24 }
  - { offsetInCU: 0xF809, offset: 0x36857, size: 0x8, addend: 0x0, symName: __ZN6tinyrv13ProcessorImplD2Ev, symObjAddr: 0x8CA, symBinAddr: 0x10000C7DA, symSize: 0x28 }
  - { offsetInCU: 0xF811, offset: 0x3685F, size: 0x8, addend: 0x0, symName: __ZN6tinyrv13ProcessorImplD1Ev, symObjAddr: 0x8F2, symBinAddr: 0x10000C802, symSize: 0x28 }
  - { offsetInCU: 0xF854, offset: 0x368A2, size: 0x8, addend: 0x0, symName: __ZN6tinyrv13ProcessorImplC1Ev, symObjAddr: 0x830, symBinAddr: 0x10000C740, symSize: 0x9A }
  - { offsetInCU: 0xF883, offset: 0x368D1, size: 0x8, addend: 0x0, symName: __ZN6tinyrv13ProcessorImplC2Ev, symObjAddr: 0x796, symBinAddr: 0x10000C6A6, symSize: 0x9A }
  - { offsetInCU: 0xF8E5, offset: 0x36933, size: 0x8, addend: 0x0, symName: __ZNSt10shared_ptrIN6tinyrv4CoreEED1Ev, symObjAddr: 0x77A, symBinAddr: 0x10000C68A, symSize: 0x1C }
  - { offsetInCU: 0xF959, offset: 0x369A7, size: 0x8, addend: 0x0, symName: __ZNSt12__shared_ptrIN6tinyrv4CoreELN9__gnu_cxx12_Lock_policyE2EED1Ev, symObjAddr: 0x75A, symBinAddr: 0x10000C66A, symSize: 0x20 }
  - { offsetInCU: 0xF987, offset: 0x369D5, size: 0x8, addend: 0x0, symName: __ZNSt12__shared_ptrIN6tinyrv4CoreELN9__gnu_cxx12_Lock_policyE2EED2Ev, symObjAddr: 0x73A, symBinAddr: 0x10000C64A, symSize: 0x20 }
  - { offsetInCU: 0xF970, offset: 0x369BE, size: 0x8, addend: 0x0, symName: __ZN11SimPlatform5clearEv, symObjAddr: 0x70A, symBinAddr: 0x10000C61A, symSize: 0x30 }
  - { offsetInCU: 0xF9DB, offset: 0x36A29, size: 0x8, addend: 0x0, symName: __ZN11SimPlatformD0Ev, symObjAddr: 0x6E4, symBinAddr: 0x10000C5F4, symSize: 0x26 }
  - { offsetInCU: 0xF9E3, offset: 0x36A31, size: 0x8, addend: 0x0, symName: __ZN11SimPlatform5clearEv, symObjAddr: 0x70A, symBinAddr: 0x10000C61A, symSize: 0x30 }
  - { offsetInCU: 0xFA09, offset: 0x36A57, size: 0x8, addend: 0x0, symName: __ZN11SimPlatformD1Ev, symObjAddr: 0x696, symBinAddr: 0x10000C5A6, symSize: 0x4E }
  - { offsetInCU: 0xFA50, offset: 0x36A9E, size: 0x8, addend: 0x0, symName: __ZN11SimPlatformC1Ev, symObjAddr: 0x648, symBinAddr: 0x10000C558, symSize: 0x4E }
  - { offsetInCU: 0xFACE, offset: 0x36B1C, size: 0x8, addend: 0x0, symName: __ZNSt7__cxx114listISt10shared_ptrI12SimEventBaseESaIS3_EED1Ev, symObjAddr: 0x62C, symBinAddr: 0x10000C53C, symSize: 0x1C }
  - { offsetInCU: 0xFB15, offset: 0x36B63, size: 0x8, addend: 0x0, symName: __ZNSt7__cxx114listISt10shared_ptrI12SimEventBaseESaIS3_EEC1Ev, symObjAddr: 0x610, symBinAddr: 0x10000C520, symSize: 0x1C }
  - { offsetInCU: 0xFB63, offset: 0x36BB1, size: 0x8, addend: 0x0, symName: __ZNSt7__cxx1110_List_baseISt10shared_ptrI12SimEventBaseESaIS3_EEC2Ev, symObjAddr: 0x5F4, symBinAddr: 0x10000C504, symSize: 0x1C }
  - { offsetInCU: 0xFBC8, offset: 0x36C16, size: 0x8, addend: 0x0, symName: __ZNSt7__cxx1110_List_baseISt10shared_ptrI12SimEventBaseESaIS3_EE10_List_implD1Ev, symObjAddr: 0x5D0, symBinAddr: 0x10000C4E0, symSize: 0x24 }
  - { offsetInCU: 0xFBD0, offset: 0x36C1E, size: 0x8, addend: 0x0, symName: __ZNSt7__cxx1110_List_baseISt10shared_ptrI12SimEventBaseESaIS3_EEC2Ev, symObjAddr: 0x5F4, symBinAddr: 0x10000C504, symSize: 0x1C }
  - { offsetInCU: 0xFC31, offset: 0x36C7F, size: 0x8, addend: 0x0, symName: __ZNSt7__cxx114listISt10shared_ptrI13SimObjectBaseESaIS3_EED1Ev, symObjAddr: 0x5B4, symBinAddr: 0x10000C4C4, symSize: 0x1C }
  - { offsetInCU: 0xFC78, offset: 0x36CC6, size: 0x8, addend: 0x0, symName: __ZNSt7__cxx114listISt10shared_ptrI13SimObjectBaseESaIS3_EEC1Ev, symObjAddr: 0x598, symBinAddr: 0x10000C4A8, symSize: 0x1C }
  - { offsetInCU: 0xFCC6, offset: 0x36D14, size: 0x8, addend: 0x0, symName: __ZNSt7__cxx1110_List_baseISt10shared_ptrI13SimObjectBaseESaIS3_EEC2Ev, symObjAddr: 0x57C, symBinAddr: 0x10000C48C, symSize: 0x1C }
  - { offsetInCU: 0xFD2B, offset: 0x36D79, size: 0x8, addend: 0x0, symName: __ZNSt7__cxx1110_List_baseISt10shared_ptrI13SimObjectBaseESaIS3_EE10_List_implD1Ev, symObjAddr: 0x558, symBinAddr: 0x10000C468, symSize: 0x24 }
  - { offsetInCU: 0xFD33, offset: 0x36D81, size: 0x8, addend: 0x0, symName: __ZNSt7__cxx1110_List_baseISt10shared_ptrI13SimObjectBaseESaIS3_EEC2Ev, symObjAddr: 0x57C, symBinAddr: 0x10000C48C, symSize: 0x1C }
  - { offsetInCU: 0xFD2D, offset: 0x36D7B, size: 0x8, addend: 0x0, symName: __ZN11SimPlatform4tickEv, symObjAddr: 0x3DE, symBinAddr: 0x10000C2EE, symSize: 0x17A }
  - { offsetInCU: 0xFE08, offset: 0x36E56, size: 0x8, addend: 0x0, symName: __ZN11SimPlatform5resetEv, symObjAddr: 0x336, symBinAddr: 0x10000C246, symSize: 0xA8 }
  - { offsetInCU: 0xFE90, offset: 0x36EDE, size: 0x8, addend: 0x0, symName: __ZN11SimPlatform8finalizeEv, symObjAddr: 0x31A, symBinAddr: 0x10000C22A, symSize: 0x1C }
  - { offsetInCU: 0xFE98, offset: 0x36EE6, size: 0x8, addend: 0x0, symName: __ZN11SimPlatform5resetEv, symObjAddr: 0x336, symBinAddr: 0x10000C246, symSize: 0xA8 }
  - { offsetInCU: 0xFEBF, offset: 0x36F0D, size: 0x8, addend: 0x0, symName: __ZN11SimPlatform10initializeEv, symObjAddr: 0x30A, symBinAddr: 0x10000C21A, symSize: 0x10 }
  - { offsetInCU: 0xFEEE, offset: 0x36F3C, size: 0x8, addend: 0x0, symName: __ZN11SimPlatform8instanceEv, symObjAddr: 0x291, symBinAddr: 0x10000C1A1, symSize: 0x79 }
  - { offsetInCU: 0xFEF6, offset: 0x36F44, size: 0x8, addend: 0x0, symName: __ZN11SimPlatform10initializeEv, symObjAddr: 0x30A, symBinAddr: 0x10000C21A, symSize: 0x10 }
  - { offsetInCU: 0xFF3F, offset: 0x36F8D, size: 0x8, addend: 0x0, symName: __ZZN11SimPlatform8instanceEvE6s_inst, symObjAddr: 0x2770, symBinAddr: 0x100058000, symSize: 0x0 }
  - { offsetInCU: 0xFF5A, offset: 0x36FA8, size: 0x8, addend: 0x0, symName: __ZN10SimContextC1Ev, symObjAddr: 0x286, symBinAddr: 0x10000C196, symSize: 0xB }
  - { offsetInCU: 0xFF62, offset: 0x36FB0, size: 0x8, addend: 0x0, symName: __ZN11SimPlatform8instanceEv, symObjAddr: 0x291, symBinAddr: 0x10000C1A1, symSize: 0x79 }
  - { offsetInCU: 0xFF74, offset: 0x36FC2, size: 0x8, addend: 0x0, symName: __ZNK12SimEventBase6cyclesEv, symObjAddr: 0x274, symBinAddr: 0x10000C184, symSize: 0x12 }
  - { offsetInCU: 0xFF7C, offset: 0x36FCA, size: 0x8, addend: 0x0, symName: __ZN10SimContextC1Ev, symObjAddr: 0x286, symBinAddr: 0x10000C196, symSize: 0xB }
  - { offsetInCU: 0x10076, offset: 0x370C4, size: 0x8, addend: 0x0, symName: __ZL18__gthread_active_pv, symObjAddr: 0x130, symBinAddr: 0x10000C178, symSize: 0xC }
  - { offsetInCU: 0x10084, offset: 0x370D2, size: 0x8, addend: 0x0, symName: __ZNSt8__detail17_List_node_header7_M_initEv, symObjAddr: 0x48, symBinAddr: 0x10000C146, symSize: 0x32 }
  - { offsetInCU: 0x100F2, offset: 0x37140, size: 0x8, addend: 0x0, symName: __ZNSt8__detail17_List_node_headerC1Ev, symObjAddr: 0x2C, symBinAddr: 0x10000C12A, symSize: 0x1C }
  - { offsetInCU: 0x1598, offset: 0x386EA, size: 0x8, addend: 0x0, symName: __ZStL19piecewise_construct, symObjAddr: 0x3860, symBinAddr: 0x10002E5E0, symSize: 0x0 }
  - { offsetInCU: 0x4A87, offset: 0x3BBD9, size: 0x8, addend: 0x0, symName: __ZStL8__ioinit, symObjAddr: 0x7A790, symBinAddr: 0x100058FC3, symSize: 0x0 }
  - { offsetInCU: 0x5112, offset: 0x3C264, size: 0x8, addend: 0x0, symName: __ZStL13allocator_arg, symObjAddr: 0x3861, symBinAddr: 0x10002E5E1, symSize: 0x0 }
  - { offsetInCU: 0x512F, offset: 0x3C281, size: 0x8, addend: 0x0, symName: __ZStL6ignore, symObjAddr: 0x3862, symBinAddr: 0x10002E5E2, symSize: 0x0 }
  - { offsetInCU: 0x5210, offset: 0x3C362, size: 0x8, addend: 0x0, symName: __ZN9__gnu_cxxL21__default_lock_policyE, symObjAddr: 0x3864, symBinAddr: 0x10002E5E4, symSize: 0x0 }
  - { offsetInCU: 0x16BA9, offset: 0x4DCFB, size: 0x8, addend: 0x0, symName: __GLOBAL__sub_I_core.cpp, symObjAddr: 0x383E, symBinAddr: 0x100010ACC, symSize: 0xB }
  - { offsetInCU: 0x16BFB, offset: 0x4DD4D, size: 0x8, addend: 0x0, symName: __ZSt8_DestroyIN6tinyrv14FunctionalUnitEEvPT_, symObjAddr: 0x381C, symBinAddr: 0x100010AAA, symSize: 0x22 }
  - { offsetInCU: 0x16C03, offset: 0x4DD55, size: 0x8, addend: 0x0, symName: __GLOBAL__sub_I_core.cpp, symObjAddr: 0x383E, symBinAddr: 0x100010ACC, symSize: 0xB }
  - { offsetInCU: 0x16BEF, offset: 0x4DD41, size: 0x8, addend: 0x0, symName: __ZN9SimObjectIN6tinyrv4CoreEE4implEv, symObjAddr: 0x3800, symBinAddr: 0x100010A9C, symSize: 0xE }
  - { offsetInCU: 0x16C50, offset: 0x4DDA2, size: 0x8, addend: 0x0, symName: __ZNSt23_Sp_counted_ptr_inplaceIN6tinyrv14FunctionalUnitESaIvELN9__gnu_cxx12_Lock_policyE2EE5_Impl8_M_allocEv, symObjAddr: 0x37E6, symBinAddr: 0x100010A82, symSize: 0x1A }
  - { offsetInCU: 0x16C58, offset: 0x4DDAA, size: 0x8, addend: 0x0, symName: __ZN9SimObjectIN6tinyrv4CoreEE4implEv, symObjAddr: 0x3800, symBinAddr: 0x100010A9C, symSize: 0xE }
  - { offsetInCU: 0x16C7F, offset: 0x4DDD1, size: 0x8, addend: 0x0, symName: __ZN9SimObjectIN6tinyrv4CoreEE7do_tickEv, symObjAddr: 0x37C2, symBinAddr: 0x100010A5E, symSize: 0x24 }
  - { offsetInCU: 0x16CAE, offset: 0x4DE00, size: 0x8, addend: 0x0, symName: __ZN9SimObjectIN6tinyrv4CoreEE8do_resetEv, symObjAddr: 0x379E, symBinAddr: 0x100010A3A, symSize: 0x24 }
  - { offsetInCU: 0x16CE1, offset: 0x4DE33, size: 0x8, addend: 0x0, symName: __ZNSt23_Sp_counted_ptr_inplaceIN6tinyrv14FunctionalUnitESaIvELN9__gnu_cxx12_Lock_policyE2EE14_M_get_deleterERKSt9type_info, symObjAddr: 0x373C, symBinAddr: 0x1000109D8, symSize: 0x62 }
  - { offsetInCU: 0x16CE9, offset: 0x4DE3B, size: 0x8, addend: 0x0, symName: __ZN9SimObjectIN6tinyrv4CoreEE8do_resetEv, symObjAddr: 0x379E, symBinAddr: 0x100010A3A, symSize: 0x24 }
  - { offsetInCU: 0x16D3C, offset: 0x4DE8E, size: 0x8, addend: 0x0, symName: __ZNSt23_Sp_counted_ptr_inplaceIN6tinyrv14FunctionalUnitESaIvELN9__gnu_cxx12_Lock_policyE2EE10_M_destroyEv, symObjAddr: 0x36D2, symBinAddr: 0x10001096E, symSize: 0x6A }
  - { offsetInCU: 0x16E0C, offset: 0x4DF5E, size: 0x8, addend: 0x0, symName: __ZNSt23_Sp_counted_ptr_inplaceIN6tinyrv14FunctionalUnitESaIvELN9__gnu_cxx12_Lock_policyE2EE10_M_disposeEv, symObjAddr: 0x368A, symBinAddr: 0x100010926, symSize: 0x48 }
  - { offsetInCU: 0x16E14, offset: 0x4DF66, size: 0x8, addend: 0x0, symName: __ZNSt23_Sp_counted_ptr_inplaceIN6tinyrv14FunctionalUnitESaIvELN9__gnu_cxx12_Lock_policyE2EE10_M_destroyEv, symObjAddr: 0x36D2, symBinAddr: 0x10001096E, symSize: 0x6A }
  - { offsetInCU: 0x16EF4, offset: 0x4E046, size: 0x8, addend: 0x0, symName: __ZNSt23_Sp_counted_ptr_inplaceIN6tinyrv14FunctionalUnitESaIvELN9__gnu_cxx12_Lock_policyE2EED0Ev, symObjAddr: 0x3664, symBinAddr: 0x100010900, symSize: 0x26 }
  - { offsetInCU: 0x16EFC, offset: 0x4E04E, size: 0x8, addend: 0x0, symName: __ZNSt23_Sp_counted_ptr_inplaceIN6tinyrv14FunctionalUnitESaIvELN9__gnu_cxx12_Lock_policyE2EE10_M_disposeEv, symObjAddr: 0x368A, symBinAddr: 0x100010926, symSize: 0x48 }
  - { offsetInCU: 0x16F22, offset: 0x4E074, size: 0x8, addend: 0x0, symName: __ZNSt23_Sp_counted_ptr_inplaceIN6tinyrv14FunctionalUnitESaIvELN9__gnu_cxx12_Lock_policyE2EED1Ev, symObjAddr: 0x3636, symBinAddr: 0x1000108D2, symSize: 0x2E }
  - { offsetInCU: 0x16F18, offset: 0x4E06A, size: 0x8, addend: 0x0, symName: __Z41__static_initialization_and_destruction_0v, symObjAddr: 0x35FD, symBinAddr: 0x100010899, symSize: 0x39 }
  - { offsetInCU: 0x16F20, offset: 0x4E072, size: 0x8, addend: 0x0, symName: __ZNSt23_Sp_counted_ptr_inplaceIN6tinyrv14FunctionalUnitESaIvELN9__gnu_cxx12_Lock_policyE2EED1Ev, symObjAddr: 0x3636, symBinAddr: 0x1000108D2, symSize: 0x2E }
  - { offsetInCU: 0x16F27, offset: 0x4E079, size: 0x8, addend: 0x0, symName: __ZN9__gnu_cxx16__aligned_bufferIN6tinyrv14FunctionalUnitEE7_M_addrEv, symObjAddr: 0x3598, symBinAddr: 0x10001088A, symSize: 0xE }
  - { offsetInCU: 0x16FD3, offset: 0x4E125, size: 0x8, addend: 0x0, symName: __ZSt10_ConstructIN6tinyrv14FunctionalUnitEJ10SimContextiEEvPT_DpOT0_, symObjAddr: 0x350B, symBinAddr: 0x1000107FD, symSize: 0x8D }
  - { offsetInCU: 0x16FDB, offset: 0x4E12D, size: 0x8, addend: 0x0, symName: __ZN9__gnu_cxx16__aligned_bufferIN6tinyrv14FunctionalUnitEE7_M_addrEv, symObjAddr: 0x3598, symBinAddr: 0x10001088A, symSize: 0xE }
  - { offsetInCU: 0x16FE6, offset: 0x4E138, size: 0x8, addend: 0x0, symName: __ZNSt15__new_allocatorISt23_Sp_counted_ptr_inplaceIN6tinyrv14FunctionalUnitESaIvELN9__gnu_cxx12_Lock_policyE2EEE10deallocateEPS6_m, symObjAddr: 0x34D8, symBinAddr: 0x1000107D8, symSize: 0x24 }
  - { offsetInCU: 0x1713C, offset: 0x4E28E, size: 0x8, addend: 0x0, symName: __ZSt11__addressofISaISt23_Sp_counted_ptr_inplaceIN6tinyrv14FunctionalUnitESaIvELN9__gnu_cxx12_Lock_policyE2EEEEPT_RS8_, symObjAddr: 0x34C9, symBinAddr: 0x1000107C9, symSize: 0xF }
  - { offsetInCU: 0x17085, offset: 0x4E1D7, size: 0x8, addend: 0x0, symName: __ZNSt15__new_allocatorISt23_Sp_counted_ptr_inplaceIN6tinyrv14FunctionalUnitESaIvELN9__gnu_cxx12_Lock_policyE2EEE8allocateEmPKv, symObjAddr: 0x3460, symBinAddr: 0x100010760, symSize: 0x69 }
  - { offsetInCU: 0x1708D, offset: 0x4E1DF, size: 0x8, addend: 0x0, symName: __ZSt11__addressofISaISt23_Sp_counted_ptr_inplaceIN6tinyrv14FunctionalUnitESaIvELN9__gnu_cxx12_Lock_policyE2EEEEPT_RS8_, symObjAddr: 0x34C9, symBinAddr: 0x1000107C9, symSize: 0xF }
  - { offsetInCU: 0x170F9, offset: 0x4E24B, size: 0x8, addend: 0x0, symName: __ZN9__gnu_cxx16__aligned_bufferIN6tinyrv14FunctionalUnitEE6_M_ptrEv, symObjAddr: 0x33AC, symBinAddr: 0x100010746, symSize: 0x1A }
  - { offsetInCU: 0x1721C, offset: 0x4E36E, size: 0x8, addend: 0x0, symName: __ZNSt23_Sp_counted_ptr_inplaceIN6tinyrv14FunctionalUnitESaIvELN9__gnu_cxx12_Lock_policyE2EE5_ImplC1ES2_, symObjAddr: 0x338A, symBinAddr: 0x100010724, symSize: 0x22 }
  - { offsetInCU: 0x17224, offset: 0x4E376, size: 0x8, addend: 0x0, symName: __ZN9__gnu_cxx16__aligned_bufferIN6tinyrv14FunctionalUnitEE6_M_ptrEv, symObjAddr: 0x33AC, symBinAddr: 0x100010746, symSize: 0x1A }
  - { offsetInCU: 0x172DB, offset: 0x4E42D, size: 0x8, addend: 0x0, symName: __ZSt12__to_addressISt23_Sp_counted_ptr_inplaceIN6tinyrv14FunctionalUnitESaIvELN9__gnu_cxx12_Lock_policyE2EEEPT_S8_, symObjAddr: 0x3348, symBinAddr: 0x100010716, symSize: 0xE }
  - { offsetInCU: 0x1732F, offset: 0x4E481, size: 0x8, addend: 0x0, symName: __ZNSt15__allocated_ptrISaISt23_Sp_counted_ptr_inplaceIN6tinyrv14FunctionalUnitESaIvELN9__gnu_cxx12_Lock_policyE2EEEEC1ERS7_PS6_, symObjAddr: 0x3312, symBinAddr: 0x1000106E0, symSize: 0x36 }
  - { offsetInCU: 0x17337, offset: 0x4E489, size: 0x8, addend: 0x0, symName: __ZSt12__to_addressISt23_Sp_counted_ptr_inplaceIN6tinyrv14FunctionalUnitESaIvELN9__gnu_cxx12_Lock_policyE2EEEPT_S8_, symObjAddr: 0x3348, symBinAddr: 0x100010716, symSize: 0xE }
  - { offsetInCU: 0x173BE, offset: 0x4E510, size: 0x8, addend: 0x0, symName: __ZNSt15__new_allocatorISt23_Sp_counted_ptr_inplaceIN6tinyrv14FunctionalUnitESaIvELN9__gnu_cxx12_Lock_policyE2EEED2Ev, symObjAddr: 0x3306, symBinAddr: 0x1000106D4, symSize: 0xC }
  - { offsetInCU: 0x17390, offset: 0x4E4E2, size: 0x8, addend: 0x0, symName: __ZNSt23_Sp_counted_ptr_inplaceIN6tinyrv14FunctionalUnitESaIvELN9__gnu_cxx12_Lock_policyE2EE6_M_ptrEv, symObjAddr: 0x32DA, symBinAddr: 0x1000106B6, symSize: 0x1E }
  - { offsetInCU: 0x173BF, offset: 0x4E511, size: 0x8, addend: 0x0, symName: __ZNSt15__allocated_ptrISaISt23_Sp_counted_ptr_inplaceIN6tinyrv14FunctionalUnitESaIvELN9__gnu_cxx12_Lock_policyE2EEEEaSEDn, symObjAddr: 0x32BC, symBinAddr: 0x100010698, symSize: 0x1E }
  - { offsetInCU: 0x173C7, offset: 0x4E519, size: 0x8, addend: 0x0, symName: __ZNSt23_Sp_counted_ptr_inplaceIN6tinyrv14FunctionalUnitESaIvELN9__gnu_cxx12_Lock_policyE2EE6_M_ptrEv, symObjAddr: 0x32DA, symBinAddr: 0x1000106B6, symSize: 0x1E }
  - { offsetInCU: 0x174CC, offset: 0x4E61E, size: 0x8, addend: 0x0, symName: __ZNSt23_Sp_counted_ptr_inplaceIN6tinyrv14FunctionalUnitESaIvELN9__gnu_cxx12_Lock_policyE2EEC1IJ10SimContextiEEES2_DpOT_, symObjAddr: 0x31EA, symBinAddr: 0x1000105C6, symSize: 0xD2 }
  - { offsetInCU: 0x1750F, offset: 0x4E661, size: 0x8, addend: 0x0, symName: __ZNSt15__allocated_ptrISaISt23_Sp_counted_ptr_inplaceIN6tinyrv14FunctionalUnitESaIvELN9__gnu_cxx12_Lock_policyE2EEEE3getEv, symObjAddr: 0x31CC, symBinAddr: 0x1000105A8, symSize: 0x1E }
  - { offsetInCU: 0x17517, offset: 0x4E669, size: 0x8, addend: 0x0, symName: __ZNSt23_Sp_counted_ptr_inplaceIN6tinyrv14FunctionalUnitESaIvELN9__gnu_cxx12_Lock_policyE2EEC1IJ10SimContextiEEES2_DpOT_, symObjAddr: 0x31EA, symBinAddr: 0x1000105C6, symSize: 0xD2 }
  - { offsetInCU: 0x175DE, offset: 0x4E730, size: 0x8, addend: 0x0, symName: __ZNSt15__allocated_ptrISaISt23_Sp_counted_ptr_inplaceIN6tinyrv14FunctionalUnitESaIvELN9__gnu_cxx12_Lock_policyE2EEEED1Ev, symObjAddr: 0x3178, symBinAddr: 0x100010554, symSize: 0x54 }
  - { offsetInCU: 0x176F4, offset: 0x4E846, size: 0x8, addend: 0x0, symName: __ZSt18__allocate_guardedISaISt23_Sp_counted_ptr_inplaceIN6tinyrv14FunctionalUnitESaIvELN9__gnu_cxx12_Lock_policyE2EEEESt15__allocated_ptrIT_ERS9_, symObjAddr: 0x3122, symBinAddr: 0x1000104FE, symSize: 0x56 }
  - { offsetInCU: 0x1769C, offset: 0x4E7EE, size: 0x8, addend: 0x0, symName: __ZNSt12__shared_ptrIN6tinyrv14FunctionalUnitELN9__gnu_cxx12_Lock_policyE2EE31_M_enable_shared_from_this_withIS1_S1_EENSt9enable_ifIXntsrNS4_15__has_esft_baseIT0_vEE5valueEvE4typeEPT_, symObjAddr: 0x3032, symBinAddr: 0x1000104EE, symSize: 0x10 }
  - { offsetInCU: 0x1786B, offset: 0x4E9BD, size: 0x8, addend: 0x0, symName: __ZNSt14__shared_countILN9__gnu_cxx12_Lock_policyE2EEC1IN6tinyrv14FunctionalUnitESaIvEJ10SimContextiEEERPT_St20_Sp_alloc_shared_tagIT0_EDpOT1_, symObjAddr: 0x2EF6, symBinAddr: 0x1000103B2, symSize: 0x13C }
  - { offsetInCU: 0x17A07, offset: 0x4EB59, size: 0x8, addend: 0x0, symName: __ZSt4moveIRPN6tinyrv14FunctionalUnitEEONSt16remove_referenceIT_E4typeEOS5_, symObjAddr: 0x2EE8, symBinAddr: 0x1000103A4, symSize: 0xE }
  - { offsetInCU: 0x17A0F, offset: 0x4EB61, size: 0x8, addend: 0x0, symName: __ZNSt14__shared_countILN9__gnu_cxx12_Lock_policyE2EEC1IN6tinyrv14FunctionalUnitESaIvEJ10SimContextiEEERPT_St20_Sp_alloc_shared_tagIT0_EDpOT1_, symObjAddr: 0x2EF6, symBinAddr: 0x1000103B2, symSize: 0x13C }
  - { offsetInCU: 0x17AE5, offset: 0x4EC37, size: 0x8, addend: 0x0, symName: __ZNSt12__shared_ptrIN6tinyrv14FunctionalUnitELN9__gnu_cxx12_Lock_policyE2EEC2ISaIvEJ10SimContextiEEESt20_Sp_alloc_shared_tagIT_EDpOT0_, symObjAddr: 0x2D6E, symBinAddr: 0x100010322, symSize: 0x82 }
  - { offsetInCU: 0x17ADB, offset: 0x4EC2D, size: 0x8, addend: 0x0, symName: __ZNSt15__new_allocatorIPN6tinyrv16pipeline_trace_tEE10deallocateEPS2_m, symObjAddr: 0x2D02, symBinAddr: 0x1000102FE, symSize: 0x24 }
  - { offsetInCU: 0x17B30, offset: 0x4EC82, size: 0x8, addend: 0x0, symName: __ZNSt12_Destroy_auxILb1EE9__destroyIPPN6tinyrv16pipeline_trace_tEEEvT_S6_, symObjAddr: 0x2CF3, symBinAddr: 0x1000102EF, symSize: 0xF }
  - { offsetInCU: 0x17B38, offset: 0x4EC8A, size: 0x8, addend: 0x0, symName: __ZNSt15__new_allocatorIPN6tinyrv16pipeline_trace_tEE10deallocateEPS2_m, symObjAddr: 0x2D02, symBinAddr: 0x1000102FE, symSize: 0x24 }
  - { offsetInCU: 0x17C46, offset: 0x4ED98, size: 0x8, addend: 0x0, symName: __ZSt4swapIPN6tinyrv14FunctionalUnitEENSt9enable_ifIXsrSt6__and_IJSt6__not_ISt15__is_tuple_likeIT_EESt21is_move_constructibleIS7_ESt18is_move_assignableIS7_EEE5valueEvE4typeERS7_SH_, symObjAddr: 0x2CA1, symBinAddr: 0x10001029D, symSize: 0x52 }
  - { offsetInCU: 0x17C4E, offset: 0x4EDA0, size: 0x8, addend: 0x0, symName: __ZNSt12_Destroy_auxILb1EE9__destroyIPPN6tinyrv16pipeline_trace_tEEEvT_S6_, symObjAddr: 0x2CF3, symBinAddr: 0x1000102EF, symSize: 0xF }
  - { offsetInCU: 0x17C81, offset: 0x4EDD3, size: 0x8, addend: 0x0, symName: __ZNSt12__shared_ptrI13SimObjectBaseLN9__gnu_cxx12_Lock_policyE2EEC2IN6tinyrv14FunctionalUnitEvEERKS_IT_LS2_2EE, symObjAddr: 0x2BC6, symBinAddr: 0x100010260, symSize: 0x3C }
  - { offsetInCU: 0x17D28, offset: 0x4EE7A, size: 0x8, addend: 0x0, symName: __ZNSt10shared_ptrIN6tinyrv14FunctionalUnitEEC1ISaIvEJ10SimContextiEEESt20_Sp_alloc_shared_tagIT_EDpOT0_, symObjAddr: 0x2B6C, symBinAddr: 0x100010206, symSize: 0x5A }
  - { offsetInCU: 0x17D7B, offset: 0x4EECD, size: 0x8, addend: 0x0, symName: __ZNSt12__shared_ptrIN6tinyrv14FunctionalUnitELN9__gnu_cxx12_Lock_policyE2EE4swapERS4_, symObjAddr: 0x2A78, symBinAddr: 0x1000101C4, symSize: 0x41 }
  - { offsetInCU: 0x17E88, offset: 0x4EFDA, size: 0x8, addend: 0x0, symName: __ZSt4moveIRSt12__shared_ptrIN6tinyrv14FunctionalUnitELN9__gnu_cxx12_Lock_policyE2EEEONSt16remove_referenceIT_E4typeEOS8_, symObjAddr: 0x2A69, symBinAddr: 0x1000101B5, symSize: 0xF }
  - { offsetInCU: 0x17E8F, offset: 0x4EFE1, size: 0x8, addend: 0x0, symName: __ZNSt12__shared_ptrIN6tinyrv14FunctionalUnitELN9__gnu_cxx12_Lock_policyE2EEC1EOS4_, symObjAddr: 0x2A12, symBinAddr: 0x10001015E, symSize: 0x57 }
  - { offsetInCU: 0x17E97, offset: 0x4EFE9, size: 0x8, addend: 0x0, symName: __ZSt4moveIRSt12__shared_ptrIN6tinyrv14FunctionalUnitELN9__gnu_cxx12_Lock_policyE2EEEONSt16remove_referenceIT_E4typeEOS8_, symObjAddr: 0x2A69, symBinAddr: 0x1000101B5, symSize: 0xF }
  - { offsetInCU: 0x17EF7, offset: 0x4F049, size: 0x8, addend: 0x0, symName: __ZNSt10shared_ptrI13SimObjectBaseEC1IN6tinyrv14FunctionalUnitEvEERKS_IT_E, symObjAddr: 0x29A4, symBinAddr: 0x100010138, symSize: 0x26 }
  - { offsetInCU: 0x17FB3, offset: 0x4F105, size: 0x8, addend: 0x0, symName: __ZSt11make_sharedIN6tinyrv14FunctionalUnitEJ10SimContextiEESt10shared_ptrINSt9enable_ifIXntsrSt8is_arrayIT_E5valueES6_E4typeEEDpOT0_, symObjAddr: 0x2951, symBinAddr: 0x1000100E5, symSize: 0x53 }
  - { offsetInCU: 0x17FBB, offset: 0x4F10D, size: 0x8, addend: 0x0, symName: __ZNSt10shared_ptrI13SimObjectBaseEC1IN6tinyrv14FunctionalUnitEvEERKS_IT_E, symObjAddr: 0x29A4, symBinAddr: 0x100010138, symSize: 0x26 }
  - { offsetInCU: 0x17F88, offset: 0x4F0DA, size: 0x8, addend: 0x0, symName: __ZNK9__gnu_cxx17__normal_iteratorIPPN6tinyrv16pipeline_trace_tESt6vectorIS3_SaIS3_EEE4baseEv, symObjAddr: 0x286C, symBinAddr: 0x1000100D6, symSize: 0xE }
  - { offsetInCU: 0x1803E, offset: 0x4F190, size: 0x8, addend: 0x0, symName: __ZN9__gnu_cxx17__normal_iteratorIPPN6tinyrv16pipeline_trace_tESt6vectorIS3_SaIS3_EEEC1ERKS4_, symObjAddr: 0x284E, symBinAddr: 0x1000100B8, symSize: 0x1E }
  - { offsetInCU: 0x1801B, offset: 0x4F16D, size: 0x8, addend: 0x0, symName: __ZNSt12_Vector_baseIPN6tinyrv16pipeline_trace_tESaIS2_EE13_M_deallocateEPS2_m, symObjAddr: 0x2800, symBinAddr: 0x10001006A, symSize: 0x4E }
  - { offsetInCU: 0x18023, offset: 0x4F175, size: 0x8, addend: 0x0, symName: __ZN9__gnu_cxx17__normal_iteratorIPPN6tinyrv16pipeline_trace_tESt6vectorIS3_SaIS3_EEEC1ERKS4_, symObjAddr: 0x284E, symBinAddr: 0x1000100B8, symSize: 0x1E }
  - { offsetInCU: 0x18111, offset: 0x4F263, size: 0x8, addend: 0x0, symName: __ZNSt15__new_allocatorIPN6tinyrv16pipeline_trace_tEED2Ev, symObjAddr: 0x27F4, symBinAddr: 0x10001005E, symSize: 0xC }
  - { offsetInCU: 0x1815C, offset: 0x4F2AE, size: 0x8, addend: 0x0, symName: __ZNSt12_Vector_baseIPN6tinyrv16pipeline_trace_tESaIS2_EE19_M_get_Tp_allocatorEv, symObjAddr: 0x27E6, symBinAddr: 0x100010050, symSize: 0xE }
  - { offsetInCU: 0x18164, offset: 0x4F2B6, size: 0x8, addend: 0x0, symName: __ZNSt15__new_allocatorIPN6tinyrv16pipeline_trace_tEED2Ev, symObjAddr: 0x27F4, symBinAddr: 0x10001005E, symSize: 0xC }
  - { offsetInCU: 0x1818B, offset: 0x4F2DD, size: 0x8, addend: 0x0, symName: __ZNSt12__shared_ptrIN6tinyrv14FunctionalUnitELN9__gnu_cxx12_Lock_policyE2EEaSEOS4_, symObjAddr: 0x2792, symBinAddr: 0x10000FFFC, symSize: 0x54 }
  - { offsetInCU: 0x1825B, offset: 0x4F3AD, size: 0x8, addend: 0x0, symName: __ZSt4moveIRSt10shared_ptrIN6tinyrv14FunctionalUnitEEEONSt16remove_referenceIT_E4typeEOS6_, symObjAddr: 0x2784, symBinAddr: 0x10000FFEE, symSize: 0xE }
  - { offsetInCU: 0x18263, offset: 0x4F3B5, size: 0x8, addend: 0x0, symName: __ZNSt12__shared_ptrIN6tinyrv14FunctionalUnitELN9__gnu_cxx12_Lock_policyE2EEaSEOS4_, symObjAddr: 0x2792, symBinAddr: 0x10000FFFC, symSize: 0x54 }
  - { offsetInCU: 0x18277, offset: 0x4F3C9, size: 0x8, addend: 0x0, symName: __ZN11SimPlatform13create_objectIN6tinyrv14FunctionalUnitEJiEEEN9SimObjectIT_E3PtrEDpOT0_, symObjAddr: 0x26D6, symBinAddr: 0x10000FF40, symSize: 0xAE }
  - { offsetInCU: 0x1827F, offset: 0x4F3D1, size: 0x8, addend: 0x0, symName: __ZSt4moveIRSt10shared_ptrIN6tinyrv14FunctionalUnitEEEONSt16remove_referenceIT_E4typeEOS6_, symObjAddr: 0x2784, symBinAddr: 0x10000FFEE, symSize: 0xE }
  - { offsetInCU: 0x18359, offset: 0x4F4AB, size: 0x8, addend: 0x0, symName: __Z6unusedIJRPN6tinyrv16pipeline_trace_tEEEvDpOT_, symObjAddr: 0x241D, symBinAddr: 0x10000FF35, symSize: 0xB }
  - { offsetInCU: 0x18347, offset: 0x4F499, size: 0x8, addend: 0x0, symName: __ZNK9__gnu_cxx17__normal_iteratorIPPN6tinyrv16pipeline_trace_tESt6vectorIS3_SaIS3_EEEdeEv, symObjAddr: 0x240C, symBinAddr: 0x10000FF24, symSize: 0x11 }
  - { offsetInCU: 0x1834F, offset: 0x4F4A1, size: 0x8, addend: 0x0, symName: __Z6unusedIJRPN6tinyrv16pipeline_trace_tEEEvDpOT_, symObjAddr: 0x241D, symBinAddr: 0x10000FF35, symSize: 0xB }
  - { offsetInCU: 0x18376, offset: 0x4F4C8, size: 0x8, addend: 0x0, symName: __ZN9__gnu_cxx17__normal_iteratorIPPN6tinyrv16pipeline_trace_tESt6vectorIS3_SaIS3_EEEppEv, symObjAddr: 0x23EC, symBinAddr: 0x10000FF04, symSize: 0x20 }
  - { offsetInCU: 0x1837E, offset: 0x4F4D0, size: 0x8, addend: 0x0, symName: __ZNK9__gnu_cxx17__normal_iteratorIPPN6tinyrv16pipeline_trace_tESt6vectorIS3_SaIS3_EEEdeEv, symObjAddr: 0x240C, symBinAddr: 0x10000FF24, symSize: 0x11 }
  - { offsetInCU: 0x18463, offset: 0x4F5B5, size: 0x8, addend: 0x0, symName: __ZN9__gnu_cxxneIPPN6tinyrv16pipeline_trace_tESt6vectorIS3_SaIS3_EEEEbRKNS_17__normal_iteratorIT_T0_EESD_, symObjAddr: 0x23B1, symBinAddr: 0x10000FEC9, symSize: 0x3B }
  - { offsetInCU: 0x1846B, offset: 0x4F5BD, size: 0x8, addend: 0x0, symName: __ZN9__gnu_cxx17__normal_iteratorIPPN6tinyrv16pipeline_trace_tESt6vectorIS3_SaIS3_EEEppEv, symObjAddr: 0x23EC, symBinAddr: 0x10000FF04, symSize: 0x20 }
  - { offsetInCU: 0x1841C, offset: 0x4F56E, size: 0x8, addend: 0x0, symName: __ZNSt6vectorIPN6tinyrv16pipeline_trace_tESaIS2_EE3endEv, symObjAddr: 0x2388, symBinAddr: 0x10000FEA0, symSize: 0x29 }
  - { offsetInCU: 0x18424, offset: 0x4F576, size: 0x8, addend: 0x0, symName: __ZN9__gnu_cxxneIPPN6tinyrv16pipeline_trace_tESt6vectorIS3_SaIS3_EEEEbRKNS_17__normal_iteratorIT_T0_EESD_, symObjAddr: 0x23B1, symBinAddr: 0x10000FEC9, symSize: 0x3B }
  - { offsetInCU: 0x1844B, offset: 0x4F59D, size: 0x8, addend: 0x0, symName: __ZNSt6vectorIPN6tinyrv16pipeline_trace_tESaIS2_EE5beginEv, symObjAddr: 0x2362, symBinAddr: 0x10000FE7A, symSize: 0x26 }
  - { offsetInCU: 0x184DE, offset: 0x4F630, size: 0x8, addend: 0x0, symName: __ZNSt12_Vector_baseIPN6tinyrv16pipeline_trace_tESaIS2_EED2Ev, symObjAddr: 0x2314, symBinAddr: 0x10000FE2C, symSize: 0x4E }
  - { offsetInCU: 0x18553, offset: 0x4F6A5, size: 0x8, addend: 0x0, symName: __ZNSt6vectorIPN6tinyrv16pipeline_trace_tESaIS2_EED1Ev, symObjAddr: 0x22BE, symBinAddr: 0x10000FDD6, symSize: 0x56 }
  - { offsetInCU: 0x1855B, offset: 0x4F6AD, size: 0x8, addend: 0x0, symName: __ZNSt12_Vector_baseIPN6tinyrv16pipeline_trace_tESaIS2_EED2Ev, symObjAddr: 0x2314, symBinAddr: 0x10000FE2C, symSize: 0x4E }
  - { offsetInCU: 0x18589, offset: 0x4F6DB, size: 0x8, addend: 0x0, symName: __ZNSt10shared_ptrIN6tinyrv14FunctionalUnitEEaSEOS2_, symObjAddr: 0x2288, symBinAddr: 0x10000FDA0, symSize: 0x36 }
  - { offsetInCU: 0x18591, offset: 0x4F6E3, size: 0x8, addend: 0x0, symName: __ZNSt6vectorIPN6tinyrv16pipeline_trace_tESaIS2_EED1Ev, symObjAddr: 0x22BE, symBinAddr: 0x10000FDD6, symSize: 0x56 }
  - { offsetInCU: 0x185CC, offset: 0x4F71E, size: 0x8, addend: 0x0, symName: __ZN9SimObjectIN6tinyrv14FunctionalUnitEE6CreateIJiEEESt10shared_ptrIS1_EDpOT_, symObjAddr: 0x2246, symBinAddr: 0x10000FD5E, symSize: 0x42 }
  - { offsetInCU: 0x1860B, offset: 0x4F75D, size: 0x8, addend: 0x0, symName: __ZNSt5arrayISt10shared_ptrIN6tinyrv14FunctionalUnitEELm3EEixEm, symObjAddr: 0x2226, symBinAddr: 0x10000FD3E, symSize: 0x20 }
  - { offsetInCU: 0x18613, offset: 0x4F765, size: 0x8, addend: 0x0, symName: __ZN9SimObjectIN6tinyrv14FunctionalUnitEE6CreateIJiEEESt10shared_ptrIS1_EDpOT_, symObjAddr: 0x2246, symBinAddr: 0x10000FD5E, symSize: 0x42 }
  - { offsetInCU: 0x186BA, offset: 0x4F80C, size: 0x8, addend: 0x0, symName: __ZN9SimObjectIN6tinyrv4CoreEEC2ERK10SimContextPKc, symObjAddr: 0x21E6, symBinAddr: 0x10000FCFE, symSize: 0x40 }
  - { offsetInCU: 0x186C2, offset: 0x4F814, size: 0x8, addend: 0x0, symName: __ZNSt5arrayISt10shared_ptrIN6tinyrv14FunctionalUnitEELm3EEixEm, symObjAddr: 0x2226, symBinAddr: 0x10000FD3E, symSize: 0x20 }
  - { offsetInCU: 0x18752, offset: 0x4F8A4, size: 0x8, addend: 0x0, symName: __ZN6tinyrv4Core9showStatsEv, symObjAddr: 0x1D58, symBinAddr: 0x10000FAF4, symSize: 0x20A }
  - { offsetInCU: 0x187A6, offset: 0x4F8F8, size: 0x8, addend: 0x0, symName: __ZN6tinyrv4Core10attach_ramEPNS_3RAME, symObjAddr: 0x1D2E, symBinAddr: 0x10000FACA, symSize: 0x2A }
  - { offsetInCU: 0x187AE, offset: 0x4F900, size: 0x8, addend: 0x0, symName: __ZN6tinyrv4Core9showStatsEv, symObjAddr: 0x1D58, symBinAddr: 0x10000FAF4, symSize: 0x20A }
  - { offsetInCU: 0x187E8, offset: 0x4F93A, size: 0x8, addend: 0x0, symName: __ZNK6tinyrv4Core7runningEv, symObjAddr: 0x1CEC, symBinAddr: 0x10000FA88, symSize: 0x42 }
  - { offsetInCU: 0x18817, offset: 0x4F969, size: 0x8, addend: 0x0, symName: __ZNK6tinyrv4Core10check_exitEPjb, symObjAddr: 0x1CBA, symBinAddr: 0x10000FA56, symSize: 0x32 }
  - { offsetInCU: 0x1886C, offset: 0x4F9BE, size: 0x8, addend: 0x0, symName: __ZN6tinyrv4Core6commitEv, symObjAddr: 0x1B30, symBinAddr: 0x10000F8CC, symSize: 0x18A }
  - { offsetInCU: 0x188E3, offset: 0x4FA35, size: 0x8, addend: 0x0, symName: __ZN6tinyrv4Core9writebackEv, symObjAddr: 0x1A18, symBinAddr: 0x10000F7B4, symSize: 0x118 }
  - { offsetInCU: 0x188EB, offset: 0x4FA3D, size: 0x8, addend: 0x0, symName: __ZN6tinyrv4Core6commitEv, symObjAddr: 0x1B30, symBinAddr: 0x10000F8CC, symSize: 0x18A }
  - { offsetInCU: 0x18925, offset: 0x4FA77, size: 0x8, addend: 0x0, symName: __ZN6tinyrv4Core7executeEv, symObjAddr: 0x187C, symBinAddr: 0x10000F618, symSize: 0x19C }
  - { offsetInCU: 0x1892D, offset: 0x4FA7F, size: 0x8, addend: 0x0, symName: __ZN6tinyrv4Core9writebackEv, symObjAddr: 0x1A18, symBinAddr: 0x10000F7B4, symSize: 0x118 }
  - { offsetInCU: 0x18A39, offset: 0x4FB8B, size: 0x8, addend: 0x0, symName: __ZNSt12_Vector_baseIPN6tinyrv16pipeline_trace_tESaIS2_EE12_Vector_implD1Ev, symObjAddr: 0x1858, symBinAddr: 0x10000F5F4, symSize: 0x24 }
  - { offsetInCU: 0x18A41, offset: 0x4FB93, size: 0x8, addend: 0x0, symName: __ZN6tinyrv4Core7executeEv, symObjAddr: 0x187C, symBinAddr: 0x10000F618, symSize: 0x19C }
  - { offsetInCU: 0x18A42, offset: 0x4FB94, size: 0x8, addend: 0x0, symName: __ZN6tinyrv4Core5issueEv, symObjAddr: 0x12F6, symBinAddr: 0x10000F092, symSize: 0x562 }
  - { offsetInCU: 0x18A84, offset: 0x4FBD6, size: 0x8, addend: 0x0, symName: __ZN6tinyrv4Core4tickEv, symObjAddr: 0x125E, symBinAddr: 0x10000EFFA, symSize: 0x98 }
  - { offsetInCU: 0x18AB3, offset: 0x4FC05, size: 0x8, addend: 0x0, symName: __ZN6tinyrv4Core5resetEv, symObjAddr: 0x11D6, symBinAddr: 0x10000EF72, symSize: 0x88 }
  - { offsetInCU: 0x18B1D, offset: 0x4FC6F, size: 0x8, addend: 0x0, symName: __ZN6tinyrv4CoreD0Ev, symObjAddr: 0x11B0, symBinAddr: 0x10000EF4C, symSize: 0x26 }
  - { offsetInCU: 0x18B25, offset: 0x4FC77, size: 0x8, addend: 0x0, symName: __ZN6tinyrv4Core5resetEv, symObjAddr: 0x11D6, symBinAddr: 0x10000EF72, symSize: 0x88 }
  - { offsetInCU: 0x18B4B, offset: 0x4FC9D, size: 0x8, addend: 0x0, symName: __ZN6tinyrv4CoreD1Ev, symObjAddr: 0x1134, symBinAddr: 0x10000EED0, symSize: 0x7C }
  - { offsetInCU: 0x18B53, offset: 0x4FCA5, size: 0x8, addend: 0x0, symName: __ZN6tinyrv4CoreD0Ev, symObjAddr: 0x11B0, symBinAddr: 0x10000EF4C, symSize: 0x26 }
  - { offsetInCU: 0x18B79, offset: 0x4FCCB, size: 0x8, addend: 0x0, symName: __ZN6tinyrv4CoreD2Ev, symObjAddr: 0x10B8, symBinAddr: 0x10000EE54, symSize: 0x7C }
  - { offsetInCU: 0x18B81, offset: 0x4FCD3, size: 0x8, addend: 0x0, symName: __ZN6tinyrv4CoreD1Ev, symObjAddr: 0x1134, symBinAddr: 0x10000EED0, symSize: 0x7C }
  - { offsetInCU: 0x18C12, offset: 0x4FD64, size: 0x8, addend: 0x0, symName: __ZN6tinyrv4CoreC1ERK10SimContextjPNS_13ProcessorImplE, symObjAddr: 0xDB8, symBinAddr: 0x10000EB54, symSize: 0x300 }
  - { offsetInCU: 0x18C1A, offset: 0x4FD6C, size: 0x8, addend: 0x0, symName: __ZN6tinyrv4CoreD2Ev, symObjAddr: 0x10B8, symBinAddr: 0x10000EE54, symSize: 0x7C }
  - { offsetInCU: 0x18C68, offset: 0x4FDBA, size: 0x8, addend: 0x0, symName: __ZN6tinyrv4CoreC2ERK10SimContextjPNS_13ProcessorImplE, symObjAddr: 0xAB8, symBinAddr: 0x10000E854, symSize: 0x300 }
  - { offsetInCU: 0x18C70, offset: 0x4FDC2, size: 0x8, addend: 0x0, symName: __ZN6tinyrv4CoreC1ERK10SimContextjPNS_13ProcessorImplE, symObjAddr: 0xDB8, symBinAddr: 0x10000EB54, symSize: 0x300 }
  - { offsetInCU: 0x18CF2, offset: 0x4FE44, size: 0x8, addend: 0x0, symName: __ZNSt5arrayISt10shared_ptrIN6tinyrv14FunctionalUnitEELm3EED1Ev, symObjAddr: 0xA7C, symBinAddr: 0x10000E818, symSize: 0x3C }
  - { offsetInCU: 0x18CFA, offset: 0x4FE4C, size: 0x8, addend: 0x0, symName: __ZN6tinyrv4CoreC2ERK10SimContextjPNS_13ProcessorImplE, symObjAddr: 0xAB8, symBinAddr: 0x10000E854, symSize: 0x300 }
  - { offsetInCU: 0x18D3D, offset: 0x4FE8F, size: 0x8, addend: 0x0, symName: __ZNSt5arrayISt10shared_ptrIN6tinyrv14FunctionalUnitEELm3EEC1Ev, symObjAddr: 0xA56, symBinAddr: 0x10000E7F2, symSize: 0x26 }
  - { offsetInCU: 0x18D88, offset: 0x4FEDA, size: 0x8, addend: 0x0, symName: __ZNSt10shared_ptrIN6tinyrv14FunctionalUnitEED1Ev, symObjAddr: 0xA24, symBinAddr: 0x10000E7D6, symSize: 0x1C }
  - { offsetInCU: 0x18DFC, offset: 0x4FF4E, size: 0x8, addend: 0x0, symName: __ZNSt12__shared_ptrIN6tinyrv14FunctionalUnitELN9__gnu_cxx12_Lock_policyE2EED1Ev, symObjAddr: 0xA04, symBinAddr: 0x10000E7B6, symSize: 0x20 }
  - { offsetInCU: 0x18E2A, offset: 0x4FF7C, size: 0x8, addend: 0x0, symName: __ZNSt12__shared_ptrIN6tinyrv14FunctionalUnitELN9__gnu_cxx12_Lock_policyE2EED2Ev, symObjAddr: 0x9E4, symBinAddr: 0x10000E796, symSize: 0x20 }
  - { offsetInCU: 0x18E55, offset: 0x4FFA7, size: 0x8, addend: 0x0, symName: __ZN9SimObjectIN6tinyrv4CoreEED0Ev, symObjAddr: 0x9BE, symBinAddr: 0x10000E770, symSize: 0x26 }
  - { offsetInCU: 0x18E5D, offset: 0x4FFAF, size: 0x8, addend: 0x0, symName: __ZNSt12__shared_ptrIN6tinyrv14FunctionalUnitELN9__gnu_cxx12_Lock_policyE2EED2Ev, symObjAddr: 0x9E4, symBinAddr: 0x10000E796, symSize: 0x20 }
  - { offsetInCU: 0x18E83, offset: 0x4FFD5, size: 0x8, addend: 0x0, symName: __ZN9SimObjectIN6tinyrv4CoreEED1Ev, symObjAddr: 0x990, symBinAddr: 0x10000E742, symSize: 0x2E }
  - { offsetInCU: 0x18EB1, offset: 0x50003, size: 0x8, addend: 0x0, symName: __ZN9SimObjectIN6tinyrv4CoreEED2Ev, symObjAddr: 0x962, symBinAddr: 0x10000E714, symSize: 0x2E }
  - { offsetInCU: 0x18EEF, offset: 0x50041, size: 0x8, addend: 0x0, symName: __ZN6tinyrvlsERSoRKNS_16pipeline_trace_tE, symObjAddr: 0x81B, symBinAddr: 0x10000E5CD, symSize: 0x147 }
  - { offsetInCU: 0x18F55, offset: 0x500A7, size: 0x8, addend: 0x0, symName: __ZN6tinyrv16pipeline_trace_tD1Ev, symObjAddr: 0x7FC, symBinAddr: 0x10000E5AE, symSize: 0x1F }
  - { offsetInCU: 0x18F5D, offset: 0x500AF, size: 0x8, addend: 0x0, symName: __ZN6tinyrvlsERSoRKNS_16pipeline_trace_tE, symObjAddr: 0x81B, symBinAddr: 0x10000E5CD, symSize: 0x147 }
  - { offsetInCU: 0x18FBA, offset: 0x5010C, size: 0x8, addend: 0x0, symName: __ZNSt10shared_ptrIN6tinyrv10ITraceDataEED1Ev, symObjAddr: 0x7E0, symBinAddr: 0x10000E592, symSize: 0x1C }
  - { offsetInCU: 0x1902E, offset: 0x50180, size: 0x8, addend: 0x0, symName: __ZNSt12__shared_ptrIN6tinyrv10ITraceDataELN9__gnu_cxx12_Lock_policyE2EED2Ev, symObjAddr: 0x7C0, symBinAddr: 0x10000E572, symSize: 0x20 }
  - { offsetInCU: 0x19047, offset: 0x50199, size: 0x8, addend: 0x0, symName: __ZN6tinyrv4Core9PerfStatsC1Ev, symObjAddr: 0x786, symBinAddr: 0x10000E538, symSize: 0x3A }
  - { offsetInCU: 0x1904F, offset: 0x501A1, size: 0x8, addend: 0x0, symName: __ZNSt12__shared_ptrIN6tinyrv10ITraceDataELN9__gnu_cxx12_Lock_policyE2EED2Ev, symObjAddr: 0x7C0, symBinAddr: 0x10000E572, symSize: 0x20 }
  - { offsetInCU: 0x1907E, offset: 0x501D0, size: 0x8, addend: 0x0, symName: __ZN6tinyrvlsERSoRKNS_6FUTypeE, symObjAddr: 0x6E4, symBinAddr: 0x10000E496, symSize: 0xA2 }
  - { offsetInCU: 0x19140, offset: 0x50292, size: 0x8, addend: 0x0, symName: __ZN13SimObjectBaseC2ERK10SimContextPKc, symObjAddr: 0x668, symBinAddr: 0x10000E41A, symSize: 0x7C }
  - { offsetInCU: 0x19148, offset: 0x5029A, size: 0x8, addend: 0x0, symName: __ZN6tinyrvlsERSoRKNS_6FUTypeE, symObjAddr: 0x6E4, symBinAddr: 0x10000E496, symSize: 0xA2 }
  - { offsetInCU: 0x191EF, offset: 0x50341, size: 0x8, addend: 0x0, symName: __ZNK11SimPlatform6cyclesEv, symObjAddr: 0x474, symBinAddr: 0x10000E408, symSize: 0x12 }
  - { offsetInCU: 0x1925C, offset: 0x503AE, size: 0x8, addend: 0x0, symName: __ZN13SimObjectBaseD2Ev, symObjAddr: 0x3BE, symBinAddr: 0x10000E3D6, symSize: 0x32 }
  - { offsetInCU: 0x19287, offset: 0x503D9, size: 0x8, addend: 0x0, symName: __ZSt4setwi, symObjAddr: 0x22C, symBinAddr: 0x10000E3CA, symSize: 0xC }
  - { offsetInCU: 0x192D2, offset: 0x50424, size: 0x8, addend: 0x0, symName: __ZL18__gthread_active_pv, symObjAddr: 0xE3, symBinAddr: 0x10000E3BF, symSize: 0xB }
  - { offsetInCU: 0x154F, offset: 0x5198B, size: 0x8, addend: 0x0, symName: __ZStL19piecewise_construct, symObjAddr: 0x4850, symBinAddr: 0x10002E6D0, symSize: 0x0 }
  - { offsetInCU: 0x4A0F, offset: 0x54E4B, size: 0x8, addend: 0x0, symName: __ZStL8__ioinit, symObjAddr: 0x77A78, symBinAddr: 0x100058FC4, symSize: 0x0 }
  - { offsetInCU: 0x4E42, offset: 0x5527E, size: 0x8, addend: 0x0, symName: __ZStL13allocator_arg, symObjAddr: 0x4851, symBinAddr: 0x10002E6D1, symSize: 0x0 }
  - { offsetInCU: 0x4E69, offset: 0x552A5, size: 0x8, addend: 0x0, symName: __ZStL6ignore, symObjAddr: 0x4852, symBinAddr: 0x10002E6D2, symSize: 0x0 }
  - { offsetInCU: 0x515D, offset: 0x55599, size: 0x8, addend: 0x0, symName: __ZN9__gnu_cxxL21__default_lock_policyE, symObjAddr: 0x4854, symBinAddr: 0x10002E6D4, symSize: 0x0 }
  - { offsetInCU: 0x13CD2, offset: 0x6410E, size: 0x8, addend: 0x0, symName: __GLOBAL__sub_I_emulator.cpp, symObjAddr: 0x483D, symBinAddr: 0x1000147D3, symSize: 0xB }
  - { offsetInCU: 0x13CFA, offset: 0x64136, size: 0x8, addend: 0x0, symName: __Z41__static_initialization_and_destruction_0v, symObjAddr: 0x4804, symBinAddr: 0x10001479A, symSize: 0x39 }
  - { offsetInCU: 0x13D02, offset: 0x6413E, size: 0x8, addend: 0x0, symName: __GLOBAL__sub_I_emulator.cpp, symObjAddr: 0x483D, symBinAddr: 0x1000147D3, symSize: 0xB }
  - { offsetInCU: 0x13CEC, offset: 0x64128, size: 0x8, addend: 0x0, symName: __ZNSt10_Head_baseILm0ERKyLb0EE7_M_headERS2_, symObjAddr: 0x47F3, symBinAddr: 0x100014789, symSize: 0x11 }
  - { offsetInCU: 0x13CF4, offset: 0x64130, size: 0x8, addend: 0x0, symName: __Z41__static_initialization_and_destruction_0v, symObjAddr: 0x4804, symBinAddr: 0x10001479A, symSize: 0x39 }
  - { offsetInCU: 0x13D1D, offset: 0x64159, size: 0x8, addend: 0x0, symName: __ZNSt11_Tuple_implILm0EJRKyEE7_M_headERS2_, symObjAddr: 0x47D9, symBinAddr: 0x10001476F, symSize: 0x1A }
  - { offsetInCU: 0x13D25, offset: 0x64161, size: 0x8, addend: 0x0, symName: __ZNSt10_Head_baseILm0ERKyLb0EE7_M_headERS2_, symObjAddr: 0x47F3, symBinAddr: 0x100014789, symSize: 0x11 }
  - { offsetInCU: 0x13DC5, offset: 0x64201, size: 0x8, addend: 0x0, symName: __ZSt12__get_helperILm0ERKyJEERT0_RSt11_Tuple_implIXT_EJS2_DpT1_EE, symObjAddr: 0x47BF, symBinAddr: 0x100014755, symSize: 0x1A }
  - { offsetInCU: 0x13DCD, offset: 0x64209, size: 0x8, addend: 0x0, symName: __ZNSt11_Tuple_implILm0EJRKyEE7_M_headERS2_, symObjAddr: 0x47D9, symBinAddr: 0x10001476F, symSize: 0x1A }
  - { offsetInCU: 0x13E38, offset: 0x64274, size: 0x8, addend: 0x0, symName: __ZSt9__fill_a1IPjjEN9__gnu_cxx11__enable_ifIXsrSt11__is_scalarIT0_E7__valueEvE6__typeET_S8_RKS4_, symObjAddr: 0x4788, symBinAddr: 0x10001471E, symSize: 0x37 }
  - { offsetInCU: 0x13E40, offset: 0x6427C, size: 0x8, addend: 0x0, symName: __ZSt12__get_helperILm0ERKyJEERT0_RSt11_Tuple_implIXT_EJS2_DpT1_EE, symObjAddr: 0x47BF, symBinAddr: 0x100014755, symSize: 0x1A }
  - { offsetInCU: 0x13E9C, offset: 0x642D8, size: 0x8, addend: 0x0, symName: __ZSt7forwardIRKyEOT_RNSt16remove_referenceIS2_E4typeE, symObjAddr: 0x4714, symBinAddr: 0x100014710, symSize: 0xE }
  - { offsetInCU: 0x13F02, offset: 0x6433E, size: 0x8, addend: 0x0, symName: __ZSt3getILm0EJRKyEERNSt13tuple_elementIXT_ESt5tupleIJDpT0_EEE4typeERS6_, symObjAddr: 0x46FA, symBinAddr: 0x1000146F6, symSize: 0x1A }
  - { offsetInCU: 0x13F0A, offset: 0x64346, size: 0x8, addend: 0x0, symName: __ZSt7forwardIRKyEOT_RNSt16remove_referenceIS2_E4typeE, symObjAddr: 0x4714, symBinAddr: 0x100014710, symSize: 0xE }
  - { offsetInCU: 0x13F91, offset: 0x643CD, size: 0x8, addend: 0x0, symName: __ZSt11__addressofINSt8__detail10_Hash_nodeISt4pairIKjjELb0EEEEPT_RS6_, symObjAddr: 0x46EC, symBinAddr: 0x1000146E8, symSize: 0xE }
  - { offsetInCU: 0x13F99, offset: 0x643D5, size: 0x8, addend: 0x0, symName: __ZSt3getILm0EJRKyEERNSt13tuple_elementIXT_ESt5tupleIJDpT0_EEE4typeERS6_, symObjAddr: 0x46FA, symBinAddr: 0x1000146F6, symSize: 0x1A }
  - { offsetInCU: 0x13F7B, offset: 0x643B7, size: 0x8, addend: 0x0, symName: __ZSt8__fill_aIPjjEvT_S1_RKT0_, symObjAddr: 0x46BE, symBinAddr: 0x1000146BA, symSize: 0x2E }
  - { offsetInCU: 0x13F83, offset: 0x643BF, size: 0x8, addend: 0x0, symName: __ZSt11__addressofINSt8__detail10_Hash_nodeISt4pairIKjjELb0EEEEPT_RS6_, symObjAddr: 0x46EC, symBinAddr: 0x1000146E8, symSize: 0xE }
  - { offsetInCU: 0x1408B, offset: 0x644C7, size: 0x8, addend: 0x0, symName: __ZSt11__addressofINSt8__detail10_Hash_nodeISt4pairIKyN6tinyrv10MemoryUnit8TLBEntryEELb0EEEEPT_RS9_, symObjAddr: 0x46B0, symBinAddr: 0x1000146AC, symSize: 0xE }
  - { offsetInCU: 0x14093, offset: 0x644CF, size: 0x8, addend: 0x0, symName: __ZSt8__fill_aIPjjEvT_S1_RKT0_, symObjAddr: 0x46BE, symBinAddr: 0x1000146BA, symSize: 0x2E }
  - { offsetInCU: 0x14064, offset: 0x644A0, size: 0x8, addend: 0x0, symName: __ZSt12__to_addressIPNSt8__detail15_Hash_node_baseEEPT_S4_, symObjAddr: 0x46A2, symBinAddr: 0x10001469E, symSize: 0xE }
  - { offsetInCU: 0x1406C, offset: 0x644A8, size: 0x8, addend: 0x0, symName: __ZSt11__addressofINSt8__detail10_Hash_nodeISt4pairIKyN6tinyrv10MemoryUnit8TLBEntryEELb0EEEEPT_RS9_, symObjAddr: 0x46B0, symBinAddr: 0x1000146AC, symSize: 0xE }
  - { offsetInCU: 0x14157, offset: 0x64593, size: 0x8, addend: 0x0, symName: __ZNSt4pairIKyjEC1IJRS0_EJLm0EEJEJEEERSt5tupleIJDpT_EERS4_IJDpT1_EESt12_Index_tupleIJXspT0_EEESD_IJXspT2_EEE, symObjAddr: 0x4662, symBinAddr: 0x10001465E, symSize: 0x40 }
  - { offsetInCU: 0x1415F, offset: 0x6459B, size: 0x8, addend: 0x0, symName: __ZSt12__to_addressIPNSt8__detail15_Hash_node_baseEEPT_S4_, symObjAddr: 0x46A2, symBinAddr: 0x10001469E, symSize: 0xE }
  - { offsetInCU: 0x14228, offset: 0x64664, size: 0x8, addend: 0x0, symName: __ZSt11__addressofINSt8__detail10_Hash_nodeISt4pairIKyjELb0EEEEPT_RS6_, symObjAddr: 0x4653, symBinAddr: 0x10001464F, symSize: 0xF }
  - { offsetInCU: 0x141C2, offset: 0x645FE, size: 0x8, addend: 0x0, symName: __ZNSt15__new_allocatorINSt8__detail10_Hash_nodeISt4pairIKjjELb0EEEE10deallocateEPS5_m, symObjAddr: 0x4630, symBinAddr: 0x10001462C, symSize: 0x23 }
  - { offsetInCU: 0x141CA, offset: 0x64606, size: 0x8, addend: 0x0, symName: __ZSt11__addressofINSt8__detail10_Hash_nodeISt4pairIKyjELb0EEEEPT_RS6_, symObjAddr: 0x4653, symBinAddr: 0x10001464F, symSize: 0xF }
  - { offsetInCU: 0x142B8, offset: 0x646F4, size: 0x8, addend: 0x0, symName: __ZSt9addressofINSt8__detail10_Hash_nodeISt4pairIKjjELb0EEEEPT_RS6_, symObjAddr: 0x4616, symBinAddr: 0x100014612, symSize: 0x1A }
  - { offsetInCU: 0x142C0, offset: 0x646FC, size: 0x8, addend: 0x0, symName: __ZNSt15__new_allocatorINSt8__detail10_Hash_nodeISt4pairIKjjELb0EEEE10deallocateEPS5_m, symObjAddr: 0x4630, symBinAddr: 0x10001462C, symSize: 0x23 }
  - { offsetInCU: 0x14265, offset: 0x646A1, size: 0x8, addend: 0x0, symName: __ZN9__gnu_cxx16__aligned_bufferISt4pairIKjjEE7_M_addrEv, symObjAddr: 0x4608, symBinAddr: 0x100014604, symSize: 0xE }
  - { offsetInCU: 0x1426D, offset: 0x646A9, size: 0x8, addend: 0x0, symName: __ZSt9addressofINSt8__detail10_Hash_nodeISt4pairIKjjELb0EEEEPT_RS6_, symObjAddr: 0x4616, symBinAddr: 0x100014612, symSize: 0x1A }
  - { offsetInCU: 0x1431A, offset: 0x64756, size: 0x8, addend: 0x0, symName: __ZSt10__fill_n_aIPjmjET_S1_T0_RKT1_St26random_access_iterator_tag, symObjAddr: 0x45AB, symBinAddr: 0x1000145A7, symSize: 0x5D }
  - { offsetInCU: 0x14322, offset: 0x6475E, size: 0x8, addend: 0x0, symName: __ZN9__gnu_cxx16__aligned_bufferISt4pairIKjjEE7_M_addrEv, symObjAddr: 0x4608, symBinAddr: 0x100014604, symSize: 0xE }
  - { offsetInCU: 0x14441, offset: 0x6487D, size: 0x8, addend: 0x0, symName: __ZSt9addressofINSt8__detail10_Hash_nodeISt4pairIKyN6tinyrv10MemoryUnit8TLBEntryEELb0EEEEPT_RS9_, symObjAddr: 0x456E, symBinAddr: 0x10001458C, symSize: 0x1A }
  - { offsetInCU: 0x143B3, offset: 0x647EF, size: 0x8, addend: 0x0, symName: __ZNSt8__detail16_Hashtable_allocISaINS_10_Hash_nodeISt4pairIKyjELb0EEEEE19_M_allocate_bucketsEm, symObjAddr: 0x44AA, symBinAddr: 0x1000144D6, symSize: 0xB6 }
  - { offsetInCU: 0x145AA, offset: 0x649E6, size: 0x8, addend: 0x0, symName: __ZNSt4pairIKyjEC1IJRS0_EJEEESt21piecewise_construct_tSt5tupleIJDpT_EES5_IJDpT0_EE, symObjAddr: 0x4480, symBinAddr: 0x1000144AC, symSize: 0x2A }
  - { offsetInCU: 0x145B2, offset: 0x649EE, size: 0x8, addend: 0x0, symName: __ZNSt8__detail16_Hashtable_allocISaINS_10_Hash_nodeISt4pairIKyjELb0EEEEE19_M_allocate_bucketsEm, symObjAddr: 0x44AA, symBinAddr: 0x1000144D6, symSize: 0xB6 }
  - { offsetInCU: 0x1460E, offset: 0x64A4A, size: 0x8, addend: 0x0, symName: __ZNSt11_Tuple_implILm0EJRKyEEC2EOS2_, symObjAddr: 0x4462, symBinAddr: 0x10001448E, symSize: 0x1E }
  - { offsetInCU: 0x14640, offset: 0x64A7C, size: 0x8, addend: 0x0, symName: __ZNK9__gnu_cxx16__aligned_bufferISt4pairIKyjEE7_M_addrEv, symObjAddr: 0x4454, symBinAddr: 0x100014480, symSize: 0xE }
  - { offsetInCU: 0x14648, offset: 0x64A84, size: 0x8, addend: 0x0, symName: __ZNSt11_Tuple_implILm0EJRKyEEC2EOS2_, symObjAddr: 0x4462, symBinAddr: 0x10001448E, symSize: 0x1E }
  - { offsetInCU: 0x1471E, offset: 0x64B5A, size: 0x8, addend: 0x0, symName: __ZSt9addressofINSt8__detail10_Hash_nodeISt4pairIKyjELb0EEEEPT_RS6_, symObjAddr: 0x442C, symBinAddr: 0x100014466, symSize: 0x1A }
  - { offsetInCU: 0x146FB, offset: 0x64B37, size: 0x8, addend: 0x0, symName: __ZNSt19__ptr_traits_ptr_toIPNSt8__detail10_Hash_nodeISt4pairIKjjELb0EEES5_Lb0EE10pointer_toERS5_, symObjAddr: 0x4412, symBinAddr: 0x10001444C, symSize: 0x1A }
  - { offsetInCU: 0x14703, offset: 0x64B3F, size: 0x8, addend: 0x0, symName: __ZSt9addressofINSt8__detail10_Hash_nodeISt4pairIKyjELb0EEEEPT_RS6_, symObjAddr: 0x442C, symBinAddr: 0x100014466, symSize: 0x1A }
  - { offsetInCU: 0x14762, offset: 0x64B9E, size: 0x8, addend: 0x0, symName: __ZN9__gnu_cxx16__aligned_bufferISt4pairIKjjEE6_M_ptrEv, symObjAddr: 0x43F8, symBinAddr: 0x100014432, symSize: 0x1A }
  - { offsetInCU: 0x1476A, offset: 0x64BA6, size: 0x8, addend: 0x0, symName: __ZNSt19__ptr_traits_ptr_toIPNSt8__detail10_Hash_nodeISt4pairIKjjELb0EEES5_Lb0EE10pointer_toERS5_, symObjAddr: 0x4412, symBinAddr: 0x10001444C, symSize: 0x1A }
  - { offsetInCU: 0x14791, offset: 0x64BCD, size: 0x8, addend: 0x0, symName: __ZNSt8__detail21_Hashtable_ebo_helperILi0ESaINS_10_Hash_nodeISt4pairIKjjELb0EEEELb1EE6_M_getEv, symObjAddr: 0x43EA, symBinAddr: 0x100014424, symSize: 0xE }
  - { offsetInCU: 0x14799, offset: 0x64BD5, size: 0x8, addend: 0x0, symName: __ZN9__gnu_cxx16__aligned_bufferISt4pairIKjjEE6_M_ptrEv, symObjAddr: 0x43F8, symBinAddr: 0x100014432, symSize: 0x1A }
  - { offsetInCU: 0x1481B, offset: 0x64C57, size: 0x8, addend: 0x0, symName: __ZSt6fill_nIPjmjET_S1_T0_RKT1_, symObjAddr: 0x43B0, symBinAddr: 0x1000143EA, symSize: 0x3A }
  - { offsetInCU: 0x148AA, offset: 0x64CE6, size: 0x8, addend: 0x0, symName: __ZSt10_ConstructIjJEEvPT_DpOT0_, symObjAddr: 0x438A, symBinAddr: 0x1000143C4, symSize: 0x26 }
  - { offsetInCU: 0x148B2, offset: 0x64CEE, size: 0x8, addend: 0x0, symName: __ZSt6fill_nIPjmjET_S1_T0_RKT1_, symObjAddr: 0x43B0, symBinAddr: 0x1000143EA, symSize: 0x3A }
  - { offsetInCU: 0x148F6, offset: 0x64D32, size: 0x8, addend: 0x0, symName: __ZSt11__addressofIjEPT_RS0_, symObjAddr: 0x437C, symBinAddr: 0x1000143B6, symSize: 0xE }
  - { offsetInCU: 0x148FE, offset: 0x64D3A, size: 0x8, addend: 0x0, symName: __ZSt10_ConstructIjJEEvPT_DpOT0_, symObjAddr: 0x438A, symBinAddr: 0x1000143C4, symSize: 0x26 }
  - { offsetInCU: 0x14906, offset: 0x64D42, size: 0x8, addend: 0x0, symName: __ZNSt15__new_allocatorIjE8allocateEmPKv, symObjAddr: 0x4316, symBinAddr: 0x100014350, symSize: 0x66 }
  - { offsetInCU: 0x1490E, offset: 0x64D4A, size: 0x8, addend: 0x0, symName: __ZSt11__addressofIjEPT_RS0_, symObjAddr: 0x437C, symBinAddr: 0x1000143B6, symSize: 0xE }
  - { offsetInCU: 0x14993, offset: 0x64DCF, size: 0x8, addend: 0x0, symName: __ZNSt10_HashtableIySt4pairIKyjESaIS2_ENSt8__detail10_Select1stESt8equal_toIyESt4hashIyENS4_18_Mod_range_hashingENS4_20_Default_ranged_hashENS4_20_Prime_rehash_policyENS4_17_Hashtable_traitsILb0ELb0ELb1EEEE19_M_allocate_bucketsEm, symObjAddr: 0x4288, symBinAddr: 0x100014304, symSize: 0x4C }
  - { offsetInCU: 0x149D6, offset: 0x64E12, size: 0x8, addend: 0x0, symName: __ZNSt15__new_allocatorINSt8__detail10_Hash_nodeISt4pairIKyjELb0EEEE10deallocateEPS5_m, symObjAddr: 0x4264, symBinAddr: 0x1000142E0, symSize: 0x24 }
  - { offsetInCU: 0x14AF2, offset: 0x64F2E, size: 0x8, addend: 0x0, symName: __ZNSt5tupleIJRKyEEC1EOS2_, symObjAddr: 0x423E, symBinAddr: 0x1000142BA, symSize: 0x26 }
  - { offsetInCU: 0x14AFA, offset: 0x64F36, size: 0x8, addend: 0x0, symName: __ZNSt15__new_allocatorINSt8__detail10_Hash_nodeISt4pairIKyjELb0EEEE10deallocateEPS5_m, symObjAddr: 0x4264, symBinAddr: 0x1000142E0, symSize: 0x24 }
  - { offsetInCU: 0x14B12, offset: 0x64F4E, size: 0x8, addend: 0x0, symName: __ZNSt15__new_allocatorINSt8__detail10_Hash_nodeISt4pairIKyjELb0EEEE8allocateEmPKv, symObjAddr: 0x41CE, symBinAddr: 0x10001424A, symSize: 0x70 }
  - { offsetInCU: 0x14B86, offset: 0x64FC2, size: 0x8, addend: 0x0, symName: __ZNKSt8__detail15_Hash_code_baseIySt4pairIKyjENS_10_Select1stESt4hashIyENS_18_Mod_range_hashingENS_20_Default_ranged_hashELb0EE15_M_bucket_indexERKNS_16_Hash_node_valueIS3_Lb0EEEm, symObjAddr: 0x4172, symBinAddr: 0x1000141EE, symSize: 0x5C }
  - { offsetInCU: 0x14B8E, offset: 0x64FCA, size: 0x8, addend: 0x0, symName: __ZNSt15__new_allocatorINSt8__detail10_Hash_nodeISt4pairIKyjELb0EEEE8allocateEmPKv, symObjAddr: 0x41CE, symBinAddr: 0x10001424A, symSize: 0x70 }
  - { offsetInCU: 0x14BDD, offset: 0x65019, size: 0x8, addend: 0x0, symName: __ZNSt8__detail15_Hashtable_baseIySt4pairIKyjENS_10_Select1stESt8equal_toIyESt4hashIyENS_18_Mod_range_hashingENS_20_Default_ranged_hashENS_17_Hashtable_traitsILb0ELb0ELb1EEEE9_S_equalsEmRKNS_21_Hash_node_code_cacheILb0EEE, symObjAddr: 0x415E, symBinAddr: 0x1000141DA, symSize: 0x14 }
  - { offsetInCU: 0x14C13, offset: 0x6504F, size: 0x8, addend: 0x0, symName: __ZNK9__gnu_cxx16__aligned_bufferISt4pairIKyjEE6_M_ptrEv, symObjAddr: 0x4144, symBinAddr: 0x1000141C0, symSize: 0x1A }
  - { offsetInCU: 0x14C1B, offset: 0x65057, size: 0x8, addend: 0x0, symName: __ZNSt8__detail15_Hashtable_baseIySt4pairIKyjENS_10_Select1stESt8equal_toIyESt4hashIyENS_18_Mod_range_hashingENS_20_Default_ranged_hashENS_17_Hashtable_traitsILb0ELb0ELb1EEEE9_S_equalsEmRKNS_21_Hash_node_code_cacheILb0EEE, symObjAddr: 0x415E, symBinAddr: 0x1000141DA, symSize: 0x14 }
  - { offsetInCU: 0x14CC1, offset: 0x650FD, size: 0x8, addend: 0x0, symName: __ZSt9addressofIPNSt8__detail15_Hash_node_baseEEPT_RS3_, symObjAddr: 0x40FA, symBinAddr: 0x1000141A6, symSize: 0x1A }
  - { offsetInCU: 0x14CA5, offset: 0x650E1, size: 0x8, addend: 0x0, symName: __ZNSt19__ptr_traits_ptr_toIPNSt8__detail10_Hash_nodeISt4pairIKyjELb0EEES5_Lb0EE10pointer_toERS5_, symObjAddr: 0x40E0, symBinAddr: 0x10001418C, symSize: 0x1A }
  - { offsetInCU: 0x14CAD, offset: 0x650E9, size: 0x8, addend: 0x0, symName: __ZSt9addressofIPNSt8__detail15_Hash_node_baseEEPT_RS3_, symObjAddr: 0x40FA, symBinAddr: 0x1000141A6, symSize: 0x1A }
  - { offsetInCU: 0x14D0C, offset: 0x65148, size: 0x8, addend: 0x0, symName: __ZNSt8__detail21_Hashtable_ebo_helperILi0ESaINS_10_Hash_nodeISt4pairIKyjELb0EEEELb1EE6_M_getEv, symObjAddr: 0x40D2, symBinAddr: 0x10001417E, symSize: 0xE }
  - { offsetInCU: 0x14D14, offset: 0x65150, size: 0x8, addend: 0x0, symName: __ZNSt19__ptr_traits_ptr_toIPNSt8__detail10_Hash_nodeISt4pairIKyjELb0EEES5_Lb0EE10pointer_toERS5_, symObjAddr: 0x40E0, symBinAddr: 0x10001418C, symSize: 0x1A }
  - { offsetInCU: 0x14D6A, offset: 0x651A6, size: 0x8, addend: 0x0, symName: __ZNSt8__detail16_Hashtable_allocISaINS_10_Hash_nodeISt4pairIKjjELb0EEEEE22_M_deallocate_node_ptrEPS5_, symObjAddr: 0x4076, symBinAddr: 0x100014122, symSize: 0x5C }
  - { offsetInCU: 0x14E39, offset: 0x65275, size: 0x8, addend: 0x0, symName: __ZNSt8__detail21_Hash_node_value_baseISt4pairIKjjEE9_M_valptrEv, symObjAddr: 0x405C, symBinAddr: 0x100014108, symSize: 0x1A }
  - { offsetInCU: 0x14E41, offset: 0x6527D, size: 0x8, addend: 0x0, symName: __ZNSt8__detail16_Hashtable_allocISaINS_10_Hash_nodeISt4pairIKjjELb0EEEEE22_M_deallocate_node_ptrEPS5_, symObjAddr: 0x4076, symBinAddr: 0x100014122, symSize: 0x5C }
  - { offsetInCU: 0x14E68, offset: 0x652A4, size: 0x8, addend: 0x0, symName: __ZNSt8__detail16_Hashtable_allocISaINS_10_Hash_nodeISt4pairIKjjELb0EEEEE17_M_node_allocatorEv, symObjAddr: 0x4042, symBinAddr: 0x1000140EE, symSize: 0x1A }
  - { offsetInCU: 0x14E70, offset: 0x652AC, size: 0x8, addend: 0x0, symName: __ZNSt8__detail21_Hash_node_value_baseISt4pairIKjjEE9_M_valptrEv, symObjAddr: 0x405C, symBinAddr: 0x100014108, symSize: 0x1A }
  - { offsetInCU: 0x14E97, offset: 0x652D3, size: 0x8, addend: 0x0, symName: __ZNSt27__uninitialized_default_n_1ILb1EE18__uninit_default_nIPjmEET_S3_T0_, symObjAddr: 0x3FE5, symBinAddr: 0x100014091, symSize: 0x5D }
  - { offsetInCU: 0x14E9F, offset: 0x652DB, size: 0x8, addend: 0x0, symName: __ZNSt8__detail16_Hashtable_allocISaINS_10_Hash_nodeISt4pairIKjjELb0EEEEE17_M_node_allocatorEv, symObjAddr: 0x4042, symBinAddr: 0x1000140EE, symSize: 0x1A }
  - { offsetInCU: 0x14F27, offset: 0x65363, size: 0x8, addend: 0x0, symName: __ZNSt15__new_allocatorIjE10deallocateEPjm, symObjAddr: 0x3FC2, symBinAddr: 0x10001406E, symSize: 0x23 }
  - { offsetInCU: 0x14F2F, offset: 0x6536B, size: 0x8, addend: 0x0, symName: __ZNSt27__uninitialized_default_n_1ILb1EE18__uninit_default_nIPjmEET_S3_T0_, symObjAddr: 0x3FE5, symBinAddr: 0x100014091, symSize: 0x5D }
  - { offsetInCU: 0x14FC2, offset: 0x653FE, size: 0x8, addend: 0x0, symName: __ZNSt10_HashtableIySt4pairIKyjESaIS2_ENSt8__detail10_Select1stESt8equal_toIyESt4hashIyENS4_18_Mod_range_hashingENS4_20_Default_ranged_hashENS4_20_Prime_rehash_policyENS4_17_Hashtable_traitsILb0ELb0ELb1EEEE13_M_rehash_auxEmSt17integral_constantIbLb1EE, symObjAddr: 0x3DB8, symBinAddr: 0x100013EF4, symSize: 0x17A }
  - { offsetInCU: 0x151F4, offset: 0x65630, size: 0x8, addend: 0x0, symName: __ZSt12__to_addressINSt8__detail10_Hash_nodeISt4pairIKyjELb0EEEEPT_S7_, symObjAddr: 0x3DAA, symBinAddr: 0x100013EE6, symSize: 0xE }
  - { offsetInCU: 0x151FC, offset: 0x65638, size: 0x8, addend: 0x0, symName: __ZNSt10_HashtableIySt4pairIKyjESaIS2_ENSt8__detail10_Select1stESt8equal_toIyESt4hashIyENS4_18_Mod_range_hashingENS4_20_Default_ranged_hashENS4_20_Prime_rehash_policyENS4_17_Hashtable_traitsILb0ELb0ELb1EEEE13_M_rehash_auxEmSt17integral_constantIbLb1EE, symObjAddr: 0x3DB8, symBinAddr: 0x100013EF4, symSize: 0x17A }
  - { offsetInCU: 0x15208, offset: 0x65644, size: 0x8, addend: 0x0, symName: __ZNSt10_Head_baseILm0ERKyLb0EEC2ES1_, symObjAddr: 0x3D90, symBinAddr: 0x100013ECC, symSize: 0x1A }
  - { offsetInCU: 0x15210, offset: 0x6564C, size: 0x8, addend: 0x0, symName: __ZSt12__to_addressINSt8__detail10_Hash_nodeISt4pairIKyjELb0EEEEPT_S7_, symObjAddr: 0x3DAA, symBinAddr: 0x100013EE6, symSize: 0xE }
  - { offsetInCU: 0x1521D, offset: 0x65659, size: 0x8, addend: 0x0, symName: __ZNKSt10_HashtableIySt4pairIKyjESaIS2_ENSt8__detail10_Select1stESt8equal_toIyESt4hashIyENS4_18_Mod_range_hashingENS4_20_Default_ranged_hashENS4_20_Prime_rehash_policyENS4_17_Hashtable_traitsILb0ELb0ELb1EEEE15_M_bucket_indexERKNS4_16_Hash_node_valueIS2_Lb0EEE, symObjAddr: 0x3D62, symBinAddr: 0x100013E9E, symSize: 0x2E }
  - { offsetInCU: 0x15260, offset: 0x6569C, size: 0x8, addend: 0x0, symName: __ZNKSt8__detail15_Hashtable_baseIySt4pairIKyjENS_10_Select1stESt8equal_toIyESt4hashIyENS_18_Mod_range_hashingENS_20_Default_ranged_hashENS_17_Hashtable_traitsILb0ELb0ELb1EEEE9_M_equalsERS2_mRKNS_16_Hash_node_valueIS3_Lb0EEE, symObjAddr: 0x3D0A, symBinAddr: 0x100013E46, symSize: 0x58 }
  - { offsetInCU: 0x15268, offset: 0x656A4, size: 0x8, addend: 0x0, symName: __ZNKSt10_HashtableIySt4pairIKyjESaIS2_ENSt8__detail10_Select1stESt8equal_toIyESt4hashIyENS4_18_Mod_range_hashingENS4_20_Default_ranged_hashENS4_20_Prime_rehash_policyENS4_17_Hashtable_traitsILb0ELb0ELb1EEEE15_M_bucket_indexERKNS4_16_Hash_node_valueIS2_Lb0EEE, symObjAddr: 0x3D62, symBinAddr: 0x100013E9E, symSize: 0x2E }
  - { offsetInCU: 0x15356, offset: 0x65792, size: 0x8, addend: 0x0, symName: __ZSt7forwardIRKSt4pairIKyjEEOT_RNSt16remove_referenceIS5_E4typeE, symObjAddr: 0x3CEE, symBinAddr: 0x100013E38, symSize: 0xE }
  - { offsetInCU: 0x1531F, offset: 0x6575B, size: 0x8, addend: 0x0, symName: __ZNKSt8__detail21_Hash_node_value_baseISt4pairIKyjEE9_M_valptrEv, symObjAddr: 0x3CD4, symBinAddr: 0x100013E1E, symSize: 0x1A }
  - { offsetInCU: 0x15327, offset: 0x65763, size: 0x8, addend: 0x0, symName: __ZSt7forwardIRKSt4pairIKyjEEOT_RNSt16remove_referenceIS5_E4typeE, symObjAddr: 0x3CEE, symBinAddr: 0x100013E38, symSize: 0xE }
  - { offsetInCU: 0x153E2, offset: 0x6581E, size: 0x8, addend: 0x0, symName: __ZNSt8__detail16_Hashtable_allocISaINS_10_Hash_nodeISt4pairIKyjELb0EEEEE22_M_deallocate_node_ptrEPS5_, symObjAddr: 0x3C50, symBinAddr: 0x100013DC2, symSize: 0x5B }
  - { offsetInCU: 0x154B1, offset: 0x658ED, size: 0x8, addend: 0x0, symName: __ZNSt8__detail16_Hashtable_allocISaINS_10_Hash_nodeISt4pairIKyjELb0EEEEE17_M_node_allocatorEv, symObjAddr: 0x3C36, symBinAddr: 0x100013DA8, symSize: 0x1A }
  - { offsetInCU: 0x154B9, offset: 0x658F5, size: 0x8, addend: 0x0, symName: __ZNSt8__detail16_Hashtable_allocISaINS_10_Hash_nodeISt4pairIKyjELb0EEEEE22_M_deallocate_node_ptrEPS5_, symObjAddr: 0x3C50, symBinAddr: 0x100013DC2, symSize: 0x5B }
  - { offsetInCU: 0x154E0, offset: 0x6591C, size: 0x8, addend: 0x0, symName: __ZNSt8__detail16_Hashtable_allocISaINS_10_Hash_nodeISt4pairIKjjELb0EEEEE21_M_deallocate_bucketsEPPNS_15_Hash_node_baseEm, symObjAddr: 0x3BC0, symBinAddr: 0x100013D32, symSize: 0x76 }
  - { offsetInCU: 0x154E8, offset: 0x65924, size: 0x8, addend: 0x0, symName: __ZNSt8__detail16_Hashtable_allocISaINS_10_Hash_nodeISt4pairIKyjELb0EEEEE17_M_node_allocatorEv, symObjAddr: 0x3C36, symBinAddr: 0x100013DA8, symSize: 0x1A }
  - { offsetInCU: 0x15615, offset: 0x65A51, size: 0x8, addend: 0x0, symName: __ZNKSt10_HashtableIjSt4pairIKjjESaIS2_ENSt8__detail10_Select1stESt8equal_toIjESt4hashIjENS4_18_Mod_range_hashingENS4_20_Default_ranged_hashENS4_20_Prime_rehash_policyENS4_17_Hashtable_traitsILb0ELb0ELb1EEEE21_M_uses_single_bucketEPPNS4_15_Hash_node_baseE, symObjAddr: 0x3B9A, symBinAddr: 0x100013D0C, symSize: 0x26 }
  - { offsetInCU: 0x1561D, offset: 0x65A59, size: 0x8, addend: 0x0, symName: __ZNSt8__detail16_Hashtable_allocISaINS_10_Hash_nodeISt4pairIKjjELb0EEEEE21_M_deallocate_bucketsEPPNS_15_Hash_node_baseEm, symObjAddr: 0x3BC0, symBinAddr: 0x100013D32, symSize: 0x76 }
  - { offsetInCU: 0x15658, offset: 0x65A94, size: 0x8, addend: 0x0, symName: __ZNSt8__detail16_Hashtable_allocISaINS_10_Hash_nodeISt4pairIKjjELb0EEEEE18_M_deallocate_nodeEPS5_, symObjAddr: 0x3B36, symBinAddr: 0x100013CA8, symSize: 0x64 }
  - { offsetInCU: 0x15660, offset: 0x65A9C, size: 0x8, addend: 0x0, symName: __ZNKSt10_HashtableIjSt4pairIKjjESaIS2_ENSt8__detail10_Select1stESt8equal_toIjESt4hashIjENS4_18_Mod_range_hashingENS4_20_Default_ranged_hashENS4_20_Prime_rehash_policyENS4_17_Hashtable_traitsILb0ELb0ELb1EEEE21_M_uses_single_bucketEPPNS4_15_Hash_node_baseE, symObjAddr: 0x3B9A, symBinAddr: 0x100013D0C, symSize: 0x26 }
  - { offsetInCU: 0x15701, offset: 0x65B3D, size: 0x8, addend: 0x0, symName: __ZNKSt8__detail10_Hash_nodeISt4pairIKjjELb0EE7_M_nextEv, symObjAddr: 0x3B24, symBinAddr: 0x100013C96, symSize: 0x12 }
  - { offsetInCU: 0x15730, offset: 0x65B6C, size: 0x8, addend: 0x0, symName: __ZNSt12_Destroy_auxILb1EE9__destroyIPjEEvT_S3_, symObjAddr: 0x3A78, symBinAddr: 0x100013C86, symSize: 0x10 }
  - { offsetInCU: 0x157E1, offset: 0x65C1D, size: 0x8, addend: 0x0, symName: __ZSt25__uninitialized_default_nIPjmET_S1_T0_, symObjAddr: 0x3A4F, symBinAddr: 0x100013C5D, symSize: 0x29 }
  - { offsetInCU: 0x157E9, offset: 0x65C25, size: 0x8, addend: 0x0, symName: __ZNSt12_Destroy_auxILb1EE9__destroyIPjEEvT_S3_, symObjAddr: 0x3A78, symBinAddr: 0x100013C86, symSize: 0x10 }
  - { offsetInCU: 0x15832, offset: 0x65C6E, size: 0x8, addend: 0x0, symName: __ZNSt12_Vector_baseIjSaIjEE11_M_allocateEm, symObjAddr: 0x3A06, symBinAddr: 0x100013C14, symSize: 0x49 }
  - { offsetInCU: 0x1583A, offset: 0x65C76, size: 0x8, addend: 0x0, symName: __ZSt25__uninitialized_default_nIPjmET_S1_T0_, symObjAddr: 0x3A4F, symBinAddr: 0x100013C5D, symSize: 0x29 }
  - { offsetInCU: 0x158F3, offset: 0x65D2F, size: 0x8, addend: 0x0, symName: __ZNSt12_Vector_baseIjSaIjEE17_Vector_impl_dataC2Ev, symObjAddr: 0x39D8, symBinAddr: 0x100013BE6, symSize: 0x2E }
  - { offsetInCU: 0x158FB, offset: 0x65D37, size: 0x8, addend: 0x0, symName: __ZNSt12_Vector_baseIjSaIjEE11_M_allocateEm, symObjAddr: 0x3A06, symBinAddr: 0x100013C14, symSize: 0x49 }
  - { offsetInCU: 0x1592C, offset: 0x65D68, size: 0x8, addend: 0x0, symName: __ZNSt10_HashtableIySt4pairIKyjESaIS2_ENSt8__detail10_Select1stESt8equal_toIyESt4hashIyENS4_18_Mod_range_hashingENS4_20_Default_ranged_hashENS4_20_Prime_rehash_policyENS4_17_Hashtable_traitsILb0ELb0ELb1EEEE22_M_insert_bucket_beginEmPNS4_10_Hash_nodeIS2_Lb0EEE, symObjAddr: 0x3844, symBinAddr: 0x100013AFA, symSize: 0xEC }
  - { offsetInCU: 0x15983, offset: 0x65DBF, size: 0x8, addend: 0x0, symName: __ZNKSt8__detail15_Hash_code_baseIySt4pairIKyjENS_10_Select1stESt4hashIyENS_18_Mod_range_hashingENS_20_Default_ranged_hashELb0EE13_M_store_codeERNS_21_Hash_node_code_cacheILb0EEEm, symObjAddr: 0x3830, symBinAddr: 0x100013AE6, symSize: 0x14 }
  - { offsetInCU: 0x159CA, offset: 0x65E06, size: 0x8, addend: 0x0, symName: __ZNSt10_HashtableIySt4pairIKyjESaIS2_ENSt8__detail10_Select1stESt8equal_toIyESt4hashIyENS4_18_Mod_range_hashingENS4_20_Default_ranged_hashENS4_20_Prime_rehash_policyENS4_17_Hashtable_traitsILb0ELb0ELb1EEEE9_M_rehashEmRKm, symObjAddr: 0x37C6, symBinAddr: 0x100013A7C, symSize: 0x6A }
  - { offsetInCU: 0x159D2, offset: 0x65E0E, size: 0x8, addend: 0x0, symName: __ZNKSt8__detail15_Hash_code_baseIySt4pairIKyjENS_10_Select1stESt4hashIyENS_18_Mod_range_hashingENS_20_Default_ranged_hashELb0EE13_M_store_codeERNS_21_Hash_node_code_cacheILb0EEEm, symObjAddr: 0x3830, symBinAddr: 0x100013AE6, symSize: 0x14 }
  - { offsetInCU: 0x15A21, offset: 0x65E5D, size: 0x8, addend: 0x0, symName: __ZNSt8__detail16_Hashtable_allocISaINS_10_Hash_nodeISt4pairIKyjELb0EEEEE16_M_allocate_nodeIJRKSt21piecewise_construct_tSt5tupleIJRS3_EESC_IJEEEEEPS5_DpOT_, symObjAddr: 0x3574, symBinAddr: 0x10001382A, symSize: 0x252 }
  - { offsetInCU: 0x15A29, offset: 0x65E65, size: 0x8, addend: 0x0, symName: __ZNSt10_HashtableIySt4pairIKyjESaIS2_ENSt8__detail10_Select1stESt8equal_toIyESt4hashIyENS4_18_Mod_range_hashingENS4_20_Default_ranged_hashENS4_20_Prime_rehash_policyENS4_17_Hashtable_traitsILb0ELb0ELb1EEEE9_M_rehashEmRKm, symObjAddr: 0x37C6, symBinAddr: 0x100013A7C, symSize: 0x6A }
  - { offsetInCU: 0x15C40, offset: 0x6607C, size: 0x8, addend: 0x0, symName: __ZNSt8__detail10_Hash_nodeISt4pairIKyjELb0EEC1Ev, symObjAddr: 0x3558, symBinAddr: 0x10001380E, symSize: 0x1C }
  - { offsetInCU: 0x15C97, offset: 0x660D3, size: 0x8, addend: 0x0, symName: __ZSt7forwardISt5tupleIJEEEOT_RNSt16remove_referenceIS2_E4typeE, symObjAddr: 0x354A, symBinAddr: 0x100013800, symSize: 0xE }
  - { offsetInCU: 0x15C9F, offset: 0x660DB, size: 0x8, addend: 0x0, symName: __ZNSt8__detail10_Hash_nodeISt4pairIKyjELb0EEC1Ev, symObjAddr: 0x3558, symBinAddr: 0x10001380E, symSize: 0x1C }
  - { offsetInCU: 0x15D0B, offset: 0x66147, size: 0x8, addend: 0x0, symName: __ZSt7forwardISt5tupleIJRKyEEEOT_RNSt16remove_referenceIS4_E4typeE, symObjAddr: 0x353C, symBinAddr: 0x1000137F2, symSize: 0xE }
  - { offsetInCU: 0x15D13, offset: 0x6614F, size: 0x8, addend: 0x0, symName: __ZSt7forwardISt5tupleIJEEEOT_RNSt16remove_referenceIS2_E4typeE, symObjAddr: 0x354A, symBinAddr: 0x100013800, symSize: 0xE }
  - { offsetInCU: 0x15D62, offset: 0x6619E, size: 0x8, addend: 0x0, symName: __ZSt7forwardIRKSt21piecewise_construct_tEOT_RNSt16remove_referenceIS3_E4typeE, symObjAddr: 0x352E, symBinAddr: 0x1000137E4, symSize: 0xE }
  - { offsetInCU: 0x15D6A, offset: 0x661A6, size: 0x8, addend: 0x0, symName: __ZSt7forwardISt5tupleIJRKyEEEOT_RNSt16remove_referenceIS4_E4typeE, symObjAddr: 0x353C, symBinAddr: 0x1000137F2, symSize: 0xE }
  - { offsetInCU: 0x15D87, offset: 0x661C3, size: 0x8, addend: 0x0, symName: __ZNSt11_Tuple_implILm0EJRKyEEC2ES1_, symObjAddr: 0x3508, symBinAddr: 0x1000137BE, symSize: 0x26 }
  - { offsetInCU: 0x15D8F, offset: 0x661CB, size: 0x8, addend: 0x0, symName: __ZSt7forwardIRKSt21piecewise_construct_tEOT_RNSt16remove_referenceIS3_E4typeE, symObjAddr: 0x352E, symBinAddr: 0x1000137E4, symSize: 0xE }
  - { offsetInCU: 0x15DA1, offset: 0x661DD, size: 0x8, addend: 0x0, symName: __ZN9__gnu_cxx16__aligned_bufferISt4pairIKyjEE7_M_addrEv, symObjAddr: 0x34FA, symBinAddr: 0x1000137B0, symSize: 0xE }
  - { offsetInCU: 0x15DA9, offset: 0x661E5, size: 0x8, addend: 0x0, symName: __ZNSt11_Tuple_implILm0EJRKyEEC2ES1_, symObjAddr: 0x3508, symBinAddr: 0x1000137BE, symSize: 0x26 }
  - { offsetInCU: 0x15E51, offset: 0x6628D, size: 0x8, addend: 0x0, symName: __ZNSt8__detail19_Node_iterator_baseISt4pairIKyjELb0EEC2EPNS_10_Hash_nodeIS3_Lb0EEE, symObjAddr: 0x34E0, symBinAddr: 0x100013796, symSize: 0x1A }
  - { offsetInCU: 0x15E59, offset: 0x66295, size: 0x8, addend: 0x0, symName: __ZN9__gnu_cxx16__aligned_bufferISt4pairIKyjEE7_M_addrEv, symObjAddr: 0x34FA, symBinAddr: 0x1000137B0, symSize: 0xE }
  - { offsetInCU: 0x15E38, offset: 0x66274, size: 0x8, addend: 0x0, symName: __ZNKSt10_HashtableIySt4pairIKyjESaIS2_ENSt8__detail10_Select1stESt8equal_toIyESt4hashIyENS4_18_Mod_range_hashingENS4_20_Default_ranged_hashENS4_20_Prime_rehash_policyENS4_17_Hashtable_traitsILb0ELb0ELb1EEEE19_M_find_before_nodeEmRS1_m, symObjAddr: 0x3406, symBinAddr: 0x1000136BC, symSize: 0xDA }
  - { offsetInCU: 0x15EDD, offset: 0x66319, size: 0x8, addend: 0x0, symName: __ZNKSt8__detail15_Hash_code_baseIySt4pairIKyjENS_10_Select1stESt4hashIyENS_18_Mod_range_hashingENS_20_Default_ranged_hashELb0EE15_M_bucket_indexEmm, symObjAddr: 0x33D8, symBinAddr: 0x10001368E, symSize: 0x2E }
  - { offsetInCU: 0x15F34, offset: 0x66370, size: 0x8, addend: 0x0, symName: __ZNKSt8__detail15_Hash_code_baseIySt4pairIKyjENS_10_Select1stESt4hashIyENS_18_Mod_range_hashingENS_20_Default_ranged_hashELb0EE7_M_hashEv, symObjAddr: 0x33BE, symBinAddr: 0x100013674, symSize: 0x1A }
  - { offsetInCU: 0x15F3C, offset: 0x66378, size: 0x8, addend: 0x0, symName: __ZNKSt8__detail15_Hash_code_baseIySt4pairIKyjENS_10_Select1stESt4hashIyENS_18_Mod_range_hashingENS_20_Default_ranged_hashELb0EE15_M_bucket_indexEmm, symObjAddr: 0x33D8, symBinAddr: 0x10001368E, symSize: 0x2E }
  - { offsetInCU: 0x15F76, offset: 0x663B2, size: 0x8, addend: 0x0, symName: __ZNKSt8__detail10_Select1stclIRKSt4pairIKyjEEEONS0_10__1st_typeIT_E4typeEOS8_, symObjAddr: 0x337A, symBinAddr: 0x100013656, symSize: 0x1E }
  - { offsetInCU: 0x15FC5, offset: 0x66401, size: 0x8, addend: 0x0, symName: __ZNKSt8__detail21_Hash_node_value_baseISt4pairIKyjEE4_M_vEv, symObjAddr: 0x3360, symBinAddr: 0x10001363C, symSize: 0x1A }
  - { offsetInCU: 0x15FCD, offset: 0x66409, size: 0x8, addend: 0x0, symName: __ZNKSt8__detail10_Select1stclIRKSt4pairIKyjEEEONS0_10__1st_typeIT_E4typeEOS8_, symObjAddr: 0x337A, symBinAddr: 0x100013656, symSize: 0x1E }
  - { offsetInCU: 0x15FF4, offset: 0x66430, size: 0x8, addend: 0x0, symName: __ZNKSt8__detail15_Hashtable_baseIySt4pairIKyjENS_10_Select1stESt8equal_toIyESt4hashIyENS_18_Mod_range_hashingENS_20_Default_ranged_hashENS_17_Hashtable_traitsILb0ELb0ELb1EEEE5_M_eqEv, symObjAddr: 0x3346, symBinAddr: 0x100013622, symSize: 0x1A }
  - { offsetInCU: 0x15FFC, offset: 0x66438, size: 0x8, addend: 0x0, symName: __ZNKSt8__detail21_Hash_node_value_baseISt4pairIKyjEE4_M_vEv, symObjAddr: 0x3360, symBinAddr: 0x10001363C, symSize: 0x1A }
  - { offsetInCU: 0x16023, offset: 0x6645F, size: 0x8, addend: 0x0, symName: __ZNSt8__detail19_Node_iterator_baseISt4pairIKyjELb0EE7_M_incrEv, symObjAddr: 0x3320, symBinAddr: 0x1000135FC, symSize: 0x26 }
  - { offsetInCU: 0x16053, offset: 0x6648F, size: 0x8, addend: 0x0, symName: __ZNSt8__detail22_Hashtable_hash_traitsISt4hashIyEE22__small_size_thresholdEv, symObjAddr: 0x3314, symBinAddr: 0x1000135F0, symSize: 0xC }
  - { offsetInCU: 0x16070, offset: 0x664AC, size: 0x8, addend: 0x0, symName: __ZNSt8__detail16_Hashtable_allocISaINS_10_Hash_nodeISt4pairIKyjELb0EEEEE21_M_deallocate_bucketsEPPNS_15_Hash_node_baseEm, symObjAddr: 0x329E, symBinAddr: 0x10001357A, symSize: 0x76 }
  - { offsetInCU: 0x16078, offset: 0x664B4, size: 0x8, addend: 0x0, symName: __ZNSt8__detail22_Hashtable_hash_traitsISt4hashIyEE22__small_size_thresholdEv, symObjAddr: 0x3314, symBinAddr: 0x1000135F0, symSize: 0xC }
  - { offsetInCU: 0x161A5, offset: 0x665E1, size: 0x8, addend: 0x0, symName: __ZNKSt10_HashtableIySt4pairIKyjESaIS2_ENSt8__detail10_Select1stESt8equal_toIyESt4hashIyENS4_18_Mod_range_hashingENS4_20_Default_ranged_hashENS4_20_Prime_rehash_policyENS4_17_Hashtable_traitsILb0ELb0ELb1EEEE21_M_uses_single_bucketEPPNS4_15_Hash_node_baseE, symObjAddr: 0x3278, symBinAddr: 0x100013554, symSize: 0x26 }
  - { offsetInCU: 0x161AD, offset: 0x665E9, size: 0x8, addend: 0x0, symName: __ZNSt8__detail16_Hashtable_allocISaINS_10_Hash_nodeISt4pairIKyjELb0EEEEE21_M_deallocate_bucketsEPPNS_15_Hash_node_baseEm, symObjAddr: 0x329E, symBinAddr: 0x10001357A, symSize: 0x76 }
  - { offsetInCU: 0x161E8, offset: 0x66624, size: 0x8, addend: 0x0, symName: __ZNSt8__detail16_Hashtable_allocISaINS_10_Hash_nodeISt4pairIKyjELb0EEEEE18_M_deallocate_nodeEPS5_, symObjAddr: 0x3214, symBinAddr: 0x1000134F0, symSize: 0x64 }
  - { offsetInCU: 0x161F0, offset: 0x6662C, size: 0x8, addend: 0x0, symName: __ZNKSt10_HashtableIySt4pairIKyjESaIS2_ENSt8__detail10_Select1stESt8equal_toIyESt4hashIyENS4_18_Mod_range_hashingENS4_20_Default_ranged_hashENS4_20_Prime_rehash_policyENS4_17_Hashtable_traitsILb0ELb0ELb1EEEE21_M_uses_single_bucketEPPNS4_15_Hash_node_baseE, symObjAddr: 0x3278, symBinAddr: 0x100013554, symSize: 0x26 }
  - { offsetInCU: 0x16291, offset: 0x666CD, size: 0x8, addend: 0x0, symName: __ZNKSt8__detail10_Hash_nodeISt4pairIKyjELb0EE7_M_nextEv, symObjAddr: 0x3202, symBinAddr: 0x1000134DE, symSize: 0x12 }
  - { offsetInCU: 0x162C0, offset: 0x666FC, size: 0x8, addend: 0x0, symName: __ZNKSt6vectorIjSaIjEE4sizeEv, symObjAddr: 0x31DE, symBinAddr: 0x1000134BA, symSize: 0x24 }
  - { offsetInCU: 0x162EF, offset: 0x6672B, size: 0x8, addend: 0x0, symName: __ZNSt10_HashtableIjSt4pairIKjjESaIS2_ENSt8__detail10_Select1stESt8equal_toIjESt4hashIjENS4_18_Mod_range_hashingENS4_20_Default_ranged_hashENS4_20_Prime_rehash_policyENS4_17_Hashtable_traitsILb0ELb0ELb1EEEE21_M_deallocate_bucketsEPPNS4_15_Hash_node_baseEm, symObjAddr: 0x316E, symBinAddr: 0x100013472, symSize: 0x48 }
  - { offsetInCU: 0x16346, offset: 0x66782, size: 0x8, addend: 0x0, symName: __ZNSt8__detail16_Hashtable_allocISaINS_10_Hash_nodeISt4pairIKjjELb0EEEEE19_M_deallocate_nodesEPS5_, symObjAddr: 0x3126, symBinAddr: 0x10001342A, symSize: 0x48 }
  - { offsetInCU: 0x1634E, offset: 0x6678A, size: 0x8, addend: 0x0, symName: __ZNSt10_HashtableIjSt4pairIKjjESaIS2_ENSt8__detail10_Select1stESt8equal_toIjESt4hashIjENS4_18_Mod_range_hashingENS4_20_Default_ranged_hashENS4_20_Prime_rehash_policyENS4_17_Hashtable_traitsILb0ELb0ELb1EEEE21_M_deallocate_bucketsEPPNS4_15_Hash_node_baseEm, symObjAddr: 0x316E, symBinAddr: 0x100013472, symSize: 0x48 }
  - { offsetInCU: 0x163AF, offset: 0x667EB, size: 0x8, addend: 0x0, symName: __ZNKSt10_HashtableIjSt4pairIKjjESaIS2_ENSt8__detail10_Select1stESt8equal_toIjESt4hashIjENS4_18_Mod_range_hashingENS4_20_Default_ranged_hashENS4_20_Prime_rehash_policyENS4_17_Hashtable_traitsILb0ELb0ELb1EEEE8_M_beginEv, symObjAddr: 0x3114, symBinAddr: 0x100013418, symSize: 0x12 }
  - { offsetInCU: 0x163B7, offset: 0x667F3, size: 0x8, addend: 0x0, symName: __ZNSt8__detail16_Hashtable_allocISaINS_10_Hash_nodeISt4pairIKjjELb0EEEEE19_M_deallocate_nodesEPS5_, symObjAddr: 0x3126, symBinAddr: 0x10001342A, symSize: 0x48 }
  - { offsetInCU: 0x16427, offset: 0x66863, size: 0x8, addend: 0x0, symName: __ZSt8_DestroyIPjEvT_S1_, symObjAddr: 0x3099, symBinAddr: 0x1000133F1, symSize: 0x27 }
  - { offsetInCU: 0x164D5, offset: 0x66911, size: 0x8, addend: 0x0, symName: __ZSt27__uninitialized_default_n_aIPjmjET_S1_T0_RSaIT1_E, symObjAddr: 0x3070, symBinAddr: 0x1000133C8, symSize: 0x29 }
  - { offsetInCU: 0x164DD, offset: 0x66919, size: 0x8, addend: 0x0, symName: __ZSt8_DestroyIPjEvT_S1_, symObjAddr: 0x3099, symBinAddr: 0x1000133F1, symSize: 0x27 }
  - { offsetInCU: 0x164D2, offset: 0x6690E, size: 0x8, addend: 0x0, symName: __ZNSt12_Vector_baseIjSaIjEE13_M_deallocateEPjm, symObjAddr: 0x3022, symBinAddr: 0x10001337A, symSize: 0x4E }
  - { offsetInCU: 0x164DA, offset: 0x66916, size: 0x8, addend: 0x0, symName: __ZSt27__uninitialized_default_n_aIPjmjET_S1_T0_RSaIT1_E, symObjAddr: 0x3070, symBinAddr: 0x1000133C8, symSize: 0x29 }
  - { offsetInCU: 0x16568, offset: 0x669A4, size: 0x8, addend: 0x0, symName: __ZNSt12_Vector_baseIjSaIjEE17_M_create_storageEm, symObjAddr: 0x2FCC, symBinAddr: 0x100013324, symSize: 0x56 }
  - { offsetInCU: 0x16570, offset: 0x669AC, size: 0x8, addend: 0x0, symName: __ZNSt12_Vector_baseIjSaIjEE13_M_deallocateEPjm, symObjAddr: 0x3022, symBinAddr: 0x10001337A, symSize: 0x4E }
  - { offsetInCU: 0x16606, offset: 0x66A42, size: 0x8, addend: 0x0, symName: __ZNSt12_Vector_baseIjSaIjEE12_Vector_implC1ERKS0_, symObjAddr: 0x2F8A, symBinAddr: 0x1000132E2, symSize: 0x42 }
  - { offsetInCU: 0x1669B, offset: 0x66AD7, size: 0x8, addend: 0x0, symName: __ZNSt6vectorIjSaIjEE11_S_max_sizeERKS0_, symObjAddr: 0x2F30, symBinAddr: 0x100013288, symSize: 0x5A }
  - { offsetInCU: 0x166A3, offset: 0x66ADF, size: 0x8, addend: 0x0, symName: __ZNSt12_Vector_baseIjSaIjEE12_Vector_implC1ERKS0_, symObjAddr: 0x2F8A, symBinAddr: 0x1000132E2, symSize: 0x42 }
  - { offsetInCU: 0x167CD, offset: 0x66C09, size: 0x8, addend: 0x0, symName: __ZNSt12__shared_ptrIN6tinyrv10ITraceDataELN9__gnu_cxx12_Lock_policyE2EEC2Ev, symObjAddr: 0x2F06, symBinAddr: 0x10001325E, symSize: 0x2A }
  - { offsetInCU: 0x167D5, offset: 0x66C11, size: 0x8, addend: 0x0, symName: __ZNSt6vectorIjSaIjEE11_S_max_sizeERKS0_, symObjAddr: 0x2F30, symBinAddr: 0x100013288, symSize: 0x5A }
  - { offsetInCU: 0x167AF, offset: 0x66BEB, size: 0x8, addend: 0x0, symName: __ZNSt10_HashtableIySt4pairIKyjESaIS2_ENSt8__detail10_Select1stESt8equal_toIyESt4hashIyENS4_18_Mod_range_hashingENS4_20_Default_ranged_hashENS4_20_Prime_rehash_policyENS4_17_Hashtable_traitsILb0ELb0ELb1EEEE21_M_insert_unique_nodeEmmPNS4_10_Hash_nodeIS2_Lb0EEEm, symObjAddr: 0x2D88, symBinAddr: 0x100013160, symSize: 0xFE }
  - { offsetInCU: 0x16962, offset: 0x66D9E, size: 0x8, addend: 0x0, symName: __ZNSt10_HashtableIySt4pairIKyjESaIS2_ENSt8__detail10_Select1stESt8equal_toIyESt4hashIyENS4_18_Mod_range_hashingENS4_20_Default_ranged_hashENS4_20_Prime_rehash_policyENS4_17_Hashtable_traitsILb0ELb0ELb1EEEE12_Scoped_nodeD1Ev, symObjAddr: 0x2D52, symBinAddr: 0x10001312A, symSize: 0x36 }
  - { offsetInCU: 0x1696A, offset: 0x66DA6, size: 0x8, addend: 0x0, symName: __ZNSt10_HashtableIySt4pairIKyjESaIS2_ENSt8__detail10_Select1stESt8equal_toIyESt4hashIyENS4_18_Mod_range_hashingENS4_20_Default_ranged_hashENS4_20_Prime_rehash_policyENS4_17_Hashtable_traitsILb0ELb0ELb1EEEE21_M_insert_unique_nodeEmmPNS4_10_Hash_nodeIS2_Lb0EEEm, symObjAddr: 0x2D88, symBinAddr: 0x100013160, symSize: 0xFE }
  - { offsetInCU: 0x16A6E, offset: 0x66EAA, size: 0x8, addend: 0x0, symName: __ZNSt10_HashtableIySt4pairIKyjESaIS2_ENSt8__detail10_Select1stESt8equal_toIyESt4hashIyENS4_18_Mod_range_hashingENS4_20_Default_ranged_hashENS4_20_Prime_rehash_policyENS4_17_Hashtable_traitsILb0ELb0ELb1EEEE12_Scoped_nodeC1IJRKSt21piecewise_construct_tSt5tupleIJRS1_EESL_IJEEEEEPNS4_16_Hashtable_allocISaINS4_10_Hash_nodeIS2_Lb0EEEEEEDpOT_, symObjAddr: 0x2CD2, symBinAddr: 0x1000130AA, symSize: 0x80 }
  - { offsetInCU: 0x16A00, offset: 0x66E3C, size: 0x8, addend: 0x0, symName: __ZNSt5tupleIJRKyEEC1ILb1ELb1EEES1_, symObjAddr: 0x2CAC, symBinAddr: 0x100013084, symSize: 0x26 }
  - { offsetInCU: 0x16A08, offset: 0x66E44, size: 0x8, addend: 0x0, symName: __ZNSt10_HashtableIySt4pairIKyjESaIS2_ENSt8__detail10_Select1stESt8equal_toIyESt4hashIyENS4_18_Mod_range_hashingENS4_20_Default_ranged_hashENS4_20_Prime_rehash_policyENS4_17_Hashtable_traitsILb0ELb0ELb1EEEE12_Scoped_nodeC1IJRKSt21piecewise_construct_tSt5tupleIJRS1_EESL_IJEEEEEPNS4_16_Hashtable_allocISaINS4_10_Hash_nodeIS2_Lb0EEEEEEDpOT_, symObjAddr: 0x2CD2, symBinAddr: 0x1000130AA, symSize: 0x80 }
  - { offsetInCU: 0x16A26, offset: 0x66E62, size: 0x8, addend: 0x0, symName: __ZNSt8__detail21_Hash_node_value_baseISt4pairIKyjEE4_M_vEv, symObjAddr: 0x2C92, symBinAddr: 0x10001306A, symSize: 0x1A }
  - { offsetInCU: 0x16A2E, offset: 0x66E6A, size: 0x8, addend: 0x0, symName: __ZNSt5tupleIJRKyEEC1ILb1ELb1EEES1_, symObjAddr: 0x2CAC, symBinAddr: 0x100013084, symSize: 0x26 }
  - { offsetInCU: 0x16A55, offset: 0x66E91, size: 0x8, addend: 0x0, symName: __ZN9__gnu_cxx16__aligned_bufferISt4pairIKyjEE6_M_ptrEv, symObjAddr: 0x2C78, symBinAddr: 0x100013050, symSize: 0x1A }
  - { offsetInCU: 0x16A5D, offset: 0x66E99, size: 0x8, addend: 0x0, symName: __ZNSt8__detail21_Hash_node_value_baseISt4pairIKyjEE4_M_vEv, symObjAddr: 0x2C92, symBinAddr: 0x10001306A, symSize: 0x1A }
  - { offsetInCU: 0x16B00, offset: 0x66F3C, size: 0x8, addend: 0x0, symName: __ZNSt8__detail14_Node_iteratorISt4pairIKyjELb0ELb0EEC1EPNS_10_Hash_nodeIS3_Lb0EEE, symObjAddr: 0x2C52, symBinAddr: 0x10001302A, symSize: 0x26 }
  - { offsetInCU: 0x16B08, offset: 0x66F44, size: 0x8, addend: 0x0, symName: __ZN9__gnu_cxx16__aligned_bufferISt4pairIKyjEE6_M_ptrEv, symObjAddr: 0x2C78, symBinAddr: 0x100013050, symSize: 0x1A }
  - { offsetInCU: 0x16AE8, offset: 0x66F24, size: 0x8, addend: 0x0, symName: __ZNKSt10_HashtableIySt4pairIKyjESaIS2_ENSt8__detail10_Select1stESt8equal_toIyESt4hashIyENS4_18_Mod_range_hashingENS4_20_Default_ranged_hashENS4_20_Prime_rehash_policyENS4_17_Hashtable_traitsILb0ELb0ELb1EEEE12_M_find_nodeEmRS1_m, symObjAddr: 0x2C06, symBinAddr: 0x100012FDE, symSize: 0x4C }
  - { offsetInCU: 0x16B67, offset: 0x66FA3, size: 0x8, addend: 0x0, symName: __ZNKSt10_HashtableIySt4pairIKyjESaIS2_ENSt8__detail10_Select1stESt8equal_toIyESt4hashIyENS4_18_Mod_range_hashingENS4_20_Default_ranged_hashENS4_20_Prime_rehash_policyENS4_17_Hashtable_traitsILb0ELb0ELb1EEEE15_M_bucket_indexEm, symObjAddr: 0x2BD8, symBinAddr: 0x100012FB0, symSize: 0x2E }
  - { offsetInCU: 0x16BAA, offset: 0x66FE6, size: 0x8, addend: 0x0, symName: __ZNKSt8__detail15_Hash_code_baseIySt4pairIKyjENS_10_Select1stESt4hashIyENS_18_Mod_range_hashingENS_20_Default_ranged_hashELb0EE12_M_hash_codeERS2_, symObjAddr: 0x2BA4, symBinAddr: 0x100012F7C, symSize: 0x34 }
  - { offsetInCU: 0x16BED, offset: 0x67029, size: 0x8, addend: 0x0, symName: __ZNKSt8__detail15_Hashtable_baseIySt4pairIKyjENS_10_Select1stESt8equal_toIyESt4hashIyENS_18_Mod_range_hashingENS_20_Default_ranged_hashENS_17_Hashtable_traitsILb0ELb0ELb1EEEE13_M_key_equalsERS2_RKNS_16_Hash_node_valueIS3_Lb0EEE, symObjAddr: 0x2B4A, symBinAddr: 0x100012F22, symSize: 0x5A }
  - { offsetInCU: 0x16BF5, offset: 0x67031, size: 0x8, addend: 0x0, symName: __ZNKSt8__detail15_Hash_code_baseIySt4pairIKyjENS_10_Select1stESt4hashIyENS_18_Mod_range_hashingENS_20_Default_ranged_hashELb0EE12_M_hash_codeERS2_, symObjAddr: 0x2BA4, symBinAddr: 0x100012F7C, symSize: 0x34 }
  - { offsetInCU: 0x16C45, offset: 0x67081, size: 0x8, addend: 0x0, symName: __ZNSt8__detail14_Node_iteratorISt4pairIKyjELb0ELb0EEppEv, symObjAddr: 0x2B2C, symBinAddr: 0x100012F04, symSize: 0x1E }
  - { offsetInCU: 0x16C4D, offset: 0x67089, size: 0x8, addend: 0x0, symName: __ZNKSt8__detail15_Hashtable_baseIySt4pairIKyjENS_10_Select1stESt8equal_toIyESt4hashIyENS_18_Mod_range_hashingENS_20_Default_ranged_hashENS_17_Hashtable_traitsILb0ELb0ELb1EEEE13_M_key_equalsERS2_RKNS_16_Hash_node_valueIS3_Lb0EEE, symObjAddr: 0x2B4A, symBinAddr: 0x100012F22, symSize: 0x5A }
  - { offsetInCU: 0x16C74, offset: 0x670B0, size: 0x8, addend: 0x0, symName: __ZNSt10_HashtableIySt4pairIKyjESaIS2_ENSt8__detail10_Select1stESt8equal_toIyESt4hashIyENS4_18_Mod_range_hashingENS4_20_Default_ranged_hashENS4_20_Prime_rehash_policyENS4_17_Hashtable_traitsILb0ELb0ELb1EEEE5beginEv, symObjAddr: 0x2AFC, symBinAddr: 0x100012ED4, symSize: 0x30 }
  - { offsetInCU: 0x16C7C, offset: 0x670B8, size: 0x8, addend: 0x0, symName: __ZNSt8__detail14_Node_iteratorISt4pairIKyjELb0ELb0EEppEv, symObjAddr: 0x2B2C, symBinAddr: 0x100012F04, symSize: 0x1E }
  - { offsetInCU: 0x16CA4, offset: 0x670E0, size: 0x8, addend: 0x0, symName: __ZNSt10_HashtableIySt4pairIKyjESaIS2_ENSt8__detail10_Select1stESt8equal_toIyESt4hashIyENS4_18_Mod_range_hashingENS4_20_Default_ranged_hashENS4_20_Prime_rehash_policyENS4_17_Hashtable_traitsILb0ELb0ELb1EEEE22__small_size_thresholdEv, symObjAddr: 0x2AF0, symBinAddr: 0x100012EC8, symSize: 0xC }
  - { offsetInCU: 0x16CC1, offset: 0x670FD, size: 0x8, addend: 0x0, symName: __ZNKSt10_HashtableIySt4pairIKyjESaIS2_ENSt8__detail10_Select1stESt8equal_toIyESt4hashIyENS4_18_Mod_range_hashingENS4_20_Default_ranged_hashENS4_20_Prime_rehash_policyENS4_17_Hashtable_traitsILb0ELb0ELb1EEEE4sizeEv, symObjAddr: 0x2ADE, symBinAddr: 0x100012EB6, symSize: 0x12 }
  - { offsetInCU: 0x16CC9, offset: 0x67105, size: 0x8, addend: 0x0, symName: __ZNSt10_HashtableIySt4pairIKyjESaIS2_ENSt8__detail10_Select1stESt8equal_toIyESt4hashIyENS4_18_Mod_range_hashingENS4_20_Default_ranged_hashENS4_20_Prime_rehash_policyENS4_17_Hashtable_traitsILb0ELb0ELb1EEEE22__small_size_thresholdEv, symObjAddr: 0x2AF0, symBinAddr: 0x100012EC8, symSize: 0xC }
  - { offsetInCU: 0x16CF0, offset: 0x6712C, size: 0x8, addend: 0x0, symName: __ZNSt10_HashtableIySt4pairIKyjESaIS2_ENSt8__detail10_Select1stESt8equal_toIyESt4hashIyENS4_18_Mod_range_hashingENS4_20_Default_ranged_hashENS4_20_Prime_rehash_policyENS4_17_Hashtable_traitsILb0ELb0ELb1EEEE21_M_deallocate_bucketsEPPNS4_15_Hash_node_baseEm, symObjAddr: 0x2A96, symBinAddr: 0x100012E6E, symSize: 0x48 }
  - { offsetInCU: 0x16D47, offset: 0x67183, size: 0x8, addend: 0x0, symName: __ZNSt8__detail16_Hashtable_allocISaINS_10_Hash_nodeISt4pairIKyjELb0EEEEE19_M_deallocate_nodesEPS5_, symObjAddr: 0x2A4E, symBinAddr: 0x100012E26, symSize: 0x48 }
  - { offsetInCU: 0x16D4F, offset: 0x6718B, size: 0x8, addend: 0x0, symName: __ZNSt10_HashtableIySt4pairIKyjESaIS2_ENSt8__detail10_Select1stESt8equal_toIyESt4hashIyENS4_18_Mod_range_hashingENS4_20_Default_ranged_hashENS4_20_Prime_rehash_policyENS4_17_Hashtable_traitsILb0ELb0ELb1EEEE21_M_deallocate_bucketsEPPNS4_15_Hash_node_baseEm, symObjAddr: 0x2A96, symBinAddr: 0x100012E6E, symSize: 0x48 }
  - { offsetInCU: 0x16DB0, offset: 0x671EC, size: 0x8, addend: 0x0, symName: __ZNKSt10_HashtableIySt4pairIKyjESaIS2_ENSt8__detail10_Select1stESt8equal_toIyESt4hashIyENS4_18_Mod_range_hashingENS4_20_Default_ranged_hashENS4_20_Prime_rehash_policyENS4_17_Hashtable_traitsILb0ELb0ELb1EEEE8_M_beginEv, symObjAddr: 0x2A3C, symBinAddr: 0x100012E14, symSize: 0x12 }
  - { offsetInCU: 0x16DB8, offset: 0x671F4, size: 0x8, addend: 0x0, symName: __ZNSt8__detail16_Hashtable_allocISaINS_10_Hash_nodeISt4pairIKyjELb0EEEEE19_M_deallocate_nodesEPS5_, symObjAddr: 0x2A4E, symBinAddr: 0x100012E26, symSize: 0x48 }
  - { offsetInCU: 0x16DF8, offset: 0x67234, size: 0x8, addend: 0x0, symName: __ZNKSt6vectorIjSaIjEEixEm, symObjAddr: 0x2A1C, symBinAddr: 0x100012DF4, symSize: 0x20 }
  - { offsetInCU: 0x16E00, offset: 0x6723C, size: 0x8, addend: 0x0, symName: __ZNKSt10_HashtableIySt4pairIKyjESaIS2_ENSt8__detail10_Select1stESt8equal_toIyESt4hashIyENS4_18_Mod_range_hashingENS4_20_Default_ranged_hashENS4_20_Prime_rehash_policyENS4_17_Hashtable_traitsILb0ELb0ELb1EEEE8_M_beginEv, symObjAddr: 0x2A3C, symBinAddr: 0x100012E14, symSize: 0x12 }
  - { offsetInCU: 0x16E3B, offset: 0x67277, size: 0x8, addend: 0x0, symName: __ZNKSt6vectorIjSaIjEE14_M_range_checkEm, symObjAddr: 0x29C8, symBinAddr: 0x100012DA0, symSize: 0x54 }
  - { offsetInCU: 0x16E43, offset: 0x6727F, size: 0x8, addend: 0x0, symName: __ZNKSt6vectorIjSaIjEEixEm, symObjAddr: 0x2A1C, symBinAddr: 0x100012DF4, symSize: 0x20 }
  - { offsetInCU: 0x16E7E, offset: 0x672BA, size: 0x8, addend: 0x0, symName: __ZNKSt19__shared_ptr_accessIN6tinyrv5InstrELN9__gnu_cxx12_Lock_policyE2ELb0ELb0EE6_M_getEv, symObjAddr: 0x29AE, symBinAddr: 0x100012D86, symSize: 0x1A }
  - { offsetInCU: 0x16E86, offset: 0x672C2, size: 0x8, addend: 0x0, symName: __ZNKSt6vectorIjSaIjEE14_M_range_checkEm, symObjAddr: 0x29C8, symBinAddr: 0x100012DA0, symSize: 0x54 }
  - { offsetInCU: 0x16EAD, offset: 0x672E9, size: 0x8, addend: 0x0, symName: __ZNSt10_HashtableIjSt4pairIKjjESaIS2_ENSt8__detail10_Select1stESt8equal_toIjESt4hashIjENS4_18_Mod_range_hashingENS4_20_Default_ranged_hashENS4_20_Prime_rehash_policyENS4_17_Hashtable_traitsILb0ELb0ELb1EEEE21_M_deallocate_bucketsEv, symObjAddr: 0x2980, symBinAddr: 0x100012D58, symSize: 0x2E }
  - { offsetInCU: 0x16EDC, offset: 0x67318, size: 0x8, addend: 0x0, symName: __ZNSt10_HashtableIjSt4pairIKjjESaIS2_ENSt8__detail10_Select1stESt8equal_toIjESt4hashIjENS4_18_Mod_range_hashingENS4_20_Default_ranged_hashENS4_20_Prime_rehash_policyENS4_17_Hashtable_traitsILb0ELb0ELb1EEEE5clearEv, symObjAddr: 0x2916, symBinAddr: 0x100012CEE, symSize: 0x6A }
  - { offsetInCU: 0x16F7A, offset: 0x673B6, size: 0x8, addend: 0x0, symName: __ZNSt15__new_allocatorINSt8__detail10_Hash_nodeISt4pairIKjjELb0EEEED2Ev, symObjAddr: 0x290A, symBinAddr: 0x100012CE2, symSize: 0xC }
  - { offsetInCU: 0x16FCF, offset: 0x6740B, size: 0x8, addend: 0x0, symName: __ZNSt12_Vector_baseIjSaIjEE19_M_get_Tp_allocatorEv, symObjAddr: 0x28CE, symBinAddr: 0x100012CD4, symSize: 0xE }
  - { offsetInCU: 0x16FFE, offset: 0x6743A, size: 0x8, addend: 0x0, symName: __ZNSt6vectorIjSaIjEE21_M_default_initializeEm, symObjAddr: 0x288E, symBinAddr: 0x100012C94, symSize: 0x40 }
  - { offsetInCU: 0x17006, offset: 0x67442, size: 0x8, addend: 0x0, symName: __ZNSt12_Vector_baseIjSaIjEE19_M_get_Tp_allocatorEv, symObjAddr: 0x28CE, symBinAddr: 0x100012CD4, symSize: 0xE }
  - { offsetInCU: 0x17088, offset: 0x674C4, size: 0x8, addend: 0x0, symName: __ZNSt12_Vector_baseIjSaIjEED2Ev, symObjAddr: 0x2840, symBinAddr: 0x100012C46, symSize: 0x4E }
  - { offsetInCU: 0x170F6, offset: 0x67532, size: 0x8, addend: 0x0, symName: __ZNSt12_Vector_baseIjSaIjEEC2EmRKS0_, symObjAddr: 0x27E2, symBinAddr: 0x100012BE8, symSize: 0x5E }
  - { offsetInCU: 0x17170, offset: 0x675AC, size: 0x8, addend: 0x0, symName: __ZNSt12_Vector_baseIjSaIjEE12_Vector_implD1Ev, symObjAddr: 0x27BE, symBinAddr: 0x100012BC4, symSize: 0x24 }
  - { offsetInCU: 0x17178, offset: 0x675B4, size: 0x8, addend: 0x0, symName: __ZNSt12_Vector_baseIjSaIjEEC2EmRKS0_, symObjAddr: 0x27E2, symBinAddr: 0x100012BE8, symSize: 0x5E }
  - { offsetInCU: 0x17196, offset: 0x675D2, size: 0x8, addend: 0x0, symName: __ZNSt6vectorIjSaIjEE17_S_check_init_lenEmRKS0_, symObjAddr: 0x2755, symBinAddr: 0x100012B5B, symSize: 0x69 }
  - { offsetInCU: 0x172A7, offset: 0x676E3, size: 0x8, addend: 0x0, symName: __ZNSt15__new_allocatorIjED2Ev, symObjAddr: 0x274A, symBinAddr: 0x100012B50, symSize: 0xB }
  - { offsetInCU: 0x172AF, offset: 0x676EB, size: 0x8, addend: 0x0, symName: __ZNSt6vectorIjSaIjEE17_S_check_init_lenEmRKS0_, symObjAddr: 0x2755, symBinAddr: 0x100012B5B, symSize: 0x69 }
  - { offsetInCU: 0x17316, offset: 0x67752, size: 0x8, addend: 0x0, symName: __ZNSt10shared_ptrIN6tinyrv10ITraceDataEEC1Ev, symObjAddr: 0x272E, symBinAddr: 0x100012B34, symSize: 0x1C }
  - { offsetInCU: 0x17317, offset: 0x67753, size: 0x8, addend: 0x0, symName: __ZNSt8__detail9_Map_baseIySt4pairIKyjESaIS3_ENS_10_Select1stESt8equal_toIyESt4hashIyENS_18_Mod_range_hashingENS_20_Default_ranged_hashENS_20_Prime_rehash_policyENS_17_Hashtable_traitsILb0ELb0ELb1EEELb1EEixERS2_, symObjAddr: 0x2532, symBinAddr: 0x100012A0A, symSize: 0x12A }
  - { offsetInCU: 0x173F2, offset: 0x6782E, size: 0x8, addend: 0x0, symName: __ZNSt8__detail21_Hash_node_value_baseISt4pairIKyjEE9_M_valptrEv, symObjAddr: 0x2518, symBinAddr: 0x1000129F0, symSize: 0x1A }
  - { offsetInCU: 0x173FA, offset: 0x67836, size: 0x8, addend: 0x0, symName: __ZNSt8__detail9_Map_baseIySt4pairIKyjESaIS3_ENS_10_Select1stESt8equal_toIyESt4hashIyENS_18_Mod_range_hashingENS_20_Default_ranged_hashENS_20_Prime_rehash_policyENS_17_Hashtable_traitsILb0ELb0ELb1EEELb1EEixERS2_, symObjAddr: 0x2532, symBinAddr: 0x100012A0A, symSize: 0x12A }
  - { offsetInCU: 0x17421, offset: 0x6785D, size: 0x8, addend: 0x0, symName: __ZNSt10_HashtableIySt4pairIKyjESaIS2_ENSt8__detail10_Select1stESt8equal_toIyESt4hashIyENS4_18_Mod_range_hashingENS4_20_Default_ranged_hashENS4_20_Prime_rehash_policyENS4_17_Hashtable_traitsILb0ELb0ELb1EEEE3endEv, symObjAddr: 0x24F4, symBinAddr: 0x1000129CC, symSize: 0x24 }
  - { offsetInCU: 0x17450, offset: 0x6788C, size: 0x8, addend: 0x0, symName: __ZNSt10_HashtableIySt4pairIKyjESaIS2_ENSt8__detail10_Select1stESt8equal_toIyESt4hashIyENS4_18_Mod_range_hashingENS4_20_Default_ranged_hashENS4_20_Prime_rehash_policyENS4_17_Hashtable_traitsILb0ELb0ELb1EEEE4findERS1_, symObjAddr: 0x23E8, symBinAddr: 0x1000128C0, symSize: 0x10C }
  - { offsetInCU: 0x17458, offset: 0x67894, size: 0x8, addend: 0x0, symName: __ZNSt10_HashtableIySt4pairIKyjESaIS2_ENSt8__detail10_Select1stESt8equal_toIyESt4hashIyENS4_18_Mod_range_hashingENS4_20_Default_ranged_hashENS4_20_Prime_rehash_policyENS4_17_Hashtable_traitsILb0ELb0ELb1EEEE3endEv, symObjAddr: 0x24F4, symBinAddr: 0x1000129CC, symSize: 0x24 }
  - { offsetInCU: 0x174E4, offset: 0x67920, size: 0x8, addend: 0x0, symName: __ZNSt10_HashtableIySt4pairIKyjESaIS2_ENSt8__detail10_Select1stESt8equal_toIyESt4hashIyENS4_18_Mod_range_hashingENS4_20_Default_ranged_hashENS4_20_Prime_rehash_policyENS4_17_Hashtable_traitsILb0ELb0ELb1EEEE21_M_deallocate_bucketsEv, symObjAddr: 0x23BA, symBinAddr: 0x100012892, symSize: 0x2E }
  - { offsetInCU: 0x17513, offset: 0x6794F, size: 0x8, addend: 0x0, symName: __ZNSt10_HashtableIySt4pairIKyjESaIS2_ENSt8__detail10_Select1stESt8equal_toIyESt4hashIyENS4_18_Mod_range_hashingENS4_20_Default_ranged_hashENS4_20_Prime_rehash_policyENS4_17_Hashtable_traitsILb0ELb0ELb1EEEE5clearEv, symObjAddr: 0x2350, symBinAddr: 0x100012828, symSize: 0x6A }
  - { offsetInCU: 0x175B1, offset: 0x679ED, size: 0x8, addend: 0x0, symName: __ZNSt15__new_allocatorINSt8__detail10_Hash_nodeISt4pairIKyjELb0EEEED2Ev, symObjAddr: 0x2344, symBinAddr: 0x10001281C, symSize: 0xC }
  - { offsetInCU: 0x1761E, offset: 0x67A5A, size: 0x8, addend: 0x0, symName: __Z6unusedIJRN6tinyrv8AddrTypeEEEvDpOT_, symObjAddr: 0x232C, symBinAddr: 0x100012810, symSize: 0xC }
  - { offsetInCU: 0x17629, offset: 0x67A65, size: 0x8, addend: 0x0, symName: __ZNKSt6vectorIjSaIjEE2atEm, symObjAddr: 0x22F4, symBinAddr: 0x1000127D8, symSize: 0x38 }
  - { offsetInCU: 0x17631, offset: 0x67A6D, size: 0x8, addend: 0x0, symName: __Z6unusedIJRN6tinyrv8AddrTypeEEEvDpOT_, symObjAddr: 0x232C, symBinAddr: 0x100012810, symSize: 0xC }
  - { offsetInCU: 0x1766C, offset: 0x67AA8, size: 0x8, addend: 0x0, symName: __ZNKSt19__shared_ptr_accessIN6tinyrv5InstrELN9__gnu_cxx12_Lock_policyE2ELb0ELb0EEdeEv, symObjAddr: 0x22B2, symBinAddr: 0x100012796, symSize: 0x42 }
  - { offsetInCU: 0x17674, offset: 0x67AB0, size: 0x8, addend: 0x0, symName: __ZNKSt6vectorIjSaIjEE2atEm, symObjAddr: 0x22F4, symBinAddr: 0x1000127D8, symSize: 0x38 }
  - { offsetInCU: 0x1769B, offset: 0x67AD7, size: 0x8, addend: 0x0, symName: __ZNKSt12__shared_ptrIN6tinyrv5InstrELN9__gnu_cxx12_Lock_policyE2EEcvbEv, symObjAddr: 0x229A, symBinAddr: 0x10001277E, symSize: 0x18 }
  - { offsetInCU: 0x176F1, offset: 0x67B2D, size: 0x8, addend: 0x0, symName: __ZNSt13unordered_mapIjjSt4hashIjESt8equal_toIjESaISt4pairIKjjEEE5clearEv, symObjAddr: 0x227E, symBinAddr: 0x100012762, symSize: 0x1C }
  - { offsetInCU: 0x17819, offset: 0x67C55, size: 0x8, addend: 0x0, symName: __ZNSt10_HashtableIjSt4pairIKjjESaIS2_ENSt8__detail10_Select1stESt8equal_toIjESt4hashIjENS4_18_Mod_range_hashingENS4_20_Default_ranged_hashENS4_20_Prime_rehash_policyENS4_17_Hashtable_traitsILb0ELb0ELb1EEEED1Ev, symObjAddr: 0x224A, symBinAddr: 0x10001272E, symSize: 0x34 }
  - { offsetInCU: 0x1780F, offset: 0x67C4B, size: 0x8, addend: 0x0, symName: __ZNSt8__detail21_Hashtable_ebo_helperILi0ESaINS_10_Hash_nodeISt4pairIKjjELb0EEEELb1EEC2Ev, symObjAddr: 0x222C, symBinAddr: 0x100012710, symSize: 0x1E }
  - { offsetInCU: 0x1788A, offset: 0x67CC6, size: 0x8, addend: 0x0, symName: __ZNSt8__detail21_Hashtable_ebo_helperILi0ESt8equal_toIjELb1EEC2Ev, symObjAddr: 0x2220, symBinAddr: 0x100012704, symSize: 0xC }
  - { offsetInCU: 0x178CD, offset: 0x67D09, size: 0x8, addend: 0x0, symName: __ZNSt8__detail21_Hashtable_ebo_helperILi1ESt4hashIjELb1EEC2Ev, symObjAddr: 0x2214, symBinAddr: 0x1000126F8, symSize: 0xC }
  - { offsetInCU: 0x178FD, offset: 0x67D39, size: 0x8, addend: 0x0, symName: __ZNSt6vectorIjSaIjEED1Ev, symObjAddr: 0x214A, symBinAddr: 0x1000126A2, symSize: 0x56 }
  - { offsetInCU: 0x179A9, offset: 0x67DE5, size: 0x8, addend: 0x0, symName: __ZNSt6vectorIjSaIjEEC1EmRKS0_, symObjAddr: 0x20D4, symBinAddr: 0x10001262C, symSize: 0x76 }
  - { offsetInCU: 0x179B1, offset: 0x67DED, size: 0x8, addend: 0x0, symName: __ZNSt6vectorIjSaIjEED1Ev, symObjAddr: 0x214A, symBinAddr: 0x1000126A2, symSize: 0x56 }
  - { offsetInCU: 0x17A61, offset: 0x67E9D, size: 0x8, addend: 0x0, symName: __ZNSt10shared_ptrIN6tinyrv10ITraceDataEEC1EDn, symObjAddr: 0x208A, symBinAddr: 0x10001260C, symSize: 0x20 }
  - { offsetInCU: 0x17A6D, offset: 0x67EA9, size: 0x8, addend: 0x0, symName: __ZNSt13unordered_mapIyjSt4hashIyESt8equal_toIyESaISt4pairIKyjEEE5clearEv, symObjAddr: 0x1FC0, symBinAddr: 0x1000125F0, symSize: 0x1C }
  - { offsetInCU: 0x17A9C, offset: 0x67ED8, size: 0x8, addend: 0x0, symName: __ZNSt13unordered_mapIyjSt4hashIyESt8equal_toIyESaISt4pairIKyjEEEixERS5_, symObjAddr: 0x1F9A, symBinAddr: 0x1000125CA, symSize: 0x26 }
  - { offsetInCU: 0x17ADF, offset: 0x67F1B, size: 0x8, addend: 0x0, symName: __ZNKSt8__detail14_Node_iteratorISt4pairIKyjELb0ELb0EEptEv, symObjAddr: 0x1F78, symBinAddr: 0x1000125A8, symSize: 0x22 }
  - { offsetInCU: 0x17B60, offset: 0x67F9C, size: 0x8, addend: 0x0, symName: __ZNSt8__detailneERKNS_19_Node_iterator_baseISt4pairIKyjELb0EEES6_, symObjAddr: 0x1F56, symBinAddr: 0x100012586, symSize: 0x22 }
  - { offsetInCU: 0x17B68, offset: 0x67FA4, size: 0x8, addend: 0x0, symName: __ZNKSt8__detail14_Node_iteratorISt4pairIKyjELb0ELb0EEptEv, symObjAddr: 0x1F78, symBinAddr: 0x1000125A8, symSize: 0x22 }
  - { offsetInCU: 0x17B6B, offset: 0x67FA7, size: 0x8, addend: 0x0, symName: __ZNSt13unordered_mapIyjSt4hashIyESt8equal_toIyESaISt4pairIKyjEEE3endEv, symObjAddr: 0x1F3C, symBinAddr: 0x10001256C, symSize: 0x1A }
  - { offsetInCU: 0x17B73, offset: 0x67FAF, size: 0x8, addend: 0x0, symName: __ZNSt8__detailneERKNS_19_Node_iterator_baseISt4pairIKyjELb0EEES6_, symObjAddr: 0x1F56, symBinAddr: 0x100012586, symSize: 0x22 }
  - { offsetInCU: 0x17B9A, offset: 0x67FD6, size: 0x8, addend: 0x0, symName: __ZNSt13unordered_mapIyjSt4hashIyESt8equal_toIyESaISt4pairIKyjEEE4findERS5_, symObjAddr: 0x1F16, symBinAddr: 0x100012546, symSize: 0x26 }
  - { offsetInCU: 0x17CD6, offset: 0x68112, size: 0x8, addend: 0x0, symName: __ZNSt10_HashtableIySt4pairIKyjESaIS2_ENSt8__detail10_Select1stESt8equal_toIyESt4hashIyENS4_18_Mod_range_hashingENS4_20_Default_ranged_hashENS4_20_Prime_rehash_policyENS4_17_Hashtable_traitsILb0ELb0ELb1EEEED1Ev, symObjAddr: 0x1EE2, symBinAddr: 0x100012512, symSize: 0x34 }
  - { offsetInCU: 0x17CCC, offset: 0x68108, size: 0x8, addend: 0x0, symName: __ZNSt8__detail21_Hashtable_ebo_helperILi0ESaINS_10_Hash_nodeISt4pairIKyjELb0EEEELb1EEC2Ev, symObjAddr: 0x1EC4, symBinAddr: 0x1000124F4, symSize: 0x1E }
  - { offsetInCU: 0x17D20, offset: 0x6815C, size: 0x8, addend: 0x0, symName: __ZSt7setfillIcESt8_SetfillIT_ES1_, symObjAddr: 0x1DCF, symBinAddr: 0x1000124E5, symSize: 0xF }
  - { offsetInCU: 0x17D84, offset: 0x681C0, size: 0x8, addend: 0x0, symName: __ZSt3minImERKT_S2_S2_, symObjAddr: 0x1DA4, symBinAddr: 0x1000124BA, symSize: 0x2B }
  - { offsetInCU: 0x17D8C, offset: 0x681C8, size: 0x8, addend: 0x0, symName: __ZSt7setfillIcESt8_SetfillIT_ES1_, symObjAddr: 0x1DCF, symBinAddr: 0x1000124E5, symSize: 0xF }
  - { offsetInCU: 0x17DF3, offset: 0x6822F, size: 0x8, addend: 0x0, symName: __ZN6tinyrv8Emulator7set_csrEjj, symObjAddr: 0x1C90, symBinAddr: 0x1000123A6, symSize: 0x114 }
  - { offsetInCU: 0x17DFB, offset: 0x68237, size: 0x8, addend: 0x0, symName: __ZSt3minImERKT_S2_S2_, symObjAddr: 0x1DA4, symBinAddr: 0x1000124BA, symSize: 0x2B }
  - { offsetInCU: 0x17E4C, offset: 0x68288, size: 0x8, addend: 0x0, symName: __ZN6tinyrv8Emulator7get_csrEj, symObjAddr: 0x1AE0, symBinAddr: 0x1000121F6, symSize: 0x1B0 }
  - { offsetInCU: 0x17E54, offset: 0x68290, size: 0x8, addend: 0x0, symName: __ZN6tinyrv8Emulator7set_csrEjj, symObjAddr: 0x1C90, symBinAddr: 0x1000123A6, symSize: 0x114 }
  - { offsetInCU: 0x17E92, offset: 0x682CE, size: 0x8, addend: 0x0, symName: __ZN6tinyrv8Emulator10cout_flushEv, symObjAddr: 0x1A50, symBinAddr: 0x100012166, symSize: 0x90 }
  - { offsetInCU: 0x17E9A, offset: 0x682D6, size: 0x8, addend: 0x0, symName: __ZN6tinyrv8Emulator7get_csrEj, symObjAddr: 0x1AE0, symBinAddr: 0x1000121F6, symSize: 0x1B0 }
  - { offsetInCU: 0x17ED9, offset: 0x68315, size: 0x8, addend: 0x0, symName: __ZN6tinyrv8Emulator13writeToStdOutEPKv, symObjAddr: 0x191E, symBinAddr: 0x100012034, symSize: 0x132 }
  - { offsetInCU: 0x17EE1, offset: 0x6831D, size: 0x8, addend: 0x0, symName: __ZN6tinyrv8Emulator10cout_flushEv, symObjAddr: 0x1A50, symBinAddr: 0x100012166, symSize: 0x90 }
  - { offsetInCU: 0x17FC3, offset: 0x683FF, size: 0x8, addend: 0x0, symName: __ZN6tinyrv8Emulator12dcache_writeEPKvyj, symObjAddr: 0x1724, symBinAddr: 0x100011E3A, symSize: 0x1FA }
  - { offsetInCU: 0x17FCB, offset: 0x68407, size: 0x8, addend: 0x0, symName: __ZN6tinyrv8Emulator13writeToStdOutEPKv, symObjAddr: 0x191E, symBinAddr: 0x100012034, symSize: 0x132 }
  - { offsetInCU: 0x18047, offset: 0x68483, size: 0x8, addend: 0x0, symName: __ZN6tinyrv8Emulator11dcache_readEPvyj, symObjAddr: 0x1560, symBinAddr: 0x100011C76, symSize: 0x1C4 }
  - { offsetInCU: 0x18115, offset: 0x68551, size: 0x8, addend: 0x0, symName: __ZN10ByteStreamD0Ev, symObjAddr: 0x152E, symBinAddr: 0x100011C44, symSize: 0x26 }
  - { offsetInCU: 0x1811D, offset: 0x68559, size: 0x8, addend: 0x0, symName: __ZTv0_n24_N10ByteStreamD0Ev, symObjAddr: 0x1554, symBinAddr: 0x100011C6A, symSize: 0xC }
  - { offsetInCU: 0x18143, offset: 0x6857F, size: 0x8, addend: 0x0, symName: __ZN10ByteStreamD1Ev, symObjAddr: 0x14C0, symBinAddr: 0x100011BD6, symSize: 0x61 }
  - { offsetInCU: 0x1814B, offset: 0x68587, size: 0x8, addend: 0x0, symName: __ZTv0_n24_N10ByteStreamD1Ev, symObjAddr: 0x1521, symBinAddr: 0x100011C37, symSize: 0xD }
  - { offsetInCU: 0x18160, offset: 0x6859C, size: 0x8, addend: 0x0, symName: __ZN6tinyrv8Emulator11icache_readEPvyj, symObjAddr: 0x1484, symBinAddr: 0x100011B9A, symSize: 0x3C }
  - { offsetInCU: 0x181CC, offset: 0x68608, size: 0x8, addend: 0x0, symName: __ZNK6tinyrv8Emulator10check_exitEPjb, symObjAddr: 0x1418, symBinAddr: 0x100011B2E, symSize: 0x6C }
  - { offsetInCU: 0x1824A, offset: 0x68686, size: 0x8, addend: 0x0, symName: __ZN6tinyrv8Emulator14trigger_ebreakEv, symObjAddr: 0x1402, symBinAddr: 0x100011B18, symSize: 0x16 }
  - { offsetInCU: 0x18252, offset: 0x6868E, size: 0x8, addend: 0x0, symName: __ZNK6tinyrv8Emulator10check_exitEPjb, symObjAddr: 0x1418, symBinAddr: 0x100011B2E, symSize: 0x6C }
  - { offsetInCU: 0x1827D, offset: 0x686B9, size: 0x8, addend: 0x0, symName: __ZN6tinyrv8Emulator13trigger_ecallEv, symObjAddr: 0x13EC, symBinAddr: 0x100011B02, symSize: 0x16 }
  - { offsetInCU: 0x18285, offset: 0x686C1, size: 0x8, addend: 0x0, symName: __ZN6tinyrv8Emulator14trigger_ebreakEv, symObjAddr: 0x1402, symBinAddr: 0x100011B18, symSize: 0x16 }
  - { offsetInCU: 0x182B0, offset: 0x686EC, size: 0x8, addend: 0x0, symName: __ZN6tinyrv8Emulator4stepEv, symObjAddr: 0x10C0, symBinAddr: 0x1000117D6, symSize: 0x32C }
  - { offsetInCU: 0x182B8, offset: 0x686F4, size: 0x8, addend: 0x0, symName: __ZN6tinyrv8Emulator13trigger_ecallEv, symObjAddr: 0x13EC, symBinAddr: 0x100011B02, symSize: 0x16 }
  - { offsetInCU: 0x183A5, offset: 0x687E1, size: 0x8, addend: 0x0, symName: __ZNSt10shared_ptrIN6tinyrv5InstrEED1Ev, symObjAddr: 0x10A4, symBinAddr: 0x1000117BA, symSize: 0x1C }
  - { offsetInCU: 0x18419, offset: 0x68855, size: 0x8, addend: 0x0, symName: __ZNSt12__shared_ptrIN6tinyrv5InstrELN9__gnu_cxx12_Lock_policyE2EED2Ev, symObjAddr: 0x1084, symBinAddr: 0x10001179A, symSize: 0x20 }
  - { offsetInCU: 0x18404, offset: 0x68840, size: 0x8, addend: 0x0, symName: __ZN6tinyrv8Emulator10attach_ramEPNS_3RAME, symObjAddr: 0x1050, symBinAddr: 0x100011766, symSize: 0x34 }
  - { offsetInCU: 0x1840C, offset: 0x68848, size: 0x8, addend: 0x0, symName: __ZNSt12__shared_ptrIN6tinyrv5InstrELN9__gnu_cxx12_Lock_policyE2EED2Ev, symObjAddr: 0x1084, symBinAddr: 0x10001179A, symSize: 0x20 }
  - { offsetInCU: 0x1844A, offset: 0x68886, size: 0x8, addend: 0x0, symName: __ZN6tinyrv8Emulator5clearEv, symObjAddr: 0xFC6, symBinAddr: 0x1000116DC, symSize: 0x8A }
  - { offsetInCU: 0x184BD, offset: 0x688F9, size: 0x8, addend: 0x0, symName: __ZN6tinyrv8EmulatorD1Ev, symObjAddr: 0xF54, symBinAddr: 0x10001166A, symSize: 0x72 }
  - { offsetInCU: 0x184EB, offset: 0x68927, size: 0x8, addend: 0x0, symName: __ZN6tinyrv8EmulatorD2Ev, symObjAddr: 0xEE2, symBinAddr: 0x1000115F8, symSize: 0x72 }
  - { offsetInCU: 0x1854F, offset: 0x6898B, size: 0x8, addend: 0x0, symName: __ZN6tinyrv8EmulatorC1EPNS_4CoreE, symObjAddr: 0xD96, symBinAddr: 0x1000114AC, symSize: 0x14C }
  - { offsetInCU: 0x18557, offset: 0x68993, size: 0x8, addend: 0x0, symName: __ZN6tinyrv8EmulatorD2Ev, symObjAddr: 0xEE2, symBinAddr: 0x1000115F8, symSize: 0x72 }
  - { offsetInCU: 0x18618, offset: 0x68A54, size: 0x8, addend: 0x0, symName: __ZN6tinyrv8EmulatorC2EPNS_4CoreE, symObjAddr: 0xC4A, symBinAddr: 0x100011360, symSize: 0x14C }
  - { offsetInCU: 0x18620, offset: 0x68A5C, size: 0x8, addend: 0x0, symName: __ZN6tinyrv8EmulatorC1EPNS_4CoreE, symObjAddr: 0xD96, symBinAddr: 0x1000114AC, symSize: 0x14C }
  - { offsetInCU: 0x18730, offset: 0x68B6C, size: 0x8, addend: 0x0, symName: __ZNSt13unordered_mapIjjSt4hashIjESt8equal_toIjESaISt4pairIKjjEEED1Ev, symObjAddr: 0xC2E, symBinAddr: 0x100011344, symSize: 0x1C }
  - { offsetInCU: 0x18777, offset: 0x68BB3, size: 0x8, addend: 0x0, symName: __ZNSt13unordered_mapIjjSt4hashIjESt8equal_toIjESaISt4pairIKjjEEEC1Ev, symObjAddr: 0xC12, symBinAddr: 0x100011328, symSize: 0x1C }
  - { offsetInCU: 0x1884B, offset: 0x68C87, size: 0x8, addend: 0x0, symName: __ZNSt10_HashtableIjSt4pairIKjjESaIS2_ENSt8__detail10_Select1stESt8equal_toIjESt4hashIjENS4_18_Mod_range_hashingENS4_20_Default_ranged_hashENS4_20_Prime_rehash_policyENS4_17_Hashtable_traitsILb0ELb0ELb1EEEEC1Ev, symObjAddr: 0xB8E, symBinAddr: 0x1000112A4, symSize: 0x84 }
  - { offsetInCU: 0x18853, offset: 0x68C8F, size: 0x8, addend: 0x0, symName: __ZNSt13unordered_mapIjjSt4hashIjESt8equal_toIjESaISt4pairIKjjEEEC1Ev, symObjAddr: 0xC12, symBinAddr: 0x100011328, symSize: 0x1C }
  - { offsetInCU: 0x1881F, offset: 0x68C5B, size: 0x8, addend: 0x0, symName: __ZNSt8__detail16_Hashtable_allocISaINS_10_Hash_nodeISt4pairIKjjELb0EEEEED2Ev, symObjAddr: 0xB72, symBinAddr: 0x100011288, symSize: 0x1C }
  - { offsetInCU: 0x18866, offset: 0x68CA2, size: 0x8, addend: 0x0, symName: __ZNSt8__detail16_Hashtable_allocISaINS_10_Hash_nodeISt4pairIKjjELb0EEEEEC2Ev, symObjAddr: 0xB56, symBinAddr: 0x10001126C, symSize: 0x1C }
  - { offsetInCU: 0x188CC, offset: 0x68D08, size: 0x8, addend: 0x0, symName: __ZNSt8__detail21_Hashtable_ebo_helperILi0ESaINS_10_Hash_nodeISt4pairIKjjELb0EEEELb1EED2Ev, symObjAddr: 0xB32, symBinAddr: 0x100011248, symSize: 0x24 }
  - { offsetInCU: 0x188D4, offset: 0x68D10, size: 0x8, addend: 0x0, symName: __ZNSt8__detail16_Hashtable_allocISaINS_10_Hash_nodeISt4pairIKjjELb0EEEEEC2Ev, symObjAddr: 0xB56, symBinAddr: 0x10001126C, symSize: 0x1C }
  - { offsetInCU: 0x18991, offset: 0x68DCD, size: 0x8, addend: 0x0, symName: __ZNSt8__detail15_Hashtable_baseIjSt4pairIKjjENS_10_Select1stESt8equal_toIjESt4hashIjENS_18_Mod_range_hashingENS_20_Default_ranged_hashENS_17_Hashtable_traitsILb0ELb0ELb1EEEEC2Ev, symObjAddr: 0xB0A, symBinAddr: 0x100011220, symSize: 0x28 }
  - { offsetInCU: 0x189A9, offset: 0x68DE5, size: 0x8, addend: 0x0, symName: __ZNSt8__detail15_Hash_code_baseIjSt4pairIKjjENS_10_Select1stESt4hashIjENS_18_Mod_range_hashingENS_20_Default_ranged_hashELb0EEC2Ev, symObjAddr: 0xAEE, symBinAddr: 0x100011204, symSize: 0x1C }
  - { offsetInCU: 0x1899A, offset: 0x68DD6, size: 0x8, addend: 0x0, symName: __ZN6tinyrv10MemoryUnitD1Ev, symObjAddr: 0xAC2, symBinAddr: 0x1000111D8, symSize: 0x2C }
  - { offsetInCU: 0x18A08, offset: 0x68E44, size: 0x8, addend: 0x0, symName: __ZN6tinyrv16pipeline_trace_tC1Eyj, symObjAddr: 0x9F8, symBinAddr: 0x100011146, symSize: 0x92 }
  - { offsetInCU: 0x18A67, offset: 0x68EA3, size: 0x8, addend: 0x0, symName: __ZN6tinyrv8Emulator9PerfStatsC1Ev, symObjAddr: 0x9D6, symBinAddr: 0x100011124, symSize: 0x22 }
  - { offsetInCU: 0x18A6F, offset: 0x68EAB, size: 0x8, addend: 0x0, symName: __ZN6tinyrv16pipeline_trace_tC1Eyj, symObjAddr: 0x9F8, symBinAddr: 0x100011146, symSize: 0x92 }
  - { offsetInCU: 0x18AA1, offset: 0x68EDD, size: 0x8, addend: 0x0, symName: __ZN6tinyrv13get_addr_typeEy, symObjAddr: 0x991, symBinAddr: 0x100011103, symSize: 0x21 }
  - { offsetInCU: 0x18AD9, offset: 0x68F15, size: 0x8, addend: 0x0, symName: __ZN6tinyrvlsERSoRKNS_8AddrTypeE, symObjAddr: 0x912, symBinAddr: 0x100011084, symSize: 0x7F }
  - { offsetInCU: 0x18AE1, offset: 0x68F1D, size: 0x8, addend: 0x0, symName: __ZN6tinyrv13get_addr_typeEy, symObjAddr: 0x991, symBinAddr: 0x100011103, symSize: 0x21 }
  - { offsetInCU: 0x18B3F, offset: 0x68F7B, size: 0x8, addend: 0x0, symName: __ZN6tinyrv13UUIDGenerator5resetEv, symObjAddr: 0x8E8, symBinAddr: 0x10001105A, symSize: 0x2A }
  - { offsetInCU: 0x18B47, offset: 0x68F83, size: 0x8, addend: 0x0, symName: __ZN6tinyrvlsERSoRKNS_8AddrTypeE, symObjAddr: 0x912, symBinAddr: 0x100011084, symSize: 0x7F }
  - { offsetInCU: 0x18B6E, offset: 0x68FAA, size: 0x8, addend: 0x0, symName: __ZN6tinyrv13UUIDGenerator8get_uuidEy, symObjAddr: 0x80E, symBinAddr: 0x100010F80, symSize: 0xDA }
  - { offsetInCU: 0x18B76, offset: 0x68FB2, size: 0x8, addend: 0x0, symName: __ZN6tinyrv13UUIDGenerator5resetEv, symObjAddr: 0x8E8, symBinAddr: 0x10001105A, symSize: 0x2A }
  - { offsetInCU: 0x18C68, offset: 0x690A4, size: 0x8, addend: 0x0, symName: __ZN6tinyrv13UUIDGeneratorD0Ev, symObjAddr: 0x7E8, symBinAddr: 0x100010F5A, symSize: 0x26 }
  - { offsetInCU: 0x18C70, offset: 0x690AC, size: 0x8, addend: 0x0, symName: __ZN6tinyrv13UUIDGenerator8get_uuidEy, symObjAddr: 0x80E, symBinAddr: 0x100010F80, symSize: 0xDA }
  - { offsetInCU: 0x18C96, offset: 0x690D2, size: 0x8, addend: 0x0, symName: __ZN6tinyrv13UUIDGeneratorD1Ev, symObjAddr: 0x7B6, symBinAddr: 0x100010F28, symSize: 0x32 }
  - { offsetInCU: 0x18CDD, offset: 0x69119, size: 0x8, addend: 0x0, symName: __ZN6tinyrv13UUIDGeneratorC1Ev, symObjAddr: 0x77A, symBinAddr: 0x100010EEC, symSize: 0x3C }
  - { offsetInCU: 0x18CE5, offset: 0x69121, size: 0x8, addend: 0x0, symName: __ZN6tinyrv13UUIDGeneratorD1Ev, symObjAddr: 0x7B6, symBinAddr: 0x100010F28, symSize: 0x32 }
  - { offsetInCU: 0x18D5D, offset: 0x69199, size: 0x8, addend: 0x0, symName: __ZNSt13unordered_mapIyjSt4hashIyESt8equal_toIyESaISt4pairIKyjEEED1Ev, symObjAddr: 0x75E, symBinAddr: 0x100010ED0, symSize: 0x1C }
  - { offsetInCU: 0x18DA4, offset: 0x691E0, size: 0x8, addend: 0x0, symName: __ZNSt13unordered_mapIyjSt4hashIyESt8equal_toIyESaISt4pairIKyjEEEC1Ev, symObjAddr: 0x742, symBinAddr: 0x100010EB4, symSize: 0x1C }
  - { offsetInCU: 0x18E78, offset: 0x692B4, size: 0x8, addend: 0x0, symName: __ZNSt10_HashtableIySt4pairIKyjESaIS2_ENSt8__detail10_Select1stESt8equal_toIyESt4hashIyENS4_18_Mod_range_hashingENS4_20_Default_ranged_hashENS4_20_Prime_rehash_policyENS4_17_Hashtable_traitsILb0ELb0ELb1EEEEC1Ev, symObjAddr: 0x6BE, symBinAddr: 0x100010E30, symSize: 0x84 }
  - { offsetInCU: 0x18E80, offset: 0x692BC, size: 0x8, addend: 0x0, symName: __ZNSt13unordered_mapIyjSt4hashIyESt8equal_toIyESaISt4pairIKyjEEEC1Ev, symObjAddr: 0x742, symBinAddr: 0x100010EB4, symSize: 0x1C }
  - { offsetInCU: 0x18E4C, offset: 0x69288, size: 0x8, addend: 0x0, symName: __ZNSt8__detail16_Hashtable_allocISaINS_10_Hash_nodeISt4pairIKyjELb0EEEEED2Ev, symObjAddr: 0x6A2, symBinAddr: 0x100010E14, symSize: 0x1C }
  - { offsetInCU: 0x18E93, offset: 0x692CF, size: 0x8, addend: 0x0, symName: __ZNSt8__detail16_Hashtable_allocISaINS_10_Hash_nodeISt4pairIKyjELb0EEEEEC2Ev, symObjAddr: 0x686, symBinAddr: 0x100010DF8, symSize: 0x1C }
  - { offsetInCU: 0x18EF9, offset: 0x69335, size: 0x8, addend: 0x0, symName: __ZNSt8__detail21_Hashtable_ebo_helperILi0ESaINS_10_Hash_nodeISt4pairIKyjELb0EEEELb1EED2Ev, symObjAddr: 0x662, symBinAddr: 0x100010DD4, symSize: 0x24 }
  - { offsetInCU: 0x18F01, offset: 0x6933D, size: 0x8, addend: 0x0, symName: __ZNSt8__detail16_Hashtable_allocISaINS_10_Hash_nodeISt4pairIKyjELb0EEEEEC2Ev, symObjAddr: 0x686, symBinAddr: 0x100010DF8, symSize: 0x1C }
  - { offsetInCU: 0x18FBE, offset: 0x693FA, size: 0x8, addend: 0x0, symName: __ZNSt8__detail15_Hashtable_baseIySt4pairIKyjENS_10_Select1stESt8equal_toIyESt4hashIyENS_18_Mod_range_hashingENS_20_Default_ranged_hashENS_17_Hashtable_traitsILb0ELb0ELb1EEEEC2Ev, symObjAddr: 0x63A, symBinAddr: 0x100010DAC, symSize: 0x28 }
  - { offsetInCU: 0x18FD6, offset: 0x69412, size: 0x8, addend: 0x0, symName: __ZNSt8__detail15_Hash_code_baseIySt4pairIKyjENS_10_Select1stESt4hashIyENS_18_Mod_range_hashingENS_20_Default_ranged_hashELb0EEC2Ev, symObjAddr: 0x61E, symBinAddr: 0x100010D90, symSize: 0x1C }
  - { offsetInCU: 0x18FA0, offset: 0x693DC, size: 0x8, addend: 0x0, symName: __ZlsRSoRK10ByteStream, symObjAddr: 0x35F, symBinAddr: 0x100010BFB, symSize: 0x195 }
  - { offsetInCU: 0x190D7, offset: 0x69513, size: 0x8, addend: 0x0, symName: __ZN10ByteStreamC1EPKvm, symObjAddr: 0x2BA, symBinAddr: 0x100010B56, symSize: 0xA5 }
  - { offsetInCU: 0x190DF, offset: 0x6951B, size: 0x8, addend: 0x0, symName: __ZlsRSoRK10ByteStream, symObjAddr: 0x35F, symBinAddr: 0x100010BFB, symSize: 0x195 }
  - { offsetInCU: 0x19129, offset: 0x69565, size: 0x8, addend: 0x0, symName: __ZNSt8ios_base5widthEl, symObjAddr: 0x18E, symBinAddr: 0x100010B2C, symSize: 0x2A }
  - { offsetInCU: 0x19193, offset: 0x695CF, size: 0x8, addend: 0x0, symName: __ZNKSt8ios_base5widthEv, symObjAddr: 0x17C, symBinAddr: 0x100010B1A, symSize: 0x12 }
  - { offsetInCU: 0x1919B, offset: 0x695D7, size: 0x8, addend: 0x0, symName: __ZNSt8ios_base5widthEl, symObjAddr: 0x18E, symBinAddr: 0x100010B2C, symSize: 0x2A }
  - { offsetInCU: 0x191C2, offset: 0x695FE, size: 0x8, addend: 0x0, symName: __ZNSt8ios_base5flagsESt13_Ios_Fmtflags, symObjAddr: 0xF6, symBinAddr: 0x100010AF6, symSize: 0x24 }
  - { offsetInCU: 0x19219, offset: 0x69655, size: 0x8, addend: 0x0, symName: __ZNKSt8ios_base5flagsEv, symObjAddr: 0xE4, symBinAddr: 0x100010AE4, symSize: 0x12 }
  - { offsetInCU: 0x19260, offset: 0x6969C, size: 0x8, addend: 0x0, symName: __ZL18__gthread_active_pv, symObjAddr: 0x2C, symBinAddr: 0x100010AD8, symSize: 0xB }
  - { offsetInCU: 0xDF, offset: 0x69793, size: 0x8, addend: 0x0, symName: __ZSt23__is_constant_evaluatedv, symObjAddr: 0x0, symBinAddr: 0x1000147E0, symSize: 0xC }
  - { offsetInCU: 0x159C, offset: 0x6AC50, size: 0x8, addend: 0x0, symName: __ZStL19piecewise_construct, symObjAddr: 0x44A0, symBinAddr: 0x10002E720, symSize: 0x0 }
  - { offsetInCU: 0x2919, offset: 0x6BFCD, size: 0x8, addend: 0x0, symName: __ZStL8__ioinit, symObjAddr: 0x7D4A0, symBinAddr: 0x100058FE0, symSize: 0x0 }
  - { offsetInCU: 0x2CEF, offset: 0x6C3A3, size: 0x8, addend: 0x0, symName: __ZStL13allocator_arg, symObjAddr: 0x44A1, symBinAddr: 0x10002E721, symSize: 0x0 }
  - { offsetInCU: 0x2D0C, offset: 0x6C3C0, size: 0x8, addend: 0x0, symName: __ZStL6ignore, symObjAddr: 0x44A2, symBinAddr: 0x10002E722, symSize: 0x0 }
  - { offsetInCU: 0x3088, offset: 0x6C73C, size: 0x8, addend: 0x0, symName: __ZN9__gnu_cxxL21__default_lock_policyE, symObjAddr: 0x44A4, symBinAddr: 0x10002E724, symSize: 0x0 }
  - { offsetInCU: 0xFC50, offset: 0x79304, size: 0x8, addend: 0x0, symName: __ZN6tinyrvL12sc_instTableE, symObjAddr: 0x7D4C0, symBinAddr: 0x100059000, symSize: 0x0 }
  - { offsetInCU: 0x11DB5, offset: 0x7B469, size: 0x8, addend: 0x0, symName: __GLOBAL__sub_I_decode.cpp, symObjAddr: 0x4485, symBinAddr: 0x100018809, symSize: 0xB }
  - { offsetInCU: 0x11DF3, offset: 0x7B4A7, size: 0x8, addend: 0x0, symName: __ZSt8_DestroyIN6tinyrv5InstrEEvPT_, symObjAddr: 0x447A, symBinAddr: 0x1000187FE, symSize: 0xB }
  - { offsetInCU: 0x11DFB, offset: 0x7B4AF, size: 0x8, addend: 0x0, symName: __GLOBAL__sub_I_decode.cpp, symObjAddr: 0x4485, symBinAddr: 0x100018809, symSize: 0xB }
  - { offsetInCU: 0x11DF9, offset: 0x7B4AD, size: 0x8, addend: 0x0, symName: __ZNSt14_Sp_ebo_helperILi0ESaIvELb1EE6_S_getERS1_, symObjAddr: 0x446C, symBinAddr: 0x1000187F0, symSize: 0xE }
  - { offsetInCU: 0x11E01, offset: 0x7B4B5, size: 0x8, addend: 0x0, symName: __ZSt8_DestroyIN6tinyrv5InstrEEvPT_, symObjAddr: 0x447A, symBinAddr: 0x1000187FE, symSize: 0xB }
  - { offsetInCU: 0x11E5D, offset: 0x7B511, size: 0x8, addend: 0x0, symName: __ZNSt23_Sp_counted_ptr_inplaceIN6tinyrv5InstrESaIvELN9__gnu_cxx12_Lock_policyE2EE5_Impl8_M_allocEv, symObjAddr: 0x4452, symBinAddr: 0x1000187D6, symSize: 0x1A }
  - { offsetInCU: 0x11E65, offset: 0x7B519, size: 0x8, addend: 0x0, symName: __ZNSt14_Sp_ebo_helperILi0ESaIvELb1EE6_S_getERS1_, symObjAddr: 0x446C, symBinAddr: 0x1000187F0, symSize: 0xE }
  - { offsetInCU: 0x11E90, offset: 0x7B544, size: 0x8, addend: 0x0, symName: __ZNSt23_Sp_counted_ptr_inplaceIN6tinyrv5InstrESaIvELN9__gnu_cxx12_Lock_policyE2EE14_M_get_deleterERKSt9type_info, symObjAddr: 0x43F0, symBinAddr: 0x100018774, symSize: 0x62 }
  - { offsetInCU: 0x11E98, offset: 0x7B54C, size: 0x8, addend: 0x0, symName: __ZNSt23_Sp_counted_ptr_inplaceIN6tinyrv5InstrESaIvELN9__gnu_cxx12_Lock_policyE2EE5_Impl8_M_allocEv, symObjAddr: 0x4452, symBinAddr: 0x1000187D6, symSize: 0x1A }
  - { offsetInCU: 0x11EEB, offset: 0x7B59F, size: 0x8, addend: 0x0, symName: __ZNSt23_Sp_counted_ptr_inplaceIN6tinyrv5InstrESaIvELN9__gnu_cxx12_Lock_policyE2EE10_M_destroyEv, symObjAddr: 0x4386, symBinAddr: 0x10001870A, symSize: 0x6A }
  - { offsetInCU: 0x11FBB, offset: 0x7B66F, size: 0x8, addend: 0x0, symName: __ZNSt23_Sp_counted_ptr_inplaceIN6tinyrv5InstrESaIvELN9__gnu_cxx12_Lock_policyE2EE10_M_disposeEv, symObjAddr: 0x433E, symBinAddr: 0x1000186C2, symSize: 0x48 }
  - { offsetInCU: 0x11FC3, offset: 0x7B677, size: 0x8, addend: 0x0, symName: __ZNSt23_Sp_counted_ptr_inplaceIN6tinyrv5InstrESaIvELN9__gnu_cxx12_Lock_policyE2EE10_M_destroyEv, symObjAddr: 0x4386, symBinAddr: 0x10001870A, symSize: 0x6A }
  - { offsetInCU: 0x12099, offset: 0x7B74D, size: 0x8, addend: 0x0, symName: __ZNSt23_Sp_counted_ptr_inplaceIN6tinyrv5InstrESaIvELN9__gnu_cxx12_Lock_policyE2EED0Ev, symObjAddr: 0x4318, symBinAddr: 0x10001869C, symSize: 0x26 }
  - { offsetInCU: 0x120A1, offset: 0x7B755, size: 0x8, addend: 0x0, symName: __ZNSt23_Sp_counted_ptr_inplaceIN6tinyrv5InstrESaIvELN9__gnu_cxx12_Lock_policyE2EE10_M_disposeEv, symObjAddr: 0x433E, symBinAddr: 0x1000186C2, symSize: 0x48 }
  - { offsetInCU: 0x120C7, offset: 0x7B77B, size: 0x8, addend: 0x0, symName: __ZNSt23_Sp_counted_ptr_inplaceIN6tinyrv5InstrESaIvELN9__gnu_cxx12_Lock_policyE2EED1Ev, symObjAddr: 0x42EA, symBinAddr: 0x10001866E, symSize: 0x2E }
  - { offsetInCU: 0x120C7, offset: 0x7B77B, size: 0x8, addend: 0x0, symName: __Z41__static_initialization_and_destruction_0v, symObjAddr: 0x414E, symBinAddr: 0x1000184D2, symSize: 0x19C }
  - { offsetInCU: 0x121EF, offset: 0x7B8A3, size: 0x8, addend: 0x0, symName: __ZNSt4pairIKN6tinyrv6OpcodeENS0_8InstTypeEEC1IS2_S3_Lb1EEERS2_RKS3_, symObjAddr: 0x4122, symBinAddr: 0x1000184A6, symSize: 0x2C }
  - { offsetInCU: 0x121F7, offset: 0x7B8AB, size: 0x8, addend: 0x0, symName: __Z41__static_initialization_and_destruction_0v, symObjAddr: 0x414E, symBinAddr: 0x1000184D2, symSize: 0x19C }
  - { offsetInCU: 0x1228B, offset: 0x7B93F, size: 0x8, addend: 0x0, symName: __ZNSt15__new_allocatorINSt8__detail10_Hash_nodeISt4pairIKN6tinyrv6OpcodeENS3_8InstTypeEELb0EEEE8allocateEmPKv, symObjAddr: 0x40BC, symBinAddr: 0x100018440, symSize: 0x66 }
  - { offsetInCU: 0x12293, offset: 0x7B947, size: 0x8, addend: 0x0, symName: __ZNSt4pairIKN6tinyrv6OpcodeENS0_8InstTypeEEC1IS2_S3_Lb1EEERS2_RKS3_, symObjAddr: 0x4122, symBinAddr: 0x1000184A6, symSize: 0x2C }
  - { offsetInCU: 0x12432, offset: 0x7BAE6, size: 0x8, addend: 0x0, symName: __ZSt12__to_addressINSt8__detail10_Hash_nodeISt4pairIKN6tinyrv6OpcodeENS3_8InstTypeEELb0EEEEPT_SA_, symObjAddr: 0x40AD, symBinAddr: 0x100018431, symSize: 0xF }
  - { offsetInCU: 0x123E0, offset: 0x7BA94, size: 0x8, addend: 0x0, symName: __ZNSt10_HashtableIN6tinyrv6OpcodeESt4pairIKS1_NS0_8InstTypeEESaIS5_ENSt8__detail10_Select1stESt8equal_toIS1_ESt4hashIS1_ENS7_18_Mod_range_hashingENS7_20_Default_ranged_hashENS7_20_Prime_rehash_policyENS7_17_Hashtable_traitsILb0ELb0ELb1EEEE13_M_rehash_auxEmSt17integral_constantIbLb1EE, symObjAddr: 0x3F34, symBinAddr: 0x1000182B8, symSize: 0x179 }
  - { offsetInCU: 0x123E8, offset: 0x7BA9C, size: 0x8, addend: 0x0, symName: __ZSt12__to_addressINSt8__detail10_Hash_nodeISt4pairIKN6tinyrv6OpcodeENS3_8InstTypeEELb0EEEEPT_SA_, symObjAddr: 0x40AD, symBinAddr: 0x100018431, symSize: 0xF }
  - { offsetInCU: 0x124A7, offset: 0x7BB5B, size: 0x8, addend: 0x0, symName: __ZNSt8__detail16_Hashtable_allocISaINS_10_Hash_nodeISt4pairIKN6tinyrv6OpcodeENS3_8InstTypeEELb0EEEEE16_M_allocate_nodeIJRS5_RKS6_EEEPS8_DpOT_, symObjAddr: 0x3DD4, symBinAddr: 0x100018158, symSize: 0x160 }
  - { offsetInCU: 0x124AF, offset: 0x7BB63, size: 0x8, addend: 0x0, symName: __ZNSt10_HashtableIN6tinyrv6OpcodeESt4pairIKS1_NS0_8InstTypeEESaIS5_ENSt8__detail10_Select1stESt8equal_toIS1_ESt4hashIS1_ENS7_18_Mod_range_hashingENS7_20_Default_ranged_hashENS7_20_Prime_rehash_policyENS7_17_Hashtable_traitsILb0ELb0ELb1EEEE13_M_rehash_auxEmSt17integral_constantIbLb1EE, symObjAddr: 0x3F34, symBinAddr: 0x1000182B8, symSize: 0x179 }
  - { offsetInCU: 0x12671, offset: 0x7BD25, size: 0x8, addend: 0x0, symName: __ZNSt8__detail10_Hash_nodeISt4pairIKN6tinyrv6OpcodeENS2_8InstTypeEELb0EEC1Ev, symObjAddr: 0x3DB8, symBinAddr: 0x10001813C, symSize: 0x1C }
  - { offsetInCU: 0x126BE, offset: 0x7BD72, size: 0x8, addend: 0x0, symName: __ZSt7forwardIRKN6tinyrv8InstTypeEEOT_RNSt16remove_referenceIS4_E4typeE, symObjAddr: 0x3DAA, symBinAddr: 0x10001812E, symSize: 0xE }
  - { offsetInCU: 0x126C6, offset: 0x7BD7A, size: 0x8, addend: 0x0, symName: __ZNSt8__detail10_Hash_nodeISt4pairIKN6tinyrv6OpcodeENS2_8InstTypeEELb0EEC1Ev, symObjAddr: 0x3DB8, symBinAddr: 0x10001813C, symSize: 0x1C }
  - { offsetInCU: 0x126A6, offset: 0x7BD5A, size: 0x8, addend: 0x0, symName: __ZNKSt8__detail15_Hashtable_baseIN6tinyrv6OpcodeESt4pairIKS2_NS1_8InstTypeEENS_10_Select1stESt8equal_toIS2_ESt4hashIS2_ENS_18_Mod_range_hashingENS_20_Default_ranged_hashENS_17_Hashtable_traitsILb0ELb0ELb1EEEE12_M_equals_trIS2_EEbRKT_mRKNS_16_Hash_node_valueIS6_Lb0EEE, symObjAddr: 0x3D52, symBinAddr: 0x1000180D6, symSize: 0x58 }
  - { offsetInCU: 0x126AE, offset: 0x7BD62, size: 0x8, addend: 0x0, symName: __ZSt7forwardIRKN6tinyrv8InstTypeEEOT_RNSt16remove_referenceIS4_E4typeE, symObjAddr: 0x3DAA, symBinAddr: 0x10001812E, symSize: 0xE }
  - { offsetInCU: 0x1271E, offset: 0x7BDD2, size: 0x8, addend: 0x0, symName: __ZNSt10_HashtableIN6tinyrv6OpcodeESt4pairIKS1_NS0_8InstTypeEESaIS5_ENSt8__detail10_Select1stESt8equal_toIS1_ESt4hashIS1_ENS7_18_Mod_range_hashingENS7_20_Default_ranged_hashENS7_20_Prime_rehash_policyENS7_17_Hashtable_traitsILb0ELb0ELb1EEEE22_M_insert_bucket_beginEmPNS7_10_Hash_nodeIS5_Lb0EEE, symObjAddr: 0x3C66, symBinAddr: 0x100017FEA, symSize: 0xEC }
  - { offsetInCU: 0x12775, offset: 0x7BE29, size: 0x8, addend: 0x0, symName: __ZNKSt8__detail15_Hash_code_baseIN6tinyrv6OpcodeESt4pairIKS2_NS1_8InstTypeEENS_10_Select1stESt4hashIS2_ENS_18_Mod_range_hashingENS_20_Default_ranged_hashELb0EE13_M_store_codeERNS_21_Hash_node_code_cacheILb0EEEm, symObjAddr: 0x3C52, symBinAddr: 0x100017FD6, symSize: 0x14 }
  - { offsetInCU: 0x127BC, offset: 0x7BE70, size: 0x8, addend: 0x0, symName: __ZNSt10_HashtableIN6tinyrv6OpcodeESt4pairIKS1_NS0_8InstTypeEESaIS5_ENSt8__detail10_Select1stESt8equal_toIS1_ESt4hashIS1_ENS7_18_Mod_range_hashingENS7_20_Default_ranged_hashENS7_20_Prime_rehash_policyENS7_17_Hashtable_traitsILb0ELb0ELb1EEEE9_M_rehashEmRKm, symObjAddr: 0x3BE8, symBinAddr: 0x100017F6C, symSize: 0x6A }
  - { offsetInCU: 0x127C4, offset: 0x7BE78, size: 0x8, addend: 0x0, symName: __ZNKSt8__detail15_Hash_code_baseIN6tinyrv6OpcodeESt4pairIKS2_NS1_8InstTypeEENS_10_Select1stESt4hashIS2_ENS_18_Mod_range_hashingENS_20_Default_ranged_hashELb0EE13_M_store_codeERNS_21_Hash_node_code_cacheILb0EEEm, symObjAddr: 0x3C52, symBinAddr: 0x100017FD6, symSize: 0x14 }
  - { offsetInCU: 0x12830, offset: 0x7BEE4, size: 0x8, addend: 0x0, symName: __ZNKSt8__detail10_AllocNodeISaINS_10_Hash_nodeISt4pairIKN6tinyrv6OpcodeENS3_8InstTypeEELb0EEEEEclIJRS5_RKS6_EEEPS8_DpOT_, symObjAddr: 0x3B98, symBinAddr: 0x100017F1C, symSize: 0x50 }
  - { offsetInCU: 0x12838, offset: 0x7BEEC, size: 0x8, addend: 0x0, symName: __ZNSt10_HashtableIN6tinyrv6OpcodeESt4pairIKS1_NS0_8InstTypeEESaIS5_ENSt8__detail10_Select1stESt8equal_toIS1_ESt4hashIS1_ENS7_18_Mod_range_hashingENS7_20_Default_ranged_hashENS7_20_Prime_rehash_policyENS7_17_Hashtable_traitsILb0ELb0ELb1EEEE9_M_rehashEmRKm, symObjAddr: 0x3BE8, symBinAddr: 0x100017F6C, symSize: 0x6A }
  - { offsetInCU: 0x12983, offset: 0x7C037, size: 0x8, addend: 0x0, symName: __ZSt7forwardINSt8__detail14_Node_iteratorISt4pairIKN6tinyrv6OpcodeENS3_8InstTypeEELb0ELb0EEEEOT_RNSt16remove_referenceIS9_E4typeE, symObjAddr: 0x3B89, symBinAddr: 0x100017F0D, symSize: 0xF }
  - { offsetInCU: 0x128E8, offset: 0x7BF9C, size: 0x8, addend: 0x0, symName: __ZNKSt10_HashtableIN6tinyrv6OpcodeESt4pairIKS1_NS0_8InstTypeEESaIS5_ENSt8__detail10_Select1stESt8equal_toIS1_ESt4hashIS1_ENS7_18_Mod_range_hashingENS7_20_Default_ranged_hashENS7_20_Prime_rehash_policyENS7_17_Hashtable_traitsILb0ELb0ELb1EEEE22_M_find_before_node_trIS1_EEPNS7_15_Hash_node_baseEmRKT_m, symObjAddr: 0x3AB0, symBinAddr: 0x100017E34, symSize: 0xD9 }
  - { offsetInCU: 0x128F0, offset: 0x7BFA4, size: 0x8, addend: 0x0, symName: __ZSt7forwardINSt8__detail14_Node_iteratorISt4pairIKN6tinyrv6OpcodeENS3_8InstTypeEELb0ELb0EEEEOT_RNSt16remove_referenceIS9_E4typeE, symObjAddr: 0x3B89, symBinAddr: 0x100017F0D, symSize: 0xF }
  - { offsetInCU: 0x12A8A, offset: 0x7C13E, size: 0x8, addend: 0x0, symName: __ZSt7forwardIRNSt8__detail14_Node_iteratorISt4pairIKN6tinyrv6OpcodeENS3_8InstTypeEELb0ELb0EEEEOT_RNSt16remove_referenceISA_E4typeE, symObjAddr: 0x3AA1, symBinAddr: 0x100017E25, symSize: 0xF }
  - { offsetInCU: 0x129EE, offset: 0x7C0A2, size: 0x8, addend: 0x0, symName: __ZNSt10_HashtableIN6tinyrv6OpcodeESt4pairIKS1_NS0_8InstTypeEESaIS5_ENSt8__detail10_Select1stESt8equal_toIS1_ESt4hashIS1_ENS7_18_Mod_range_hashingENS7_20_Default_ranged_hashENS7_20_Prime_rehash_policyENS7_17_Hashtable_traitsILb0ELb0ELb1EEEE21_M_insert_unique_nodeEmmPNS7_10_Hash_nodeIS5_Lb0EEEm, symObjAddr: 0x39A4, symBinAddr: 0x100017D28, symSize: 0xFD }
  - { offsetInCU: 0x129F6, offset: 0x7C0AA, size: 0x8, addend: 0x0, symName: __ZSt7forwardIRNSt8__detail14_Node_iteratorISt4pairIKN6tinyrv6OpcodeENS3_8InstTypeEELb0ELb0EEEEOT_RNSt16remove_referenceISA_E4typeE, symObjAddr: 0x3AA1, symBinAddr: 0x100017E25, symSize: 0xF }
  - { offsetInCU: 0x12BC3, offset: 0x7C277, size: 0x8, addend: 0x0, symName: __ZNSt10_HashtableIN6tinyrv6OpcodeESt4pairIKS1_NS0_8InstTypeEESaIS5_ENSt8__detail10_Select1stESt8equal_toIS1_ESt4hashIS1_ENS7_18_Mod_range_hashingENS7_20_Default_ranged_hashENS7_20_Prime_rehash_policyENS7_17_Hashtable_traitsILb0ELb0ELb1EEEE12_Scoped_nodeD1Ev, symObjAddr: 0x396E, symBinAddr: 0x100017CF2, symSize: 0x36 }
  - { offsetInCU: 0x12BCB, offset: 0x7C27F, size: 0x8, addend: 0x0, symName: __ZNSt10_HashtableIN6tinyrv6OpcodeESt4pairIKS1_NS0_8InstTypeEESaIS5_ENSt8__detail10_Select1stESt8equal_toIS1_ESt4hashIS1_ENS7_18_Mod_range_hashingENS7_20_Default_ranged_hashENS7_20_Prime_rehash_policyENS7_17_Hashtable_traitsILb0ELb0ELb1EEEE21_M_insert_unique_nodeEmmPNS7_10_Hash_nodeIS5_Lb0EEEm, symObjAddr: 0x39A4, symBinAddr: 0x100017D28, symSize: 0xFD }
  - { offsetInCU: 0x12C67, offset: 0x7C31B, size: 0x8, addend: 0x0, symName: __ZNSt10_HashtableIN6tinyrv6OpcodeESt4pairIKS1_NS0_8InstTypeEESaIS5_ENSt8__detail10_Select1stESt8equal_toIS1_ESt4hashIS1_ENS7_18_Mod_range_hashingENS7_20_Default_ranged_hashENS7_20_Prime_rehash_policyENS7_17_Hashtable_traitsILb0ELb0ELb1EEEE12_Scoped_nodeC1EPNS7_10_Hash_nodeIS5_Lb0EEEPNS7_16_Hashtable_allocISaISL_EEE, symObjAddr: 0x3944, symBinAddr: 0x100017CC8, symSize: 0x2A }
  - { offsetInCU: 0x12C6F, offset: 0x7C323, size: 0x8, addend: 0x0, symName: __ZNSt10_HashtableIN6tinyrv6OpcodeESt4pairIKS1_NS0_8InstTypeEESaIS5_ENSt8__detail10_Select1stESt8equal_toIS1_ESt4hashIS1_ENS7_18_Mod_range_hashingENS7_20_Default_ranged_hashENS7_20_Prime_rehash_policyENS7_17_Hashtable_traitsILb0ELb0ELb1EEEE12_Scoped_nodeD1Ev, symObjAddr: 0x396E, symBinAddr: 0x100017CF2, symSize: 0x36 }
  - { offsetInCU: 0x12B7A, offset: 0x7C22E, size: 0x8, addend: 0x0, symName: __ZNSt8__detail12_NodeBuilderINS_10_Select1stEE8_S_buildIRKN6tinyrv6OpcodeERKSt4pairIS6_NS4_8InstTypeEENS_10_AllocNodeISaINS_10_Hash_nodeISA_Lb0EEEEEEEEPNT1_11__node_typeEOT_OT0_RKSI_, symObjAddr: 0x38F7, symBinAddr: 0x100017C7B, symSize: 0x4D }
  - { offsetInCU: 0x12C60, offset: 0x7C314, size: 0x8, addend: 0x0, symName: __ZSt7forwardIRKN6tinyrv6OpcodeEEOT_RNSt16remove_referenceIS4_E4typeE, symObjAddr: 0x38E9, symBinAddr: 0x100017C6D, symSize: 0xE }
  - { offsetInCU: 0x12C68, offset: 0x7C31C, size: 0x8, addend: 0x0, symName: __ZNSt8__detail12_NodeBuilderINS_10_Select1stEE8_S_buildIRKN6tinyrv6OpcodeERKSt4pairIS6_NS4_8InstTypeEENS_10_AllocNodeISaINS_10_Hash_nodeISA_Lb0EEEEEEEEPNT1_11__node_typeEOT_OT0_RKSI_, symObjAddr: 0x38F7, symBinAddr: 0x100017C7B, symSize: 0x4D }
  - { offsetInCU: 0x12D0D, offset: 0x7C3C1, size: 0x8, addend: 0x0, symName: __ZNSt4pairINSt8__detail14_Node_iteratorIS_IKN6tinyrv6OpcodeENS2_8InstTypeEELb0ELb0EEEbEC1IS7_bLb1EEEOT_OT0_, symObjAddr: 0x38A6, symBinAddr: 0x100017C2A, symSize: 0x43 }
  - { offsetInCU: 0x12D15, offset: 0x7C3C9, size: 0x8, addend: 0x0, symName: __ZSt7forwardIRKN6tinyrv6OpcodeEEOT_RNSt16remove_referenceIS4_E4typeE, symObjAddr: 0x38E9, symBinAddr: 0x100017C6D, symSize: 0xE }
  - { offsetInCU: 0x12D99, offset: 0x7C44D, size: 0x8, addend: 0x0, symName: __ZNSt8__detail14_Node_iteratorISt4pairIKN6tinyrv6OpcodeENS2_8InstTypeEELb0ELb0EEC1EPNS_10_Hash_nodeIS6_Lb0EEE, symObjAddr: 0x3880, symBinAddr: 0x100017C04, symSize: 0x26 }
  - { offsetInCU: 0x12DA1, offset: 0x7C455, size: 0x8, addend: 0x0, symName: __ZNSt4pairINSt8__detail14_Node_iteratorIS_IKN6tinyrv6OpcodeENS2_8InstTypeEELb0ELb0EEEbEC1IS7_bLb1EEEOT_OT0_, symObjAddr: 0x38A6, symBinAddr: 0x100017C2A, symSize: 0x43 }
  - { offsetInCU: 0x12D65, offset: 0x7C419, size: 0x8, addend: 0x0, symName: __ZNKSt10_HashtableIN6tinyrv6OpcodeESt4pairIKS1_NS0_8InstTypeEESaIS5_ENSt8__detail10_Select1stESt8equal_toIS1_ESt4hashIS1_ENS7_18_Mod_range_hashingENS7_20_Default_ranged_hashENS7_20_Prime_rehash_policyENS7_17_Hashtable_traitsILb0ELb0ELb1EEEE15_M_find_node_trIS1_EEPNS7_10_Hash_nodeIS5_Lb0EEEmRKT_m, symObjAddr: 0x3834, symBinAddr: 0x100017BB8, symSize: 0x4C }
  - { offsetInCU: 0x12DF1, offset: 0x7C4A5, size: 0x8, addend: 0x0, symName: __ZNKSt8__detail15_Hash_code_baseIN6tinyrv6OpcodeESt4pairIKS2_NS1_8InstTypeEENS_10_Select1stESt4hashIS2_ENS_18_Mod_range_hashingENS_20_Default_ranged_hashELb0EE15_M_hash_code_trIS2_EEmRKT_, symObjAddr: 0x3802, symBinAddr: 0x100017B86, symSize: 0x32 }
  - { offsetInCU: 0x12F03, offset: 0x7C5B7, size: 0x8, addend: 0x0, symName: __ZNSt4pairINSt8__detail14_Node_iteratorIS_IKN6tinyrv6OpcodeENS2_8InstTypeEELb0ELb0EEEbEC1IRS7_bLb1EEEOT_OT0_, symObjAddr: 0x37BE, symBinAddr: 0x100017B42, symSize: 0x44 }
  - { offsetInCU: 0x12EF6, offset: 0x7C5AA, size: 0x8, addend: 0x0, symName: __ZNKSt8__detail15_Hashtable_baseIN6tinyrv6OpcodeESt4pairIKS2_NS1_8InstTypeEENS_10_Select1stESt8equal_toIS2_ESt4hashIS2_ENS_18_Mod_range_hashingENS_20_Default_ranged_hashENS_17_Hashtable_traitsILb0ELb0ELb1EEEE16_M_key_equals_trIS2_EEbRKT_RKNS_16_Hash_node_valueIS6_Lb0EEE, symObjAddr: 0x3764, symBinAddr: 0x100017AE8, symSize: 0x5A }
  - { offsetInCU: 0x12EFE, offset: 0x7C5B2, size: 0x8, addend: 0x0, symName: __ZNSt4pairINSt8__detail14_Node_iteratorIS_IKN6tinyrv6OpcodeENS2_8InstTypeEELb0ELb0EEEbEC1IRS7_bLb1EEEOT_OT0_, symObjAddr: 0x37BE, symBinAddr: 0x100017B42, symSize: 0x44 }
  - { offsetInCU: 0x12F5B, offset: 0x7C60F, size: 0x8, addend: 0x0, symName: __ZNSt8__detail14_Node_iteratorISt4pairIKN6tinyrv6OpcodeENS2_8InstTypeEELb0ELb0EEppEv, symObjAddr: 0x3746, symBinAddr: 0x100017ACA, symSize: 0x1E }
  - { offsetInCU: 0x12F63, offset: 0x7C617, size: 0x8, addend: 0x0, symName: __ZNKSt8__detail15_Hashtable_baseIN6tinyrv6OpcodeESt4pairIKS2_NS1_8InstTypeEENS_10_Select1stESt8equal_toIS2_ESt4hashIS2_ENS_18_Mod_range_hashingENS_20_Default_ranged_hashENS_17_Hashtable_traitsILb0ELb0ELb1EEEE16_M_key_equals_trIS2_EEbRKT_RKNS_16_Hash_node_valueIS6_Lb0EEE, symObjAddr: 0x3764, symBinAddr: 0x100017AE8, symSize: 0x5A }
  - { offsetInCU: 0x12F8A, offset: 0x7C63E, size: 0x8, addend: 0x0, symName: __ZNSt10_HashtableIN6tinyrv6OpcodeESt4pairIKS1_NS0_8InstTypeEESaIS5_ENSt8__detail10_Select1stESt8equal_toIS1_ESt4hashIS1_ENS7_18_Mod_range_hashingENS7_20_Default_ranged_hashENS7_20_Prime_rehash_policyENS7_17_Hashtable_traitsILb0ELb0ELb1EEEE3endEv, symObjAddr: 0x3722, symBinAddr: 0x100017AA6, symSize: 0x24 }
  - { offsetInCU: 0x12FB9, offset: 0x7C66D, size: 0x8, addend: 0x0, symName: __ZNSt10_HashtableIN6tinyrv6OpcodeESt4pairIKS1_NS0_8InstTypeEESaIS5_ENSt8__detail10_Select1stESt8equal_toIS1_ESt4hashIS1_ENS7_18_Mod_range_hashingENS7_20_Default_ranged_hashENS7_20_Prime_rehash_policyENS7_17_Hashtable_traitsILb0ELb0ELb1EEEE5beginEv, symObjAddr: 0x36F2, symBinAddr: 0x100017A76, symSize: 0x30 }
  - { offsetInCU: 0x12FC1, offset: 0x7C675, size: 0x8, addend: 0x0, symName: __ZNSt10_HashtableIN6tinyrv6OpcodeESt4pairIKS1_NS0_8InstTypeEESaIS5_ENSt8__detail10_Select1stESt8equal_toIS1_ESt4hashIS1_ENS7_18_Mod_range_hashingENS7_20_Default_ranged_hashENS7_20_Prime_rehash_policyENS7_17_Hashtable_traitsILb0ELb0ELb1EEEE3endEv, symObjAddr: 0x3722, symBinAddr: 0x100017AA6, symSize: 0x24 }
  - { offsetInCU: 0x13086, offset: 0x7C73A, size: 0x8, addend: 0x0, symName: __ZSt7forwardIRKSt4hashIN6tinyrv6OpcodeEEEOT_RNSt16remove_referenceIS6_E4typeE, symObjAddr: 0x36E4, symBinAddr: 0x100017A68, symSize: 0xE }
  - { offsetInCU: 0x1308E, offset: 0x7C742, size: 0x8, addend: 0x0, symName: __ZNSt10_HashtableIN6tinyrv6OpcodeESt4pairIKS1_NS0_8InstTypeEESaIS5_ENSt8__detail10_Select1stESt8equal_toIS1_ESt4hashIS1_ENS7_18_Mod_range_hashingENS7_20_Default_ranged_hashENS7_20_Prime_rehash_policyENS7_17_Hashtable_traitsILb0ELb0ELb1EEEE5beginEv, symObjAddr: 0x36F2, symBinAddr: 0x100017A76, symSize: 0x30 }
  - { offsetInCU: 0x1313F, offset: 0x7C7F3, size: 0x8, addend: 0x0, symName: __ZSt11__addressofINSt8__detail10_Hash_nodeISt4pairIKN6tinyrv6OpcodeENS3_8InstTypeEELb0EEEEPT_RS9_, symObjAddr: 0x36D6, symBinAddr: 0x100017A5A, symSize: 0xE }
  - { offsetInCU: 0x13147, offset: 0x7C7FB, size: 0x8, addend: 0x0, symName: __ZSt7forwardIRKSt4hashIN6tinyrv6OpcodeEEEOT_RNSt16remove_referenceIS6_E4typeE, symObjAddr: 0x36E4, symBinAddr: 0x100017A68, symSize: 0xE }
  - { offsetInCU: 0x130C1, offset: 0x7C775, size: 0x8, addend: 0x0, symName: __ZNSt10_HashtableIN6tinyrv6OpcodeESt4pairIKS1_NS0_8InstTypeEESaIS5_ENSt8__detail10_Select1stESt8equal_toIS1_ESt4hashIS1_ENS7_18_Mod_range_hashingENS7_20_Default_ranged_hashENS7_20_Prime_rehash_policyENS7_17_Hashtable_traitsILb0ELb0ELb1EEEE16_M_insert_uniqueIRS3_RKS5_NS7_10_AllocNodeISaINS7_10_Hash_nodeIS5_Lb0EEEEEEEES2_INS7_14_Node_iteratorIS5_Lb0ELb0EEEbEOT_OT0_RKT1_, symObjAddr: 0x3422, symBinAddr: 0x1000177A6, symSize: 0x2B4 }
  - { offsetInCU: 0x130C9, offset: 0x7C77D, size: 0x8, addend: 0x0, symName: __ZSt11__addressofINSt8__detail10_Hash_nodeISt4pairIKN6tinyrv6OpcodeENS3_8InstTypeEELb0EEEEPT_RS9_, symObjAddr: 0x36D6, symBinAddr: 0x100017A5A, symSize: 0xE }
  - { offsetInCU: 0x131F7, offset: 0x7C8AB, size: 0x8, addend: 0x0, symName: __ZNSt10_HashtableIN6tinyrv6OpcodeESt4pairIKS1_NS0_8InstTypeEESaIS5_ENSt8__detail10_Select1stESt8equal_toIS1_ESt4hashIS1_ENS7_18_Mod_range_hashingENS7_20_Default_ranged_hashENS7_20_Prime_rehash_policyENS7_17_Hashtable_traitsILb0ELb0ELb1EEEE14_S_forward_keyERS3_, symObjAddr: 0x3414, symBinAddr: 0x100017798, symSize: 0xE }
  - { offsetInCU: 0x131FF, offset: 0x7C8B3, size: 0x8, addend: 0x0, symName: __ZNSt10_HashtableIN6tinyrv6OpcodeESt4pairIKS1_NS0_8InstTypeEESaIS5_ENSt8__detail10_Select1stESt8equal_toIS1_ESt4hashIS1_ENS7_18_Mod_range_hashingENS7_20_Default_ranged_hashENS7_20_Prime_rehash_policyENS7_17_Hashtable_traitsILb0ELb0ELb1EEEE16_M_insert_uniqueIRS3_RKS5_NS7_10_AllocNodeISaINS7_10_Hash_nodeIS5_Lb0EEEEEEEES2_INS7_14_Node_iteratorIS5_Lb0ELb0EEEbEOT_OT0_RKT1_, symObjAddr: 0x3422, symBinAddr: 0x1000177A6, symSize: 0x2B4 }
  - { offsetInCU: 0x132D6, offset: 0x7C98A, size: 0x8, addend: 0x0, symName: __ZSt7forwardIRKSt8equal_toIN6tinyrv6OpcodeEEEOT_RNSt16remove_referenceIS6_E4typeE, symObjAddr: 0x339F, symBinAddr: 0x100017787, symSize: 0xF }
  - { offsetInCU: 0x13333, offset: 0x7C9E7, size: 0x8, addend: 0x0, symName: __ZNSt8__detail21_Hashtable_ebo_helperILi1ESt4hashIN6tinyrv6OpcodeEELb1EEC2IRKS4_EEOT_, symObjAddr: 0x3380, symBinAddr: 0x100017768, symSize: 0x1F }
  - { offsetInCU: 0x1333B, offset: 0x7C9EF, size: 0x8, addend: 0x0, symName: __ZSt7forwardIRKSt8equal_toIN6tinyrv6OpcodeEEEOT_RNSt16remove_referenceIS6_E4typeE, symObjAddr: 0x339F, symBinAddr: 0x100017787, symSize: 0xF }
  - { offsetInCU: 0x13328, offset: 0x7C9DC, size: 0x8, addend: 0x0, symName: __ZNK9__gnu_cxx16__aligned_bufferISt4pairIKN6tinyrv6OpcodeENS2_8InstTypeEEE7_M_addrEv, symObjAddr: 0x3372, symBinAddr: 0x10001775A, symSize: 0xE }
  - { offsetInCU: 0x13330, offset: 0x7C9E4, size: 0x8, addend: 0x0, symName: __ZNSt8__detail21_Hashtable_ebo_helperILi1ESt4hashIN6tinyrv6OpcodeEELb1EEC2IRKS4_EEOT_, symObjAddr: 0x3380, symBinAddr: 0x100017768, symSize: 0x1F }
  - { offsetInCU: 0x1335F, offset: 0x7CA13, size: 0x8, addend: 0x0, symName: __ZN9__gnu_cxx16__aligned_bufferIN6tinyrv5InstrEE7_M_addrEv, symObjAddr: 0x3364, symBinAddr: 0x10001774C, symSize: 0xE }
  - { offsetInCU: 0x13367, offset: 0x7CA1B, size: 0x8, addend: 0x0, symName: __ZNK9__gnu_cxx16__aligned_bufferISt4pairIKN6tinyrv6OpcodeENS2_8InstTypeEEE7_M_addrEv, symObjAddr: 0x3372, symBinAddr: 0x10001775A, symSize: 0xE }
  - { offsetInCU: 0x133DB, offset: 0x7CA8F, size: 0x8, addend: 0x0, symName: __ZSt10_ConstructIN6tinyrv5InstrEJEEvPT_DpOT0_, symObjAddr: 0x333B, symBinAddr: 0x100017723, symSize: 0x29 }
  - { offsetInCU: 0x13434, offset: 0x7CAE8, size: 0x8, addend: 0x0, symName: __ZNSt14_Sp_ebo_helperILi0ESaIvELb1EEC2ERKS0_, symObjAddr: 0x332C, symBinAddr: 0x100017714, symSize: 0xF }
  - { offsetInCU: 0x1343C, offset: 0x7CAF0, size: 0x8, addend: 0x0, symName: __ZSt10_ConstructIN6tinyrv5InstrEJEEvPT_DpOT0_, symObjAddr: 0x333B, symBinAddr: 0x100017723, symSize: 0x29 }
  - { offsetInCU: 0x13441, offset: 0x7CAF5, size: 0x8, addend: 0x0, symName: __ZNSt15__new_allocatorISt23_Sp_counted_ptr_inplaceIN6tinyrv5InstrESaIvELN9__gnu_cxx12_Lock_policyE2EEE10deallocateEPS6_m, symObjAddr: 0x3308, symBinAddr: 0x1000176F0, symSize: 0x24 }
  - { offsetInCU: 0x13584, offset: 0x7CC38, size: 0x8, addend: 0x0, symName: __ZSt11__addressofISaISt23_Sp_counted_ptr_inplaceIN6tinyrv5InstrESaIvELN9__gnu_cxx12_Lock_policyE2EEEEPT_RS8_, symObjAddr: 0x32FA, symBinAddr: 0x1000176E2, symSize: 0xE }
  - { offsetInCU: 0x1358C, offset: 0x7CC40, size: 0x8, addend: 0x0, symName: __ZNSt15__new_allocatorISt23_Sp_counted_ptr_inplaceIN6tinyrv5InstrESaIvELN9__gnu_cxx12_Lock_policyE2EEE10deallocateEPS6_m, symObjAddr: 0x3308, symBinAddr: 0x1000176F0, symSize: 0x24 }
  - { offsetInCU: 0x134E0, offset: 0x7CB94, size: 0x8, addend: 0x0, symName: __ZNSt15__new_allocatorISt23_Sp_counted_ptr_inplaceIN6tinyrv5InstrESaIvELN9__gnu_cxx12_Lock_policyE2EEE8allocateEmPKv, symObjAddr: 0x3294, symBinAddr: 0x10001767C, symSize: 0x66 }
  - { offsetInCU: 0x134E8, offset: 0x7CB9C, size: 0x8, addend: 0x0, symName: __ZSt11__addressofISaISt23_Sp_counted_ptr_inplaceIN6tinyrv5InstrESaIvELN9__gnu_cxx12_Lock_policyE2EEEEPT_RS8_, symObjAddr: 0x32FA, symBinAddr: 0x1000176E2, symSize: 0xE }
  - { offsetInCU: 0x13554, offset: 0x7CC08, size: 0x8, addend: 0x0, symName: __ZNSt15__new_allocatorINSt8__detail10_Hash_nodeISt4pairIKN6tinyrv6OpcodeENS3_8InstTypeEELb0EEEE10deallocateEPS8_m, symObjAddr: 0x3270, symBinAddr: 0x100017658, symSize: 0x24 }
  - { offsetInCU: 0x1366C, offset: 0x7CD20, size: 0x8, addend: 0x0, symName: __ZSt9addressofINSt8__detail10_Hash_nodeISt4pairIKN6tinyrv6OpcodeENS3_8InstTypeEELb0EEEEPT_RS9_, symObjAddr: 0x3255, symBinAddr: 0x10001763D, symSize: 0x1B }
  - { offsetInCU: 0x135F3, offset: 0x7CCA7, size: 0x8, addend: 0x0, symName: __ZNSt10_HashtableIN6tinyrv6OpcodeESt4pairIKS1_NS0_8InstTypeEESaIS5_ENSt8__detail10_Select1stESt8equal_toIS1_ESt4hashIS1_ENS7_18_Mod_range_hashingENS7_20_Default_ranged_hashENS7_20_Prime_rehash_policyENS7_17_Hashtable_traitsILb0ELb0ELb1EEEE20_M_insert_unique_auxIRKS5_NS7_10_AllocNodeISaINS7_10_Hash_nodeIS5_Lb0EEEEEEEES2_INS7_14_Node_iteratorIS5_Lb0ELb0EEEbEOT_RKT0_, symObjAddr: 0x31EC, symBinAddr: 0x1000175D4, symSize: 0x69 }
  - { offsetInCU: 0x135FB, offset: 0x7CCAF, size: 0x8, addend: 0x0, symName: __ZSt9addressofINSt8__detail10_Hash_nodeISt4pairIKN6tinyrv6OpcodeENS3_8InstTypeEELb0EEEEPT_RS9_, symObjAddr: 0x3255, symBinAddr: 0x10001763D, symSize: 0x1B }
  - { offsetInCU: 0x13665, offset: 0x7CD19, size: 0x8, addend: 0x0, symName: __ZNKSt8__detail19_ConvertToValueTypeINS_10_Select1stESt4pairIKN6tinyrv6OpcodeENS3_8InstTypeEEEclERKS7_, symObjAddr: 0x31DA, symBinAddr: 0x1000175C2, symSize: 0x12 }
  - { offsetInCU: 0x1366D, offset: 0x7CD21, size: 0x8, addend: 0x0, symName: __ZNSt10_HashtableIN6tinyrv6OpcodeESt4pairIKS1_NS0_8InstTypeEESaIS5_ENSt8__detail10_Select1stESt8equal_toIS1_ESt4hashIS1_ENS7_18_Mod_range_hashingENS7_20_Default_ranged_hashENS7_20_Prime_rehash_policyENS7_17_Hashtable_traitsILb0ELb0ELb1EEEE20_M_insert_unique_auxIRKS5_NS7_10_AllocNodeISaINS7_10_Hash_nodeIS5_Lb0EEEEEEEES2_INS7_14_Node_iteratorIS5_Lb0ELb0EEEbEOT_RKT0_, symObjAddr: 0x31EC, symBinAddr: 0x1000175D4, symSize: 0x69 }
  - { offsetInCU: 0x13792, offset: 0x7CE46, size: 0x8, addend: 0x0, symName: __ZNSt8__detail21_Hashtable_ebo_helperILi0ESaINS_10_Hash_nodeISt4pairIKN6tinyrv6OpcodeENS3_8InstTypeEELb0EEEELb1EEC2IS9_EEOT_, symObjAddr: 0x318E, symBinAddr: 0x100017582, symSize: 0x3D }
  - { offsetInCU: 0x138B1, offset: 0x7CF65, size: 0x8, addend: 0x0, symName: __ZSt7forwardISaINSt8__detail10_Hash_nodeISt4pairIKN6tinyrv6OpcodeENS3_8InstTypeEELb0EEEEEOT_RNSt16remove_referenceISA_E4typeE, symObjAddr: 0x317F, symBinAddr: 0x100017573, symSize: 0xF }
  - { offsetInCU: 0x138A5, offset: 0x7CF59, size: 0x8, addend: 0x0, symName: __ZNSt8__detail21_Hashtable_ebo_helperILi0ESt8equal_toIN6tinyrv6OpcodeEELb1EEC2IRKS4_EEOT_, symObjAddr: 0x3160, symBinAddr: 0x100017554, symSize: 0x1F }
  - { offsetInCU: 0x138AD, offset: 0x7CF61, size: 0x8, addend: 0x0, symName: __ZSt7forwardISaINSt8__detail10_Hash_nodeISt4pairIKN6tinyrv6OpcodeENS3_8InstTypeEELb0EEEEEOT_RNSt16remove_referenceISA_E4typeE, symObjAddr: 0x317F, symBinAddr: 0x100017573, symSize: 0xF }
  - { offsetInCU: 0x13963, offset: 0x7D017, size: 0x8, addend: 0x0, symName: __ZNSt8__detail15_Hash_code_baseIN6tinyrv6OpcodeESt4pairIKS2_NS1_8InstTypeEENS_10_Select1stESt4hashIS2_ENS_18_Mod_range_hashingENS_20_Default_ranged_hashELb0EEC2ERKS9_, symObjAddr: 0x313A, symBinAddr: 0x10001752E, symSize: 0x26 }
  - { offsetInCU: 0x1396B, offset: 0x7D01F, size: 0x8, addend: 0x0, symName: __ZNSt8__detail21_Hashtable_ebo_helperILi0ESt8equal_toIN6tinyrv6OpcodeEELb1EEC2IRKS4_EEOT_, symObjAddr: 0x3160, symBinAddr: 0x100017554, symSize: 0x1F }
  - { offsetInCU: 0x1397A, offset: 0x7D02E, size: 0x8, addend: 0x0, symName: __ZSt11__addressofIPNSt8__detail15_Hash_node_baseEEPT_RS3_, symObjAddr: 0x312C, symBinAddr: 0x100017520, symSize: 0xE }
  - { offsetInCU: 0x13982, offset: 0x7D036, size: 0x8, addend: 0x0, symName: __ZNSt8__detail15_Hash_code_baseIN6tinyrv6OpcodeESt4pairIKS2_NS1_8InstTypeEENS_10_Select1stESt4hashIS2_ENS_18_Mod_range_hashingENS_20_Default_ranged_hashELb0EEC2ERKS9_, symObjAddr: 0x313A, symBinAddr: 0x10001752E, symSize: 0x26 }
  - { offsetInCU: 0x13959, offset: 0x7D00D, size: 0x8, addend: 0x0, symName: __ZNKSt8__detail15_Hash_code_baseIN6tinyrv6OpcodeESt4pairIKS2_NS1_8InstTypeEENS_10_Select1stESt4hashIS2_ENS_18_Mod_range_hashingENS_20_Default_ranged_hashELb0EE15_M_bucket_indexERKNS_16_Hash_node_valueIS6_Lb0EEEm, symObjAddr: 0x30D0, symBinAddr: 0x1000174C4, symSize: 0x5C }
  - { offsetInCU: 0x13961, offset: 0x7D015, size: 0x8, addend: 0x0, symName: __ZSt11__addressofIPNSt8__detail15_Hash_node_baseEEPT_RS3_, symObjAddr: 0x312C, symBinAddr: 0x100017520, symSize: 0xE }
  - { offsetInCU: 0x139B0, offset: 0x7D064, size: 0x8, addend: 0x0, symName: __ZNSt8__detail15_Hashtable_baseIN6tinyrv6OpcodeESt4pairIKS2_NS1_8InstTypeEENS_10_Select1stESt8equal_toIS2_ESt4hashIS2_ENS_18_Mod_range_hashingENS_20_Default_ranged_hashENS_17_Hashtable_traitsILb0ELb0ELb1EEEE9_S_equalsEmRKNS_21_Hash_node_code_cacheILb0EEE, symObjAddr: 0x30BC, symBinAddr: 0x1000174B0, symSize: 0x14 }
  - { offsetInCU: 0x139E6, offset: 0x7D09A, size: 0x8, addend: 0x0, symName: __ZNK9__gnu_cxx16__aligned_bufferISt4pairIKN6tinyrv6OpcodeENS2_8InstTypeEEE6_M_ptrEv, symObjAddr: 0x30A2, symBinAddr: 0x100017496, symSize: 0x1A }
  - { offsetInCU: 0x139EE, offset: 0x7D0A2, size: 0x8, addend: 0x0, symName: __ZNSt8__detail15_Hashtable_baseIN6tinyrv6OpcodeESt4pairIKS2_NS1_8InstTypeEENS_10_Select1stESt8equal_toIS2_ESt4hashIS2_ENS_18_Mod_range_hashingENS_20_Default_ranged_hashENS_17_Hashtable_traitsILb0ELb0ELb1EEEE9_S_equalsEmRKNS_21_Hash_node_code_cacheILb0EEE, symObjAddr: 0x30BC, symBinAddr: 0x1000174B0, symSize: 0x14 }
  - { offsetInCU: 0x13A15, offset: 0x7D0C9, size: 0x8, addend: 0x0, symName: __ZN9__gnu_cxx16__aligned_bufferIN6tinyrv5InstrEE6_M_ptrEv, symObjAddr: 0x3088, symBinAddr: 0x10001747C, symSize: 0x1A }
  - { offsetInCU: 0x13A1D, offset: 0x7D0D1, size: 0x8, addend: 0x0, symName: __ZNK9__gnu_cxx16__aligned_bufferISt4pairIKN6tinyrv6OpcodeENS2_8InstTypeEEE6_M_ptrEv, symObjAddr: 0x30A2, symBinAddr: 0x100017496, symSize: 0x1A }
  - { offsetInCU: 0x13B09, offset: 0x7D1BD, size: 0x8, addend: 0x0, symName: __ZNSt23_Sp_counted_ptr_inplaceIN6tinyrv5InstrESaIvELN9__gnu_cxx12_Lock_policyE2EE5_ImplC1ES2_, symObjAddr: 0x3066, symBinAddr: 0x10001745A, symSize: 0x22 }
  - { offsetInCU: 0x13B11, offset: 0x7D1C5, size: 0x8, addend: 0x0, symName: __ZN9__gnu_cxx16__aligned_bufferIN6tinyrv5InstrEE6_M_ptrEv, symObjAddr: 0x3088, symBinAddr: 0x10001747C, symSize: 0x1A }
  - { offsetInCU: 0x13BBF, offset: 0x7D273, size: 0x8, addend: 0x0, symName: __ZSt12__to_addressISt23_Sp_counted_ptr_inplaceIN6tinyrv5InstrESaIvELN9__gnu_cxx12_Lock_policyE2EEEPT_S8_, symObjAddr: 0x3024, symBinAddr: 0x10001744C, symSize: 0xE }
  - { offsetInCU: 0x13C1C, offset: 0x7D2D0, size: 0x8, addend: 0x0, symName: __ZNSt15__allocated_ptrISaISt23_Sp_counted_ptr_inplaceIN6tinyrv5InstrESaIvELN9__gnu_cxx12_Lock_policyE2EEEEC1ERS7_PS6_, symObjAddr: 0x2FEE, symBinAddr: 0x100017416, symSize: 0x36 }
  - { offsetInCU: 0x13C24, offset: 0x7D2D8, size: 0x8, addend: 0x0, symName: __ZSt12__to_addressISt23_Sp_counted_ptr_inplaceIN6tinyrv5InstrESaIvELN9__gnu_cxx12_Lock_policyE2EEEPT_S8_, symObjAddr: 0x3024, symBinAddr: 0x10001744C, symSize: 0xE }
  - { offsetInCU: 0x13CAB, offset: 0x7D35F, size: 0x8, addend: 0x0, symName: __ZNSt15__new_allocatorISt23_Sp_counted_ptr_inplaceIN6tinyrv5InstrESaIvELN9__gnu_cxx12_Lock_policyE2EEED2Ev, symObjAddr: 0x2FE2, symBinAddr: 0x10001740A, symSize: 0xC }
  - { offsetInCU: 0x13CC5, offset: 0x7D379, size: 0x8, addend: 0x0, symName: __ZNSt19__ptr_traits_ptr_toIPNSt8__detail10_Hash_nodeISt4pairIKN6tinyrv6OpcodeENS3_8InstTypeEELb0EEES8_Lb0EE10pointer_toERS8_, symObjAddr: 0x2FC8, symBinAddr: 0x1000173F0, symSize: 0x1A }
  - { offsetInCU: 0x13CCD, offset: 0x7D381, size: 0x8, addend: 0x0, symName: __ZNSt15__new_allocatorISt23_Sp_counted_ptr_inplaceIN6tinyrv5InstrESaIvELN9__gnu_cxx12_Lock_policyE2EEED2Ev, symObjAddr: 0x2FE2, symBinAddr: 0x10001740A, symSize: 0xC }
  - { offsetInCU: 0x13D2C, offset: 0x7D3E0, size: 0x8, addend: 0x0, symName: __ZNSt8__detail21_Hashtable_ebo_helperILi0ESaINS_10_Hash_nodeISt4pairIKN6tinyrv6OpcodeENS3_8InstTypeEELb0EEEELb1EE6_M_getEv, symObjAddr: 0x2FBA, symBinAddr: 0x1000173E2, symSize: 0xE }
  - { offsetInCU: 0x13D34, offset: 0x7D3E8, size: 0x8, addend: 0x0, symName: __ZNSt19__ptr_traits_ptr_toIPNSt8__detail10_Hash_nodeISt4pairIKN6tinyrv6OpcodeENS3_8InstTypeEELb0EEES8_Lb0EE10pointer_toERS8_, symObjAddr: 0x2FC8, symBinAddr: 0x1000173F0, symSize: 0x1A }
  - { offsetInCU: 0x13D5B, offset: 0x7D40F, size: 0x8, addend: 0x0, symName: __ZNSt10_HashtableIN6tinyrv6OpcodeESt4pairIKS1_NS0_8InstTypeEESaIS5_ENSt8__detail10_Select1stESt8equal_toIS1_ESt4hashIS1_ENS7_18_Mod_range_hashingENS7_20_Default_ranged_hashENS7_20_Prime_rehash_policyENS7_17_Hashtable_traitsILb0ELb0ELb1EEEE9_M_insertIRKS5_NS7_10_AllocNodeISaINS7_10_Hash_nodeIS5_Lb0EEEEEEEES2_INS7_14_Node_iteratorIS5_Lb0ELb0EEEbEOT_RKT0_St17integral_constantIbLb1EE, symObjAddr: 0x2F70, symBinAddr: 0x100017398, symSize: 0x4A }
  - { offsetInCU: 0x13D63, offset: 0x7D417, size: 0x8, addend: 0x0, symName: __ZNSt8__detail21_Hashtable_ebo_helperILi0ESaINS_10_Hash_nodeISt4pairIKN6tinyrv6OpcodeENS3_8InstTypeEELb0EEEELb1EE6_M_getEv, symObjAddr: 0x2FBA, symBinAddr: 0x1000173E2, symSize: 0xE }
  - { offsetInCU: 0x13DD8, offset: 0x7D48C, size: 0x8, addend: 0x0, symName: __ZNSt8__detail16_Hashtable_allocISaINS_10_Hash_nodeISt4pairIKN6tinyrv6OpcodeENS3_8InstTypeEELb0EEEEE19_M_allocate_bucketsEm, symObjAddr: 0x2EBA, symBinAddr: 0x1000172E2, symSize: 0xB6 }
  - { offsetInCU: 0x13DE0, offset: 0x7D494, size: 0x8, addend: 0x0, symName: __ZNSt10_HashtableIN6tinyrv6OpcodeESt4pairIKS1_NS0_8InstTypeEESaIS5_ENSt8__detail10_Select1stESt8equal_toIS1_ESt4hashIS1_ENS7_18_Mod_range_hashingENS7_20_Default_ranged_hashENS7_20_Prime_rehash_policyENS7_17_Hashtable_traitsILb0ELb0ELb1EEEE9_M_insertIRKS5_NS7_10_AllocNodeISaINS7_10_Hash_nodeIS5_Lb0EEEEEEEES2_INS7_14_Node_iteratorIS5_Lb0ELb0EEEbEOT_RKT0_St17integral_constantIbLb1EE, symObjAddr: 0x2F70, symBinAddr: 0x100017398, symSize: 0x4A }
  - { offsetInCU: 0x13FB4, offset: 0x7D668, size: 0x8, addend: 0x0, symName: __ZNSt27_Enable_default_constructorILb1ENSt8__detail15_Hash_node_baseEEC2ESt31_Enable_default_constructor_tag, symObjAddr: 0x2EAE, symBinAddr: 0x1000172D6, symSize: 0xC }
  - { offsetInCU: 0x14028, offset: 0x7D6DC, size: 0x8, addend: 0x0, symName: __ZNSt8__detail16_Hashtable_allocISaINS_10_Hash_nodeISt4pairIKN6tinyrv6OpcodeENS3_8InstTypeEELb0EEEEEC2IS9_EEOT_, symObjAddr: 0x2E7C, symBinAddr: 0x1000172A4, symSize: 0x32 }
  - { offsetInCU: 0x14117, offset: 0x7D7CB, size: 0x8, addend: 0x0, symName: __ZNSt8__detail15_Hashtable_baseIN6tinyrv6OpcodeESt4pairIKS2_NS1_8InstTypeEENS_10_Select1stESt8equal_toIS2_ESt4hashIS2_ENS_18_Mod_range_hashingENS_20_Default_ranged_hashENS_17_Hashtable_traitsILb0ELb0ELb1EEEEC2ERKSB_RKS9_, symObjAddr: 0x2E3E, symBinAddr: 0x100017266, symSize: 0x3E }
  - { offsetInCU: 0x140C8, offset: 0x7D77C, size: 0x8, addend: 0x0, symName: __ZNKSt10_HashtableIN6tinyrv6OpcodeESt4pairIKS1_NS0_8InstTypeEESaIS5_ENSt8__detail10_Select1stESt8equal_toIS1_ESt4hashIS1_ENS7_18_Mod_range_hashingENS7_20_Default_ranged_hashENS7_20_Prime_rehash_policyENS7_17_Hashtable_traitsILb0ELb0ELb1EEEE15_M_bucket_indexERKNS7_16_Hash_node_valueIS5_Lb0EEE, symObjAddr: 0x2DC6, symBinAddr: 0x100017236, symSize: 0x2D }
  - { offsetInCU: 0x1410B, offset: 0x7D7BF, size: 0x8, addend: 0x0, symName: __ZNKSt8__detail15_Hashtable_baseIN6tinyrv6OpcodeESt4pairIKS2_NS1_8InstTypeEENS_10_Select1stESt8equal_toIS2_ESt4hashIS2_ENS_18_Mod_range_hashingENS_20_Default_ranged_hashENS_17_Hashtable_traitsILb0ELb0ELb1EEEE9_M_equalsERS4_mRKNS_16_Hash_node_valueIS6_Lb0EEE, symObjAddr: 0x2D6E, symBinAddr: 0x1000171DE, symSize: 0x58 }
  - { offsetInCU: 0x14113, offset: 0x7D7C7, size: 0x8, addend: 0x0, symName: __ZNKSt10_HashtableIN6tinyrv6OpcodeESt4pairIKS1_NS0_8InstTypeEESaIS5_ENSt8__detail10_Select1stESt8equal_toIS1_ESt4hashIS1_ENS7_18_Mod_range_hashingENS7_20_Default_ranged_hashENS7_20_Prime_rehash_policyENS7_17_Hashtable_traitsILb0ELb0ELb1EEEE15_M_bucket_indexERKNS7_16_Hash_node_valueIS5_Lb0EEE, symObjAddr: 0x2DC6, symBinAddr: 0x100017236, symSize: 0x2D }
  - { offsetInCU: 0x14176, offset: 0x7D82A, size: 0x8, addend: 0x0, symName: __ZNKSt8__detail21_Hashtable_ebo_helperILi1ESt4hashIN6tinyrv6OpcodeEELb1EE7_M_cgetEv, symObjAddr: 0x2D60, symBinAddr: 0x1000171D0, symSize: 0xE }
  - { offsetInCU: 0x1417E, offset: 0x7D832, size: 0x8, addend: 0x0, symName: __ZNKSt8__detail15_Hashtable_baseIN6tinyrv6OpcodeESt4pairIKS2_NS1_8InstTypeEENS_10_Select1stESt8equal_toIS2_ESt4hashIS2_ENS_18_Mod_range_hashingENS_20_Default_ranged_hashENS_17_Hashtable_traitsILb0ELb0ELb1EEEE9_M_equalsERS4_mRKNS_16_Hash_node_valueIS6_Lb0EEE, symObjAddr: 0x2D6E, symBinAddr: 0x1000171DE, symSize: 0x58 }
  - { offsetInCU: 0x14248, offset: 0x7D8FC, size: 0x8, addend: 0x0, symName: __ZSt7forwardIRKSt4pairIKN6tinyrv6OpcodeENS1_8InstTypeEEEOT_RNSt16remove_referenceIS8_E4typeE, symObjAddr: 0x2D52, symBinAddr: 0x1000171C2, symSize: 0xE }
  - { offsetInCU: 0x14250, offset: 0x7D904, size: 0x8, addend: 0x0, symName: __ZNKSt8__detail21_Hashtable_ebo_helperILi1ESt4hashIN6tinyrv6OpcodeEELb1EE7_M_cgetEv, symObjAddr: 0x2D60, symBinAddr: 0x1000171D0, symSize: 0xE }
  - { offsetInCU: 0x141F9, offset: 0x7D8AD, size: 0x8, addend: 0x0, symName: __ZNKSt8__detail21_Hash_node_value_baseISt4pairIKN6tinyrv6OpcodeENS2_8InstTypeEEE9_M_valptrEv, symObjAddr: 0x2D38, symBinAddr: 0x1000171A8, symSize: 0x1A }
  - { offsetInCU: 0x14201, offset: 0x7D8B5, size: 0x8, addend: 0x0, symName: __ZSt7forwardIRKSt4pairIKN6tinyrv6OpcodeENS1_8InstTypeEEEOT_RNSt16remove_referenceIS8_E4typeE, symObjAddr: 0x2D52, symBinAddr: 0x1000171C2, symSize: 0xE }
  - { offsetInCU: 0x14228, offset: 0x7D8DC, size: 0x8, addend: 0x0, symName: __ZNKSt8__detail21_Hashtable_ebo_helperILi0ESt8equal_toIN6tinyrv6OpcodeEELb1EE7_M_cgetEv, symObjAddr: 0x2D2A, symBinAddr: 0x10001719A, symSize: 0xE }
  - { offsetInCU: 0x14230, offset: 0x7D8E4, size: 0x8, addend: 0x0, symName: __ZNKSt8__detail21_Hash_node_value_baseISt4pairIKN6tinyrv6OpcodeENS2_8InstTypeEEE9_M_valptrEv, symObjAddr: 0x2D38, symBinAddr: 0x1000171A8, symSize: 0x1A }
  - { offsetInCU: 0x14257, offset: 0x7D90B, size: 0x8, addend: 0x0, symName: __ZNSt23_Sp_counted_ptr_inplaceIN6tinyrv5InstrESaIvELN9__gnu_cxx12_Lock_policyE2EE6_M_ptrEv, symObjAddr: 0x2D0C, symBinAddr: 0x10001717C, symSize: 0x1E }
  - { offsetInCU: 0x1425F, offset: 0x7D913, size: 0x8, addend: 0x0, symName: __ZNKSt8__detail21_Hashtable_ebo_helperILi0ESt8equal_toIN6tinyrv6OpcodeEELb1EE7_M_cgetEv, symObjAddr: 0x2D2A, symBinAddr: 0x10001719A, symSize: 0xE }
  - { offsetInCU: 0x14286, offset: 0x7D93A, size: 0x8, addend: 0x0, symName: __ZNSt15__allocated_ptrISaISt23_Sp_counted_ptr_inplaceIN6tinyrv5InstrESaIvELN9__gnu_cxx12_Lock_policyE2EEEEaSEDn, symObjAddr: 0x2CEE, symBinAddr: 0x10001715E, symSize: 0x1E }
  - { offsetInCU: 0x1428E, offset: 0x7D942, size: 0x8, addend: 0x0, symName: __ZNSt23_Sp_counted_ptr_inplaceIN6tinyrv5InstrESaIvELN9__gnu_cxx12_Lock_policyE2EE6_M_ptrEv, symObjAddr: 0x2D0C, symBinAddr: 0x10001717C, symSize: 0x1E }
  - { offsetInCU: 0x14357, offset: 0x7DA0B, size: 0x8, addend: 0x0, symName: __ZNSt23_Sp_counted_ptr_inplaceIN6tinyrv5InstrESaIvELN9__gnu_cxx12_Lock_policyE2EEC1IJEEES2_DpOT_, symObjAddr: 0x2C94, symBinAddr: 0x100017104, symSize: 0x5A }
  - { offsetInCU: 0x1435F, offset: 0x7DA13, size: 0x8, addend: 0x0, symName: __ZNSt15__allocated_ptrISaISt23_Sp_counted_ptr_inplaceIN6tinyrv5InstrESaIvELN9__gnu_cxx12_Lock_policyE2EEEEaSEDn, symObjAddr: 0x2CEE, symBinAddr: 0x10001715E, symSize: 0x1E }
  - { offsetInCU: 0x1436A, offset: 0x7DA1E, size: 0x8, addend: 0x0, symName: __ZNSt15__allocated_ptrISaISt23_Sp_counted_ptr_inplaceIN6tinyrv5InstrESaIvELN9__gnu_cxx12_Lock_policyE2EEEE3getEv, symObjAddr: 0x2C76, symBinAddr: 0x1000170E6, symSize: 0x1E }
  - { offsetInCU: 0x14372, offset: 0x7DA26, size: 0x8, addend: 0x0, symName: __ZNSt23_Sp_counted_ptr_inplaceIN6tinyrv5InstrESaIvELN9__gnu_cxx12_Lock_policyE2EEC1IJEEES2_DpOT_, symObjAddr: 0x2C94, symBinAddr: 0x100017104, symSize: 0x5A }
  - { offsetInCU: 0x1442F, offset: 0x7DAE3, size: 0x8, addend: 0x0, symName: __ZNSt15__allocated_ptrISaISt23_Sp_counted_ptr_inplaceIN6tinyrv5InstrESaIvELN9__gnu_cxx12_Lock_policyE2EEEED1Ev, symObjAddr: 0x2C22, symBinAddr: 0x100017092, symSize: 0x54 }
  - { offsetInCU: 0x1453C, offset: 0x7DBF0, size: 0x8, addend: 0x0, symName: __ZSt18__allocate_guardedISaISt23_Sp_counted_ptr_inplaceIN6tinyrv5InstrESaIvELN9__gnu_cxx12_Lock_policyE2EEEESt15__allocated_ptrIT_ERS9_, symObjAddr: 0x2BCD, symBinAddr: 0x10001703D, symSize: 0x55 }
  - { offsetInCU: 0x14544, offset: 0x7DBF8, size: 0x8, addend: 0x0, symName: __ZNSt15__allocated_ptrISaISt23_Sp_counted_ptr_inplaceIN6tinyrv5InstrESaIvELN9__gnu_cxx12_Lock_policyE2EEEED1Ev, symObjAddr: 0x2C22, symBinAddr: 0x100017092, symSize: 0x54 }
  - { offsetInCU: 0x14526, offset: 0x7DBDA, size: 0x8, addend: 0x0, symName: __ZNSt8__detail16_Hashtable_allocISaINS_10_Hash_nodeISt4pairIKN6tinyrv6OpcodeENS3_8InstTypeEELb0EEEEE22_M_deallocate_node_ptrEPS8_, symObjAddr: 0x2B72, symBinAddr: 0x100016FE2, symSize: 0x5B }
  - { offsetInCU: 0x1452E, offset: 0x7DBE2, size: 0x8, addend: 0x0, symName: __ZSt18__allocate_guardedISaISt23_Sp_counted_ptr_inplaceIN6tinyrv5InstrESaIvELN9__gnu_cxx12_Lock_policyE2EEEESt15__allocated_ptrIT_ERS9_, symObjAddr: 0x2BCD, symBinAddr: 0x10001703D, symSize: 0x55 }
  - { offsetInCU: 0x145F5, offset: 0x7DCA9, size: 0x8, addend: 0x0, symName: __ZNSt8__detail16_Hashtable_allocISaINS_10_Hash_nodeISt4pairIKN6tinyrv6OpcodeENS3_8InstTypeEELb0EEEEE17_M_node_allocatorEv, symObjAddr: 0x2B58, symBinAddr: 0x100016FC8, symSize: 0x1A }
  - { offsetInCU: 0x145FD, offset: 0x7DCB1, size: 0x8, addend: 0x0, symName: __ZNSt8__detail16_Hashtable_allocISaINS_10_Hash_nodeISt4pairIKN6tinyrv6OpcodeENS3_8InstTypeEELb0EEEEE22_M_deallocate_node_ptrEPS8_, symObjAddr: 0x2B72, symBinAddr: 0x100016FE2, symSize: 0x5B }
  - { offsetInCU: 0x14624, offset: 0x7DCD8, size: 0x8, addend: 0x0, symName: __ZNSt8__detail12_Insert_baseIN6tinyrv6OpcodeESt4pairIKS2_NS1_8InstTypeEESaIS6_ENS_10_Select1stESt8equal_toIS2_ESt4hashIS2_ENS_18_Mod_range_hashingENS_20_Default_ranged_hashENS_20_Prime_rehash_policyENS_17_Hashtable_traitsILb0ELb0ELb1EEEE15_M_insert_rangeIPKS6_NS_10_AllocNodeISaINS_10_Hash_nodeIS6_Lb0EEEEEEEEvT_SR_RKT0_St17integral_constantIbLb1EE, symObjAddr: 0x2B04, symBinAddr: 0x100016F74, symSize: 0x54 }
  - { offsetInCU: 0x1462C, offset: 0x7DCE0, size: 0x8, addend: 0x0, symName: __ZNSt8__detail16_Hashtable_allocISaINS_10_Hash_nodeISt4pairIKN6tinyrv6OpcodeENS3_8InstTypeEELb0EEEEE17_M_node_allocatorEv, symObjAddr: 0x2B58, symBinAddr: 0x100016FC8, symSize: 0x1A }
  - { offsetInCU: 0x14779, offset: 0x7DE2D, size: 0x8, addend: 0x0, symName: __ZNSt8__detail10_AllocNodeISaINS_10_Hash_nodeISt4pairIKN6tinyrv6OpcodeENS3_8InstTypeEELb0EEEEEC1ERNS_16_Hashtable_allocIS9_EE, symObjAddr: 0x2AEA, symBinAddr: 0x100016F5A, symSize: 0x1A }
  - { offsetInCU: 0x14781, offset: 0x7DE35, size: 0x8, addend: 0x0, symName: __ZNSt8__detail12_Insert_baseIN6tinyrv6OpcodeESt4pairIKS2_NS1_8InstTypeEESaIS6_ENS_10_Select1stESt8equal_toIS2_ESt4hashIS2_ENS_18_Mod_range_hashingENS_20_Default_ranged_hashENS_20_Prime_rehash_policyENS_17_Hashtable_traitsILb0ELb0ELb1EEEE15_M_insert_rangeIPKS6_NS_10_AllocNodeISaINS_10_Hash_nodeIS6_Lb0EEEEEEEEvT_SR_RKT0_St17integral_constantIbLb1EE, symObjAddr: 0x2B04, symBinAddr: 0x100016F74, symSize: 0x54 }
  - { offsetInCU: 0x14735, offset: 0x7DDE9, size: 0x8, addend: 0x0, symName: __ZNSt8__detail12_Insert_baseIN6tinyrv6OpcodeESt4pairIKS2_NS1_8InstTypeEESaIS6_ENS_10_Select1stESt8equal_toIS2_ESt4hashIS2_ENS_18_Mod_range_hashingENS_20_Default_ranged_hashENS_20_Prime_rehash_policyENS_17_Hashtable_traitsILb0ELb0ELb1EEEE20_M_conjure_hashtableEv, symObjAddr: 0x2ADC, symBinAddr: 0x100016F4C, symSize: 0xE }
  - { offsetInCU: 0x1473D, offset: 0x7DDF1, size: 0x8, addend: 0x0, symName: __ZNSt8__detail10_AllocNodeISaINS_10_Hash_nodeISt4pairIKN6tinyrv6OpcodeENS3_8InstTypeEELb0EEEEEC1ERNS_16_Hashtable_allocIS9_EE, symObjAddr: 0x2AEA, symBinAddr: 0x100016F5A, symSize: 0x1A }
  - { offsetInCU: 0x14764, offset: 0x7DE18, size: 0x8, addend: 0x0, symName: __ZNSt10_HashtableIN6tinyrv6OpcodeESt4pairIKS1_NS0_8InstTypeEESaIS5_ENSt8__detail10_Select1stESt8equal_toIS1_ESt4hashIS1_ENS7_18_Mod_range_hashingENS7_20_Default_ranged_hashENS7_20_Prime_rehash_policyENS7_17_Hashtable_traitsILb0ELb0ELb1EEEE19_M_allocate_bucketsEm, symObjAddr: 0x2A90, symBinAddr: 0x100016F00, symSize: 0x4C }
  - { offsetInCU: 0x1476C, offset: 0x7DE20, size: 0x8, addend: 0x0, symName: __ZNSt8__detail12_Insert_baseIN6tinyrv6OpcodeESt4pairIKS2_NS1_8InstTypeEESaIS6_ENS_10_Select1stESt8equal_toIS2_ESt4hashIS2_ENS_18_Mod_range_hashingENS_20_Default_ranged_hashENS_20_Prime_rehash_policyENS_17_Hashtable_traitsILb0ELb0ELb1EEEE20_M_conjure_hashtableEv, symObjAddr: 0x2ADC, symBinAddr: 0x100016F4C, symSize: 0xE }
  - { offsetInCU: 0x148F5, offset: 0x7DFA9, size: 0x8, addend: 0x0, symName: __ZNSt10_HashtableIN6tinyrv6OpcodeESt4pairIKS1_NS0_8InstTypeEESaIS5_ENSt8__detail10_Select1stESt8equal_toIS1_ESt4hashIS1_ENS7_18_Mod_range_hashingENS7_20_Default_ranged_hashENS7_20_Prime_rehash_policyENS7_17_Hashtable_traitsILb0ELb0ELb1EEEEC1ERKSC_RKSA_RKS6_, symObjAddr: 0x29A2, symBinAddr: 0x100016E12, symSize: 0xEE }
  - { offsetInCU: 0x148FD, offset: 0x7DFB1, size: 0x8, addend: 0x0, symName: __ZNSt10_HashtableIN6tinyrv6OpcodeESt4pairIKS1_NS0_8InstTypeEESaIS5_ENSt8__detail10_Select1stESt8equal_toIS1_ESt4hashIS1_ENS7_18_Mod_range_hashingENS7_20_Default_ranged_hashENS7_20_Prime_rehash_policyENS7_17_Hashtable_traitsILb0ELb0ELb1EEEE19_M_allocate_bucketsEm, symObjAddr: 0x2A90, symBinAddr: 0x100016F00, symSize: 0x4C }
  - { offsetInCU: 0x14949, offset: 0x7DFFD, size: 0x8, addend: 0x0, symName: __ZNSt19__ptr_traits_ptr_toIPPNSt8__detail15_Hash_node_baseES2_Lb0EE10pointer_toERS2_, symObjAddr: 0x2988, symBinAddr: 0x100016DF8, symSize: 0x1A }
  - { offsetInCU: 0x14951, offset: 0x7E005, size: 0x8, addend: 0x0, symName: __ZNSt10_HashtableIN6tinyrv6OpcodeESt4pairIKS1_NS0_8InstTypeEESaIS5_ENSt8__detail10_Select1stESt8equal_toIS1_ESt4hashIS1_ENS7_18_Mod_range_hashingENS7_20_Default_ranged_hashENS7_20_Prime_rehash_policyENS7_17_Hashtable_traitsILb0ELb0ELb1EEEEC1ERKSC_RKSA_RKS6_, symObjAddr: 0x29A2, symBinAddr: 0x100016E12, symSize: 0xEE }
  - { offsetInCU: 0x1497E, offset: 0x7E032, size: 0x8, addend: 0x0, symName: __ZN9__gnu_cxx16__aligned_bufferISt4pairIKN6tinyrv6OpcodeENS2_8InstTypeEEE7_M_addrEv, symObjAddr: 0x297A, symBinAddr: 0x100016DEA, symSize: 0xE }
  - { offsetInCU: 0x14986, offset: 0x7E03A, size: 0x8, addend: 0x0, symName: __ZNSt19__ptr_traits_ptr_toIPPNSt8__detail15_Hash_node_baseES2_Lb0EE10pointer_toERS2_, symObjAddr: 0x2988, symBinAddr: 0x100016DF8, symSize: 0x1A }
  - { offsetInCU: 0x14A4A, offset: 0x7E0FE, size: 0x8, addend: 0x0, symName: __ZNSt8__detail19_Node_iterator_baseISt4pairIKN6tinyrv6OpcodeENS2_8InstTypeEELb0EEC2EPNS_10_Hash_nodeIS6_Lb0EEE, symObjAddr: 0x2960, symBinAddr: 0x100016DD0, symSize: 0x1A }
  - { offsetInCU: 0x14A52, offset: 0x7E106, size: 0x8, addend: 0x0, symName: __ZN9__gnu_cxx16__aligned_bufferISt4pairIKN6tinyrv6OpcodeENS2_8InstTypeEEE7_M_addrEv, symObjAddr: 0x297A, symBinAddr: 0x100016DEA, symSize: 0xE }
  - { offsetInCU: 0x14A15, offset: 0x7E0C9, size: 0x8, addend: 0x0, symName: __ZNKSt10_HashtableIN6tinyrv6OpcodeESt4pairIKS1_NS0_8InstTypeEESaIS5_ENSt8__detail10_Select1stESt8equal_toIS1_ESt4hashIS1_ENS7_18_Mod_range_hashingENS7_20_Default_ranged_hashENS7_20_Prime_rehash_policyENS7_17_Hashtable_traitsILb0ELb0ELb1EEEE19_M_find_before_nodeEmRS3_m, symObjAddr: 0x2886, symBinAddr: 0x100016CF6, symSize: 0xDA }
  - { offsetInCU: 0x14ABA, offset: 0x7E16E, size: 0x8, addend: 0x0, symName: __ZNKSt8__detail15_Hash_code_baseIN6tinyrv6OpcodeESt4pairIKS2_NS1_8InstTypeEENS_10_Select1stESt4hashIS2_ENS_18_Mod_range_hashingENS_20_Default_ranged_hashELb0EE15_M_bucket_indexEmm, symObjAddr: 0x2858, symBinAddr: 0x100016CC8, symSize: 0x2E }
  - { offsetInCU: 0x14B11, offset: 0x7E1C5, size: 0x8, addend: 0x0, symName: __ZNKSt11__hash_enumIN6tinyrv6OpcodeELb1EEclES1_, symObjAddr: 0x2836, symBinAddr: 0x100016CA6, symSize: 0x22 }
  - { offsetInCU: 0x14B19, offset: 0x7E1CD, size: 0x8, addend: 0x0, symName: __ZNKSt8__detail15_Hash_code_baseIN6tinyrv6OpcodeESt4pairIKS2_NS1_8InstTypeEENS_10_Select1stESt4hashIS2_ENS_18_Mod_range_hashingENS_20_Default_ranged_hashELb0EE15_M_bucket_indexEmm, symObjAddr: 0x2858, symBinAddr: 0x100016CC8, symSize: 0x2E }
  - { offsetInCU: 0x14B63, offset: 0x7E217, size: 0x8, addend: 0x0, symName: __ZNKSt8__detail15_Hash_code_baseIN6tinyrv6OpcodeESt4pairIKS2_NS1_8InstTypeEENS_10_Select1stESt4hashIS2_ENS_18_Mod_range_hashingENS_20_Default_ranged_hashELb0EE7_M_hashEv, symObjAddr: 0x281C, symBinAddr: 0x100016C8C, symSize: 0x1A }
  - { offsetInCU: 0x14B6B, offset: 0x7E21F, size: 0x8, addend: 0x0, symName: __ZNKSt11__hash_enumIN6tinyrv6OpcodeELb1EEclES1_, symObjAddr: 0x2836, symBinAddr: 0x100016CA6, symSize: 0x22 }
  - { offsetInCU: 0x14B92, offset: 0x7E246, size: 0x8, addend: 0x0, symName: __ZNKSt8equal_toIN6tinyrv6OpcodeEEclERKS1_S4_, symObjAddr: 0x27F8, symBinAddr: 0x100016C68, symSize: 0x24 }
  - { offsetInCU: 0x14BFC, offset: 0x7E2B0, size: 0x8, addend: 0x0, symName: __ZNKSt8__detail10_Select1stclIRKSt4pairIKN6tinyrv6OpcodeENS3_8InstTypeEEEEONS0_10__1st_typeIT_E4typeEOSB_, symObjAddr: 0x27DA, symBinAddr: 0x100016C4A, symSize: 0x1E }
  - { offsetInCU: 0x14C04, offset: 0x7E2B8, size: 0x8, addend: 0x0, symName: __ZNKSt8equal_toIN6tinyrv6OpcodeEEclERKS1_S4_, symObjAddr: 0x27F8, symBinAddr: 0x100016C68, symSize: 0x24 }
  - { offsetInCU: 0x14C4B, offset: 0x7E2FF, size: 0x8, addend: 0x0, symName: __ZNKSt8__detail21_Hash_node_value_baseISt4pairIKN6tinyrv6OpcodeENS2_8InstTypeEEE4_M_vEv, symObjAddr: 0x27C0, symBinAddr: 0x100016C30, symSize: 0x1A }
  - { offsetInCU: 0x14C53, offset: 0x7E307, size: 0x8, addend: 0x0, symName: __ZNKSt8__detail10_Select1stclIRKSt4pairIKN6tinyrv6OpcodeENS3_8InstTypeEEEEONS0_10__1st_typeIT_E4typeEOSB_, symObjAddr: 0x27DA, symBinAddr: 0x100016C4A, symSize: 0x1E }
  - { offsetInCU: 0x14C7A, offset: 0x7E32E, size: 0x8, addend: 0x0, symName: __ZNKSt8__detail15_Hashtable_baseIN6tinyrv6OpcodeESt4pairIKS2_NS1_8InstTypeEENS_10_Select1stESt8equal_toIS2_ESt4hashIS2_ENS_18_Mod_range_hashingENS_20_Default_ranged_hashENS_17_Hashtable_traitsILb0ELb0ELb1EEEE5_M_eqEv, symObjAddr: 0x27A6, symBinAddr: 0x100016C16, symSize: 0x1A }
  - { offsetInCU: 0x14C82, offset: 0x7E336, size: 0x8, addend: 0x0, symName: __ZNKSt8__detail21_Hash_node_value_baseISt4pairIKN6tinyrv6OpcodeENS2_8InstTypeEEE4_M_vEv, symObjAddr: 0x27C0, symBinAddr: 0x100016C30, symSize: 0x1A }
  - { offsetInCU: 0x14CA9, offset: 0x7E35D, size: 0x8, addend: 0x0, symName: __ZNSt8__detail19_Node_iterator_baseISt4pairIKN6tinyrv6OpcodeENS2_8InstTypeEELb0EE7_M_incrEv, symObjAddr: 0x2780, symBinAddr: 0x100016BF0, symSize: 0x26 }
  - { offsetInCU: 0x14CD9, offset: 0x7E38D, size: 0x8, addend: 0x0, symName: __ZNSt8__detail22_Hashtable_hash_traitsISt4hashIN6tinyrv6OpcodeEEE22__small_size_thresholdEv, symObjAddr: 0x2775, symBinAddr: 0x100016BE5, symSize: 0xB }
  - { offsetInCU: 0x14CE1, offset: 0x7E395, size: 0x8, addend: 0x0, symName: __ZNSt8__detail19_Node_iterator_baseISt4pairIKN6tinyrv6OpcodeENS2_8InstTypeEELb0EE7_M_incrEv, symObjAddr: 0x2780, symBinAddr: 0x100016BF0, symSize: 0x26 }
  - { offsetInCU: 0x14CF6, offset: 0x7E3AA, size: 0x8, addend: 0x0, symName: __ZNSt12__shared_ptrIN6tinyrv5InstrELN9__gnu_cxx12_Lock_policyE2EE31_M_enable_shared_from_this_withIS1_S1_EENSt9enable_ifIXntsrNS4_15__has_esft_baseIT0_vEE5valueEvE4typeEPT_, symObjAddr: 0x2766, symBinAddr: 0x100016BD6, symSize: 0xF }
  - { offsetInCU: 0x14CFE, offset: 0x7E3B2, size: 0x8, addend: 0x0, symName: __ZNSt8__detail22_Hashtable_hash_traitsISt4hashIN6tinyrv6OpcodeEEE22__small_size_thresholdEv, symObjAddr: 0x2775, symBinAddr: 0x100016BE5, symSize: 0xB }
  - { offsetInCU: 0x14E93, offset: 0x7E547, size: 0x8, addend: 0x0, symName: __ZNSt14__shared_countILN9__gnu_cxx12_Lock_policyE2EEC1IN6tinyrv5InstrESaIvEJEEERPT_St20_Sp_alloc_shared_tagIT0_EDpOT1_, symObjAddr: 0x265A, symBinAddr: 0x100016ACA, symSize: 0x10C }
  - { offsetInCU: 0x14E9B, offset: 0x7E54F, size: 0x8, addend: 0x0, symName: __ZNSt12__shared_ptrIN6tinyrv5InstrELN9__gnu_cxx12_Lock_policyE2EE31_M_enable_shared_from_this_withIS1_S1_EENSt9enable_ifIXntsrNS4_15__has_esft_baseIT0_vEE5valueEvE4typeEPT_, symObjAddr: 0x2766, symBinAddr: 0x100016BD6, symSize: 0xF }
  - { offsetInCU: 0x14FAB, offset: 0x7E65F, size: 0x8, addend: 0x0, symName: __ZNSt8__detail16_Hashtable_allocISaINS_10_Hash_nodeISt4pairIKN6tinyrv6OpcodeENS3_8InstTypeEELb0EEEEE21_M_deallocate_bucketsEPPNS_15_Hash_node_baseEm, symObjAddr: 0x25E4, symBinAddr: 0x100016A54, symSize: 0x76 }
  - { offsetInCU: 0x14FB3, offset: 0x7E667, size: 0x8, addend: 0x0, symName: __ZNSt14__shared_countILN9__gnu_cxx12_Lock_policyE2EEC1IN6tinyrv5InstrESaIvEJEEERPT_St20_Sp_alloc_shared_tagIT0_EDpOT1_, symObjAddr: 0x265A, symBinAddr: 0x100016ACA, symSize: 0x10C }
  - { offsetInCU: 0x150E0, offset: 0x7E794, size: 0x8, addend: 0x0, symName: __ZNKSt10_HashtableIN6tinyrv6OpcodeESt4pairIKS1_NS0_8InstTypeEESaIS5_ENSt8__detail10_Select1stESt8equal_toIS1_ESt4hashIS1_ENS7_18_Mod_range_hashingENS7_20_Default_ranged_hashENS7_20_Prime_rehash_policyENS7_17_Hashtable_traitsILb0ELb0ELb1EEEE21_M_uses_single_bucketEPPNS7_15_Hash_node_baseE, symObjAddr: 0x25BE, symBinAddr: 0x100016A2E, symSize: 0x26 }
  - { offsetInCU: 0x150E8, offset: 0x7E79C, size: 0x8, addend: 0x0, symName: __ZNSt8__detail16_Hashtable_allocISaINS_10_Hash_nodeISt4pairIKN6tinyrv6OpcodeENS3_8InstTypeEELb0EEEEE21_M_deallocate_bucketsEPPNS_15_Hash_node_baseEm, symObjAddr: 0x25E4, symBinAddr: 0x100016A54, symSize: 0x76 }
  - { offsetInCU: 0x15123, offset: 0x7E7D7, size: 0x8, addend: 0x0, symName: __ZNSt8__detail16_Hashtable_allocISaINS_10_Hash_nodeISt4pairIKN6tinyrv6OpcodeENS3_8InstTypeEELb0EEEEE18_M_deallocate_nodeEPS8_, symObjAddr: 0x255A, symBinAddr: 0x1000169CA, symSize: 0x64 }
  - { offsetInCU: 0x1512B, offset: 0x7E7DF, size: 0x8, addend: 0x0, symName: __ZNKSt10_HashtableIN6tinyrv6OpcodeESt4pairIKS1_NS0_8InstTypeEESaIS5_ENSt8__detail10_Select1stESt8equal_toIS1_ESt4hashIS1_ENS7_18_Mod_range_hashingENS7_20_Default_ranged_hashENS7_20_Prime_rehash_policyENS7_17_Hashtable_traitsILb0ELb0ELb1EEEE21_M_uses_single_bucketEPPNS7_15_Hash_node_baseE, symObjAddr: 0x25BE, symBinAddr: 0x100016A2E, symSize: 0x26 }
  - { offsetInCU: 0x151CC, offset: 0x7E880, size: 0x8, addend: 0x0, symName: __ZNKSt8__detail10_Hash_nodeISt4pairIKN6tinyrv6OpcodeENS2_8InstTypeEELb0EE7_M_nextEv, symObjAddr: 0x2548, symBinAddr: 0x1000169B8, symSize: 0x12 }
  - { offsetInCU: 0x151FB, offset: 0x7E8AF, size: 0x8, addend: 0x0, symName: __ZNSt8__detail12_Insert_baseIN6tinyrv6OpcodeESt4pairIKS2_NS1_8InstTypeEESaIS6_ENS_10_Select1stESt8equal_toIS2_ESt4hashIS2_ENS_18_Mod_range_hashingENS_20_Default_ranged_hashENS_20_Prime_rehash_policyENS_17_Hashtable_traitsILb0ELb0ELb1EEEE6insertIPKS6_EEvT_SM_, symObjAddr: 0x24F6, symBinAddr: 0x100016966, symSize: 0x52 }
  - { offsetInCU: 0x15203, offset: 0x7E8B7, size: 0x8, addend: 0x0, symName: __ZNKSt8__detail10_Hash_nodeISt4pairIKN6tinyrv6OpcodeENS2_8InstTypeEELb0EE7_M_nextEv, symObjAddr: 0x2548, symBinAddr: 0x1000169B8, symSize: 0x12 }
  - { offsetInCU: 0x153FC, offset: 0x7EAB0, size: 0x8, addend: 0x0, symName: __ZNSt10_HashtableIN6tinyrv6OpcodeESt4pairIKS1_NS0_8InstTypeEESaIS5_ENSt8__detail10_Select1stESt8equal_toIS1_ESt4hashIS1_ENS7_18_Mod_range_hashingENS7_20_Default_ranged_hashENS7_20_Prime_rehash_policyENS7_17_Hashtable_traitsILb0ELb0ELb1EEEEC1EmRKSC_RKSA_RKS6_, symObjAddr: 0x244E, symBinAddr: 0x1000168BE, symSize: 0xA8 }
  - { offsetInCU: 0x15397, offset: 0x7EA4B, size: 0x8, addend: 0x0, symName: __ZNKSt16initializer_listISt4pairIKN6tinyrv6OpcodeENS1_8InstTypeEEE4sizeEv, symObjAddr: 0x243C, symBinAddr: 0x1000168AC, symSize: 0x12 }
  - { offsetInCU: 0x1539F, offset: 0x7EA53, size: 0x8, addend: 0x0, symName: __ZNSt10_HashtableIN6tinyrv6OpcodeESt4pairIKS1_NS0_8InstTypeEESaIS5_ENSt8__detail10_Select1stESt8equal_toIS1_ESt4hashIS1_ENS7_18_Mod_range_hashingENS7_20_Default_ranged_hashENS7_20_Prime_rehash_policyENS7_17_Hashtable_traitsILb0ELb0ELb1EEEEC1EmRKSC_RKSA_RKS6_, symObjAddr: 0x244E, symBinAddr: 0x1000168BE, symSize: 0xA8 }
  - { offsetInCU: 0x153C6, offset: 0x7EA7A, size: 0x8, addend: 0x0, symName: __ZN9__gnu_cxx16__aligned_bufferISt4pairIKN6tinyrv6OpcodeENS2_8InstTypeEEE6_M_ptrEv, symObjAddr: 0x2422, symBinAddr: 0x100016892, symSize: 0x1A }
  - { offsetInCU: 0x153CE, offset: 0x7EA82, size: 0x8, addend: 0x0, symName: __ZNKSt16initializer_listISt4pairIKN6tinyrv6OpcodeENS1_8InstTypeEEE4sizeEv, symObjAddr: 0x243C, symBinAddr: 0x1000168AC, symSize: 0x12 }
  - { offsetInCU: 0x15454, offset: 0x7EB08, size: 0x8, addend: 0x0, symName: __ZNSt12__shared_ptrIN6tinyrv5InstrELN9__gnu_cxx12_Lock_policyE2EEC2Ev, symObjAddr: 0x23F8, symBinAddr: 0x100016868, symSize: 0x2A }
  - { offsetInCU: 0x1545C, offset: 0x7EB10, size: 0x8, addend: 0x0, symName: __ZN9__gnu_cxx16__aligned_bufferISt4pairIKN6tinyrv6OpcodeENS2_8InstTypeEEE6_M_ptrEv, symObjAddr: 0x2422, symBinAddr: 0x100016892, symSize: 0x1A }
  - { offsetInCU: 0x154DA, offset: 0x7EB8E, size: 0x8, addend: 0x0, symName: __ZNSt8__detail20_Node_const_iteratorISt4pairIKN6tinyrv6OpcodeENS2_8InstTypeEELb0ELb0EEC1EPNS_10_Hash_nodeIS6_Lb0EEE, symObjAddr: 0x23D2, symBinAddr: 0x100016842, symSize: 0x26 }
  - { offsetInCU: 0x154E2, offset: 0x7EB96, size: 0x8, addend: 0x0, symName: __ZNSt12__shared_ptrIN6tinyrv5InstrELN9__gnu_cxx12_Lock_policyE2EEC2Ev, symObjAddr: 0x23F8, symBinAddr: 0x100016868, symSize: 0x2A }
  - { offsetInCU: 0x154A0, offset: 0x7EB54, size: 0x8, addend: 0x0, symName: __ZNKSt10_HashtableIN6tinyrv6OpcodeESt4pairIKS1_NS0_8InstTypeEESaIS5_ENSt8__detail10_Select1stESt8equal_toIS1_ESt4hashIS1_ENS7_18_Mod_range_hashingENS7_20_Default_ranged_hashENS7_20_Prime_rehash_policyENS7_17_Hashtable_traitsILb0ELb0ELb1EEEE12_M_find_nodeEmRS3_m, symObjAddr: 0x2386, symBinAddr: 0x1000167F6, symSize: 0x4C }
  - { offsetInCU: 0x1551F, offset: 0x7EBD3, size: 0x8, addend: 0x0, symName: __ZNKSt10_HashtableIN6tinyrv6OpcodeESt4pairIKS1_NS0_8InstTypeEESaIS5_ENSt8__detail10_Select1stESt8equal_toIS1_ESt4hashIS1_ENS7_18_Mod_range_hashingENS7_20_Default_ranged_hashENS7_20_Prime_rehash_policyENS7_17_Hashtable_traitsILb0ELb0ELb1EEEE15_M_bucket_indexEm, symObjAddr: 0x2358, symBinAddr: 0x1000167C8, symSize: 0x2E }
  - { offsetInCU: 0x15562, offset: 0x7EC16, size: 0x8, addend: 0x0, symName: __ZNKSt8__detail15_Hash_code_baseIN6tinyrv6OpcodeESt4pairIKS2_NS1_8InstTypeEENS_10_Select1stESt4hashIS2_ENS_18_Mod_range_hashingENS_20_Default_ranged_hashELb0EE12_M_hash_codeERS4_, symObjAddr: 0x2326, symBinAddr: 0x100016796, symSize: 0x32 }
  - { offsetInCU: 0x155A5, offset: 0x7EC59, size: 0x8, addend: 0x0, symName: __ZNKSt8__detail15_Hashtable_baseIN6tinyrv6OpcodeESt4pairIKS2_NS1_8InstTypeEENS_10_Select1stESt8equal_toIS2_ESt4hashIS2_ENS_18_Mod_range_hashingENS_20_Default_ranged_hashENS_17_Hashtable_traitsILb0ELb0ELb1EEEE13_M_key_equalsERS4_RKNS_16_Hash_node_valueIS6_Lb0EEE, symObjAddr: 0x22CC, symBinAddr: 0x10001673C, symSize: 0x5A }
  - { offsetInCU: 0x155AD, offset: 0x7EC61, size: 0x8, addend: 0x0, symName: __ZNKSt8__detail15_Hash_code_baseIN6tinyrv6OpcodeESt4pairIKS2_NS1_8InstTypeEENS_10_Select1stESt4hashIS2_ENS_18_Mod_range_hashingENS_20_Default_ranged_hashELb0EE12_M_hash_codeERS4_, symObjAddr: 0x2326, symBinAddr: 0x100016796, symSize: 0x32 }
  - { offsetInCU: 0x155FD, offset: 0x7ECB1, size: 0x8, addend: 0x0, symName: __ZNSt8__detail20_Node_const_iteratorISt4pairIKN6tinyrv6OpcodeENS2_8InstTypeEELb0ELb0EEppEv, symObjAddr: 0x22AE, symBinAddr: 0x10001671E, symSize: 0x1E }
  - { offsetInCU: 0x15605, offset: 0x7ECB9, size: 0x8, addend: 0x0, symName: __ZNKSt8__detail15_Hashtable_baseIN6tinyrv6OpcodeESt4pairIKS2_NS1_8InstTypeEENS_10_Select1stESt8equal_toIS2_ESt4hashIS2_ENS_18_Mod_range_hashingENS_20_Default_ranged_hashENS_17_Hashtable_traitsILb0ELb0ELb1EEEE13_M_key_equalsERS4_RKNS_16_Hash_node_valueIS6_Lb0EEE, symObjAddr: 0x22CC, symBinAddr: 0x10001673C, symSize: 0x5A }
  - { offsetInCU: 0x1569A, offset: 0x7ED4E, size: 0x8, addend: 0x0, symName: __ZNSt8__detailneERKNS_19_Node_iterator_baseISt4pairIKN6tinyrv6OpcodeENS2_8InstTypeEELb0EEES9_, symObjAddr: 0x228C, symBinAddr: 0x1000166FC, symSize: 0x22 }
  - { offsetInCU: 0x156A2, offset: 0x7ED56, size: 0x8, addend: 0x0, symName: __ZNSt8__detail20_Node_const_iteratorISt4pairIKN6tinyrv6OpcodeENS2_8InstTypeEELb0ELb0EEppEv, symObjAddr: 0x22AE, symBinAddr: 0x10001671E, symSize: 0x1E }
  - { offsetInCU: 0x15689, offset: 0x7ED3D, size: 0x8, addend: 0x0, symName: __ZNKSt10_HashtableIN6tinyrv6OpcodeESt4pairIKS1_NS0_8InstTypeEESaIS5_ENSt8__detail10_Select1stESt8equal_toIS1_ESt4hashIS1_ENS7_18_Mod_range_hashingENS7_20_Default_ranged_hashENS7_20_Prime_rehash_policyENS7_17_Hashtable_traitsILb0ELb0ELb1EEEE5beginEv, symObjAddr: 0x225C, symBinAddr: 0x1000166CC, symSize: 0x30 }
  - { offsetInCU: 0x15691, offset: 0x7ED45, size: 0x8, addend: 0x0, symName: __ZNSt8__detailneERKNS_19_Node_iterator_baseISt4pairIKN6tinyrv6OpcodeENS2_8InstTypeEELb0EEES9_, symObjAddr: 0x228C, symBinAddr: 0x1000166FC, symSize: 0x22 }
  - { offsetInCU: 0x156B9, offset: 0x7ED6D, size: 0x8, addend: 0x0, symName: __ZNSt10_HashtableIN6tinyrv6OpcodeESt4pairIKS1_NS0_8InstTypeEESaIS5_ENSt8__detail10_Select1stESt8equal_toIS1_ESt4hashIS1_ENS7_18_Mod_range_hashingENS7_20_Default_ranged_hashENS7_20_Prime_rehash_policyENS7_17_Hashtable_traitsILb0ELb0ELb1EEEE22__small_size_thresholdEv, symObjAddr: 0x2250, symBinAddr: 0x1000166C0, symSize: 0xC }
  - { offsetInCU: 0x156D6, offset: 0x7ED8A, size: 0x8, addend: 0x0, symName: __ZNKSt10_HashtableIN6tinyrv6OpcodeESt4pairIKS1_NS0_8InstTypeEESaIS5_ENSt8__detail10_Select1stESt8equal_toIS1_ESt4hashIS1_ENS7_18_Mod_range_hashingENS7_20_Default_ranged_hashENS7_20_Prime_rehash_policyENS7_17_Hashtable_traitsILb0ELb0ELb1EEEE4sizeEv, symObjAddr: 0x223E, symBinAddr: 0x1000166AE, symSize: 0x12 }
  - { offsetInCU: 0x156DE, offset: 0x7ED92, size: 0x8, addend: 0x0, symName: __ZNSt10_HashtableIN6tinyrv6OpcodeESt4pairIKS1_NS0_8InstTypeEESaIS5_ENSt8__detail10_Select1stESt8equal_toIS1_ESt4hashIS1_ENS7_18_Mod_range_hashingENS7_20_Default_ranged_hashENS7_20_Prime_rehash_policyENS7_17_Hashtable_traitsILb0ELb0ELb1EEEE22__small_size_thresholdEv, symObjAddr: 0x2250, symBinAddr: 0x1000166C0, symSize: 0xC }
  - { offsetInCU: 0x15705, offset: 0x7EDB9, size: 0x8, addend: 0x0, symName: __ZNKSt12__shared_ptrIN6tinyrv5InstrELN9__gnu_cxx12_Lock_policyE2EE3getEv, symObjAddr: 0x222C, symBinAddr: 0x10001669C, symSize: 0x12 }
  - { offsetInCU: 0x15734, offset: 0x7EDE8, size: 0x8, addend: 0x0, symName: __ZNSt14__shared_countILN9__gnu_cxx12_Lock_policyE2EE7_M_swapERS2_, symObjAddr: 0x21F8, symBinAddr: 0x100016668, symSize: 0x34 }
  - { offsetInCU: 0x1583D, offset: 0x7EEF1, size: 0x8, addend: 0x0, symName: __ZNSt12__shared_ptrIN6tinyrv5InstrELN9__gnu_cxx12_Lock_policyE2EEC2ISaIvEJEEESt20_Sp_alloc_shared_tagIT_EDpOT0_, symObjAddr: 0x2192, symBinAddr: 0x100016616, symSize: 0x50 }
  - { offsetInCU: 0x1581F, offset: 0x7EED3, size: 0x8, addend: 0x0, symName: __ZNSt10_HashtableIN6tinyrv6OpcodeESt4pairIKS1_NS0_8InstTypeEESaIS5_ENSt8__detail10_Select1stESt8equal_toIS1_ESt4hashIS1_ENS7_18_Mod_range_hashingENS7_20_Default_ranged_hashENS7_20_Prime_rehash_policyENS7_17_Hashtable_traitsILb0ELb0ELb1EEEE21_M_deallocate_bucketsEPPNS7_15_Hash_node_baseEm, symObjAddr: 0x214A, symBinAddr: 0x1000165CE, symSize: 0x48 }
  - { offsetInCU: 0x15876, offset: 0x7EF2A, size: 0x8, addend: 0x0, symName: __ZNSt8__detail16_Hashtable_allocISaINS_10_Hash_nodeISt4pairIKN6tinyrv6OpcodeENS3_8InstTypeEELb0EEEEE19_M_deallocate_nodesEPS8_, symObjAddr: 0x2102, symBinAddr: 0x100016586, symSize: 0x48 }
  - { offsetInCU: 0x1587E, offset: 0x7EF32, size: 0x8, addend: 0x0, symName: __ZNSt10_HashtableIN6tinyrv6OpcodeESt4pairIKS1_NS0_8InstTypeEESaIS5_ENSt8__detail10_Select1stESt8equal_toIS1_ESt4hashIS1_ENS7_18_Mod_range_hashingENS7_20_Default_ranged_hashENS7_20_Prime_rehash_policyENS7_17_Hashtable_traitsILb0ELb0ELb1EEEE21_M_deallocate_bucketsEPPNS7_15_Hash_node_baseEm, symObjAddr: 0x214A, symBinAddr: 0x1000165CE, symSize: 0x48 }
  - { offsetInCU: 0x158DF, offset: 0x7EF93, size: 0x8, addend: 0x0, symName: __ZNKSt10_HashtableIN6tinyrv6OpcodeESt4pairIKS1_NS0_8InstTypeEESaIS5_ENSt8__detail10_Select1stESt8equal_toIS1_ESt4hashIS1_ENS7_18_Mod_range_hashingENS7_20_Default_ranged_hashENS7_20_Prime_rehash_policyENS7_17_Hashtable_traitsILb0ELb0ELb1EEEE8_M_beginEv, symObjAddr: 0x20F0, symBinAddr: 0x100016574, symSize: 0x12 }
  - { offsetInCU: 0x158E7, offset: 0x7EF9B, size: 0x8, addend: 0x0, symName: __ZNSt8__detail16_Hashtable_allocISaINS_10_Hash_nodeISt4pairIKN6tinyrv6OpcodeENS3_8InstTypeEELb0EEEEE19_M_deallocate_nodesEPS8_, symObjAddr: 0x2102, symBinAddr: 0x100016586, symSize: 0x48 }
  - { offsetInCU: 0x15999, offset: 0x7F04D, size: 0x8, addend: 0x0, symName: __ZNSt15__new_allocatorINSt8__detail10_Hash_nodeISt4pairIKN6tinyrv6OpcodeENS3_8InstTypeEELb0EEEED2Ev, symObjAddr: 0x20E4, symBinAddr: 0x100016568, symSize: 0xC }
  - { offsetInCU: 0x15B23, offset: 0x7F1D7, size: 0x8, addend: 0x0, symName: __ZNSt10_HashtableIN6tinyrv6OpcodeESt4pairIKS1_NS0_8InstTypeEESaIS5_ENSt8__detail10_Select1stESt8equal_toIS1_ESt4hashIS1_ENS7_18_Mod_range_hashingENS7_20_Default_ranged_hashENS7_20_Prime_rehash_policyENS7_17_Hashtable_traitsILb0ELb0ELb1EEEEC1IPKS5_EET_SM_mRKSC_RKSA_RKS6_St17integral_constantIbLb1EE, symObjAddr: 0x206A, symBinAddr: 0x1000164EE, symSize: 0x7A }
  - { offsetInCU: 0x15A89, offset: 0x7F13D, size: 0x8, addend: 0x0, symName: __ZNKSt16initializer_listISt4pairIKN6tinyrv6OpcodeENS1_8InstTypeEEE3endEv, symObjAddr: 0x2034, symBinAddr: 0x1000164B8, symSize: 0x36 }
  - { offsetInCU: 0x15AB8, offset: 0x7F16C, size: 0x8, addend: 0x0, symName: __ZNKSt16initializer_listISt4pairIKN6tinyrv6OpcodeENS1_8InstTypeEEE5beginEv, symObjAddr: 0x2022, symBinAddr: 0x1000164A6, symSize: 0x12 }
  - { offsetInCU: 0x15AE7, offset: 0x7F19B, size: 0x8, addend: 0x0, symName: __ZNSt8__detail21_Hash_node_value_baseISt4pairIKN6tinyrv6OpcodeENS2_8InstTypeEEE9_M_valptrEv, symObjAddr: 0x2008, symBinAddr: 0x10001648C, symSize: 0x1A }
  - { offsetInCU: 0x15AEF, offset: 0x7F1A3, size: 0x8, addend: 0x0, symName: __ZNKSt16initializer_listISt4pairIKN6tinyrv6OpcodeENS1_8InstTypeEEE5beginEv, symObjAddr: 0x2022, symBinAddr: 0x1000164A6, symSize: 0x12 }
  - { offsetInCU: 0x15B56, offset: 0x7F20A, size: 0x8, addend: 0x0, symName: __ZNSt10shared_ptrIN6tinyrv5InstrEEC1Ev, symObjAddr: 0x1FEC, symBinAddr: 0x100016470, symSize: 0x1C }
  - { offsetInCU: 0x15B5D, offset: 0x7F211, size: 0x8, addend: 0x0, symName: __ZNKSt10_HashtableIN6tinyrv6OpcodeESt4pairIKS1_NS0_8InstTypeEESaIS5_ENSt8__detail10_Select1stESt8equal_toIS1_ESt4hashIS1_ENS7_18_Mod_range_hashingENS7_20_Default_ranged_hashENS7_20_Prime_rehash_policyENS7_17_Hashtable_traitsILb0ELb0ELb1EEEE3endEv, symObjAddr: 0x1FC8, symBinAddr: 0x10001644C, symSize: 0x24 }
  - { offsetInCU: 0x15B8C, offset: 0x7F240, size: 0x8, addend: 0x0, symName: __ZNKSt10_HashtableIN6tinyrv6OpcodeESt4pairIKS1_NS0_8InstTypeEESaIS5_ENSt8__detail10_Select1stESt8equal_toIS1_ESt4hashIS1_ENS7_18_Mod_range_hashingENS7_20_Default_ranged_hashENS7_20_Prime_rehash_policyENS7_17_Hashtable_traitsILb0ELb0ELb1EEEE4findERS3_, symObjAddr: 0x1EBC, symBinAddr: 0x100016340, symSize: 0x10C }
  - { offsetInCU: 0x15B94, offset: 0x7F248, size: 0x8, addend: 0x0, symName: __ZNKSt10_HashtableIN6tinyrv6OpcodeESt4pairIKS1_NS0_8InstTypeEESaIS5_ENSt8__detail10_Select1stESt8equal_toIS1_ESt4hashIS1_ENS7_18_Mod_range_hashingENS7_20_Default_ranged_hashENS7_20_Prime_rehash_policyENS7_17_Hashtable_traitsILb0ELb0ELb1EEEE3endEv, symObjAddr: 0x1FC8, symBinAddr: 0x10001644C, symSize: 0x24 }
  - { offsetInCU: 0x15C93, offset: 0x7F347, size: 0x8, addend: 0x0, symName: __ZNSt12__shared_ptrIN6tinyrv5InstrELN9__gnu_cxx12_Lock_policyE2EEC2EOS4_, symObjAddr: 0x1E4A, symBinAddr: 0x1000162E6, symSize: 0x58 }
  - { offsetInCU: 0x15CFE, offset: 0x7F3B2, size: 0x8, addend: 0x0, symName: __ZSt4moveIRSt10shared_ptrIN6tinyrv5InstrEEEONSt16remove_referenceIT_E4typeEOS6_, symObjAddr: 0x1E3C, symBinAddr: 0x1000162D8, symSize: 0xE }
  - { offsetInCU: 0x15D06, offset: 0x7F3BA, size: 0x8, addend: 0x0, symName: __ZNSt12__shared_ptrIN6tinyrv5InstrELN9__gnu_cxx12_Lock_policyE2EEC2EOS4_, symObjAddr: 0x1E4A, symBinAddr: 0x1000162E6, symSize: 0x58 }
  - { offsetInCU: 0x15D6B, offset: 0x7F41F, size: 0x8, addend: 0x0, symName: __ZNSt10shared_ptrIN6tinyrv5InstrEEC1ISaIvEJEEESt20_Sp_alloc_shared_tagIT_EDpOT0_, symObjAddr: 0x1E16, symBinAddr: 0x1000162B2, symSize: 0x26 }
  - { offsetInCU: 0x15D73, offset: 0x7F427, size: 0x8, addend: 0x0, symName: __ZSt4moveIRSt10shared_ptrIN6tinyrv5InstrEEEONSt16remove_referenceIT_E4typeEOS6_, symObjAddr: 0x1E3C, symBinAddr: 0x1000162D8, symSize: 0xE }
  - { offsetInCU: 0x15D6C, offset: 0x7F420, size: 0x8, addend: 0x0, symName: __ZNSt10_HashtableIN6tinyrv6OpcodeESt4pairIKS1_NS0_8InstTypeEESaIS5_ENSt8__detail10_Select1stESt8equal_toIS1_ESt4hashIS1_ENS7_18_Mod_range_hashingENS7_20_Default_ranged_hashENS7_20_Prime_rehash_policyENS7_17_Hashtable_traitsILb0ELb0ELb1EEEE21_M_deallocate_bucketsEv, symObjAddr: 0x1DE8, symBinAddr: 0x100016284, symSize: 0x2E }
  - { offsetInCU: 0x15D9B, offset: 0x7F44F, size: 0x8, addend: 0x0, symName: __ZNSt10_HashtableIN6tinyrv6OpcodeESt4pairIKS1_NS0_8InstTypeEESaIS5_ENSt8__detail10_Select1stESt8equal_toIS1_ESt4hashIS1_ENS7_18_Mod_range_hashingENS7_20_Default_ranged_hashENS7_20_Prime_rehash_policyENS7_17_Hashtable_traitsILb0ELb0ELb1EEEE5clearEv, symObjAddr: 0x1D7E, symBinAddr: 0x10001621A, symSize: 0x6A }
  - { offsetInCU: 0x15F7B, offset: 0x7F62F, size: 0x8, addend: 0x0, symName: __ZNSt10_HashtableIN6tinyrv6OpcodeESt4pairIKS1_NS0_8InstTypeEESaIS5_ENSt8__detail10_Select1stESt8equal_toIS1_ESt4hashIS1_ENS7_18_Mod_range_hashingENS7_20_Default_ranged_hashENS7_20_Prime_rehash_policyENS7_17_Hashtable_traitsILb0ELb0ELb1EEEEC1ESt16initializer_listIS5_EmRKSC_RKSA_RKS6_, symObjAddr: 0x1D00, symBinAddr: 0x10001619C, symSize: 0x7E }
  - { offsetInCU: 0x15F83, offset: 0x7F637, size: 0x8, addend: 0x0, symName: __ZNSt10_HashtableIN6tinyrv6OpcodeESt4pairIKS1_NS0_8InstTypeEESaIS5_ENSt8__detail10_Select1stESt8equal_toIS1_ESt4hashIS1_ENS7_18_Mod_range_hashingENS7_20_Default_ranged_hashENS7_20_Prime_rehash_policyENS7_17_Hashtable_traitsILb0ELb0ELb1EEEE5clearEv, symObjAddr: 0x1D7E, symBinAddr: 0x10001621A, symSize: 0x6A }
  - { offsetInCU: 0x15F37, offset: 0x7F5EB, size: 0x8, addend: 0x0, symName: __ZNSt15__new_allocatorISt4pairIKN6tinyrv6OpcodeENS1_8InstTypeEEED2Ev, symObjAddr: 0x1CF4, symBinAddr: 0x100016190, symSize: 0xC }
  - { offsetInCU: 0x15F7F, offset: 0x7F633, size: 0x8, addend: 0x0, symName: __ZSt7forwardIbEOT_RNSt16remove_referenceIS0_E4typeE, symObjAddr: 0x1CC8, symBinAddr: 0x100016180, symSize: 0xE }
  - { offsetInCU: 0x15F8D, offset: 0x7F641, size: 0x8, addend: 0x0, symName: __ZNKSt8__detail20_Node_const_iteratorISt4pairIKN6tinyrv6OpcodeENS2_8InstTypeEELb0ELb0EEptEv, symObjAddr: 0x1BD4, symBinAddr: 0x10001615C, symSize: 0x21 }
  - { offsetInCU: 0x16006, offset: 0x7F6BA, size: 0x8, addend: 0x0, symName: __ZNSt10shared_ptrIN6tinyrv5InstrEEC1EDn, symObjAddr: 0x1BB4, symBinAddr: 0x10001613C, symSize: 0x20 }
  - { offsetInCU: 0x160A7, offset: 0x7F75B, size: 0x8, addend: 0x0, symName: __ZNSt8__detaileqERKNS_19_Node_iterator_baseISt4pairIKN6tinyrv6OpcodeENS2_8InstTypeEELb0EEES9_, symObjAddr: 0x1B92, symBinAddr: 0x10001611A, symSize: 0x22 }
  - { offsetInCU: 0x160AF, offset: 0x7F763, size: 0x8, addend: 0x0, symName: __ZNSt10shared_ptrIN6tinyrv5InstrEEC1EDn, symObjAddr: 0x1BB4, symBinAddr: 0x10001613C, symSize: 0x20 }
  - { offsetInCU: 0x16092, offset: 0x7F746, size: 0x8, addend: 0x0, symName: __ZNKSt13unordered_mapIN6tinyrv6OpcodeENS0_8InstTypeESt4hashIS1_ESt8equal_toIS1_ESaISt4pairIKS1_S2_EEE3endEv, symObjAddr: 0x1B78, symBinAddr: 0x100016100, symSize: 0x1A }
  - { offsetInCU: 0x1609A, offset: 0x7F74E, size: 0x8, addend: 0x0, symName: __ZNSt8__detaileqERKNS_19_Node_iterator_baseISt4pairIKN6tinyrv6OpcodeENS2_8InstTypeEELb0EEES9_, symObjAddr: 0x1B92, symBinAddr: 0x10001611A, symSize: 0x22 }
  - { offsetInCU: 0x160C1, offset: 0x7F775, size: 0x8, addend: 0x0, symName: __ZNKSt13unordered_mapIN6tinyrv6OpcodeENS0_8InstTypeESt4hashIS1_ESt8equal_toIS1_ESaISt4pairIKS1_S2_EEE4findERS8_, symObjAddr: 0x1B52, symBinAddr: 0x1000160DA, symSize: 0x26 }
  - { offsetInCU: 0x16104, offset: 0x7F7B8, size: 0x8, addend: 0x0, symName: __ZNKSt19__shared_ptr_accessIN6tinyrv5InstrELN9__gnu_cxx12_Lock_policyE2ELb0ELb0EEptEv, symObjAddr: 0x1B38, symBinAddr: 0x1000160C0, symSize: 0x1A }
  - { offsetInCU: 0x1610C, offset: 0x7F7C0, size: 0x8, addend: 0x0, symName: __ZNKSt13unordered_mapIN6tinyrv6OpcodeENS0_8InstTypeESt4hashIS1_ESt8equal_toIS1_ESaISt4pairIKS1_S2_EEE4findERS8_, symObjAddr: 0x1B52, symBinAddr: 0x1000160DA, symSize: 0x26 }
  - { offsetInCU: 0x16187, offset: 0x7F83B, size: 0x8, addend: 0x0, symName: __ZNSt10shared_ptrIN6tinyrv5InstrEEC1EOS2_, symObjAddr: 0x1B04, symBinAddr: 0x10001608C, symSize: 0x34 }
  - { offsetInCU: 0x16225, offset: 0x7F8D9, size: 0x8, addend: 0x0, symName: __ZSt11make_sharedIN6tinyrv5InstrEJEESt10shared_ptrINSt9enable_ifIXntsrSt8is_arrayIT_E5valueES5_E4typeEEDpOT0_, symObjAddr: 0x1AB1, symBinAddr: 0x100016061, symSize: 0x29 }
  - { offsetInCU: 0x1631A, offset: 0x7F9CE, size: 0x8, addend: 0x0, symName: __ZNSt10_HashtableIN6tinyrv6OpcodeESt4pairIKS1_NS0_8InstTypeEESaIS5_ENSt8__detail10_Select1stESt8equal_toIS1_ESt4hashIS1_ENS7_18_Mod_range_hashingENS7_20_Default_ranged_hashENS7_20_Prime_rehash_policyENS7_17_Hashtable_traitsILb0ELb0ELb1EEEED1Ev, symObjAddr: 0x1A7E, symBinAddr: 0x10001602E, symSize: 0x33 }
  - { offsetInCU: 0x16322, offset: 0x7F9D6, size: 0x8, addend: 0x0, symName: __ZSt11make_sharedIN6tinyrv5InstrEJEESt10shared_ptrINSt9enable_ifIXntsrSt8is_arrayIT_E5valueES5_E4typeEEDpOT0_, symObjAddr: 0x1AB1, symBinAddr: 0x100016061, symSize: 0x29 }
  - { offsetInCU: 0x162E8, offset: 0x7F99C, size: 0x8, addend: 0x0, symName: __ZNSt8__detail16_Hashtable_allocISaINS_10_Hash_nodeISt4pairIKN6tinyrv6OpcodeENS3_8InstTypeEELb0EEEEED2Ev, symObjAddr: 0x1A62, symBinAddr: 0x100016012, symSize: 0x1C }
  - { offsetInCU: 0x1634E, offset: 0x7FA02, size: 0x8, addend: 0x0, symName: __ZNSt8__detail21_Hashtable_ebo_helperILi0ESaINS_10_Hash_nodeISt4pairIKN6tinyrv6OpcodeENS3_8InstTypeEELb0EEEELb1EED2Ev, symObjAddr: 0x1A3E, symBinAddr: 0x100015FEE, symSize: 0x24 }
  - { offsetInCU: 0x16356, offset: 0x7FA0A, size: 0x8, addend: 0x0, symName: __ZNSt8__detail16_Hashtable_allocISaINS_10_Hash_nodeISt4pairIKN6tinyrv6OpcodeENS3_8InstTypeEELb0EEEEED2Ev, symObjAddr: 0x1A62, symBinAddr: 0x100016012, symSize: 0x1C }
  - { offsetInCU: 0x16426, offset: 0x7FADA, size: 0x8, addend: 0x0, symName: __ZNSt13unordered_mapIN6tinyrv6OpcodeENS0_8InstTypeESt4hashIS1_ESt8equal_toIS1_ESaISt4pairIKS1_S2_EEEC1ESt16initializer_listIS9_EmRKS4_RKS6_RKSA_, symObjAddr: 0x19E0, symBinAddr: 0x100015F90, symSize: 0x5E }
  - { offsetInCU: 0x1643F, offset: 0x7FAF3, size: 0x8, addend: 0x0, symName: __ZNSt16_Sp_counted_baseILN9__gnu_cxx12_Lock_policyE2EE10_M_destroyEv, symObjAddr: 0x18E4, symBinAddr: 0x100015F60, symSize: 0x2E }
  - { offsetInCU: 0x1648F, offset: 0x7FB43, size: 0x8, addend: 0x0, symName: __ZNK6tinyrv8Emulator6decodeEj, symObjAddr: 0x10E2, symBinAddr: 0x10001575E, symSize: 0x802 }
  - { offsetInCU: 0x1674B, offset: 0x7FDFF, size: 0x8, addend: 0x0, symName: __ZN6tinyrvlsERSoRKNS_5InstrE, symObjAddr: 0xDE7, symBinAddr: 0x10001549F, symSize: 0x2BF }
  - { offsetInCU: 0x167BB, offset: 0x7FE6F, size: 0x8, addend: 0x0, symName: __ZN6tinyrvL9op_stringERKNS_5InstrE, symObjAddr: 0x6FF, symBinAddr: 0x100014DB7, symSize: 0x6E8 }
  - { offsetInCU: 0x167C3, offset: 0x7FE77, size: 0x8, addend: 0x0, symName: __ZN6tinyrvlsERSoRKNS_5InstrE, symObjAddr: 0xDE7, symBinAddr: 0x10001549F, symSize: 0x2BF }
  - { offsetInCU: 0x168C6, offset: 0x7FF7A, size: 0x8, addend: 0x0, symName: __ZNSt13unordered_mapIN6tinyrv6OpcodeENS0_8InstTypeESt4hashIS1_ESt8equal_toIS1_ESaISt4pairIKS1_S2_EEED1Ev, symObjAddr: 0x6E4, symBinAddr: 0x100014D9C, symSize: 0x1B }
  - { offsetInCU: 0x168CE, offset: 0x7FF82, size: 0x8, addend: 0x0, symName: __ZN6tinyrvL9op_stringERKNS_5InstrE, symObjAddr: 0x6FF, symBinAddr: 0x100014DB7, symSize: 0x6E8 }
  - { offsetInCU: 0x1688B, offset: 0x7FF3F, size: 0x8, addend: 0x0, symName: __ZNK6tinyrv5Instr6hasImmEv, symObjAddr: 0x6C0, symBinAddr: 0x100014D88, symSize: 0x12 }
  - { offsetInCU: 0x168BA, offset: 0x7FF6E, size: 0x8, addend: 0x0, symName: __ZNK6tinyrv5Instr9getRDTypeEv, symObjAddr: 0x6AE, symBinAddr: 0x100014D76, symSize: 0x12 }
  - { offsetInCU: 0x168E9, offset: 0x7FF9D, size: 0x8, addend: 0x0, symName: __ZNK6tinyrv5Instr8getRDestEv, symObjAddr: 0x69C, symBinAddr: 0x100014D64, symSize: 0x12 }
  - { offsetInCU: 0x16918, offset: 0x7FFCC, size: 0x8, addend: 0x0, symName: __ZNK6tinyrv5Instr9getRSTypeEj, symObjAddr: 0x680, symBinAddr: 0x100014D48, symSize: 0x1C }
  - { offsetInCU: 0x16920, offset: 0x7FFD4, size: 0x8, addend: 0x0, symName: __ZNK6tinyrv5Instr8getRDestEv, symObjAddr: 0x69C, symBinAddr: 0x100014D64, symSize: 0x12 }
  - { offsetInCU: 0x1695A, offset: 0x8000E, size: 0x8, addend: 0x0, symName: __ZNK6tinyrv5Instr7getRSrcEj, symObjAddr: 0x664, symBinAddr: 0x100014D2C, symSize: 0x1C }
  - { offsetInCU: 0x16962, offset: 0x80016, size: 0x8, addend: 0x0, symName: __ZNK6tinyrv5Instr9getRSTypeEj, symObjAddr: 0x680, symBinAddr: 0x100014D48, symSize: 0x1C }
  - { offsetInCU: 0x1699C, offset: 0x80050, size: 0x8, addend: 0x0, symName: __ZNK6tinyrv5Instr8getNRSrcEv, symObjAddr: 0x652, symBinAddr: 0x100014D1A, symSize: 0x12 }
  - { offsetInCU: 0x169CB, offset: 0x8007F, size: 0x8, addend: 0x0, symName: __ZNK6tinyrv5Instr8getFunc7Ev, symObjAddr: 0x640, symBinAddr: 0x100014D08, symSize: 0x12 }
  - { offsetInCU: 0x169FA, offset: 0x800AE, size: 0x8, addend: 0x0, symName: __ZNK6tinyrv5Instr8getFunc3Ev, symObjAddr: 0x62E, symBinAddr: 0x100014CF6, symSize: 0x12 }
  - { offsetInCU: 0x16A29, offset: 0x800DD, size: 0x8, addend: 0x0, symName: __ZNK6tinyrv5Instr9getOpcodeEv, symObjAddr: 0x61E, symBinAddr: 0x100014CE6, symSize: 0x10 }
  - { offsetInCU: 0x16A31, offset: 0x800E5, size: 0x8, addend: 0x0, symName: __ZNK6tinyrv5Instr8getFunc3Ev, symObjAddr: 0x62E, symBinAddr: 0x100014CF6, symSize: 0x12 }
  - { offsetInCU: 0x16A58, offset: 0x8010C, size: 0x8, addend: 0x0, symName: __ZN6tinyrv5Instr6setImmEj, symObjAddr: 0x5FE, symBinAddr: 0x100014CC6, symSize: 0x20 }
  - { offsetInCU: 0x16A60, offset: 0x80114, size: 0x8, addend: 0x0, symName: __ZNK6tinyrv5Instr9getOpcodeEv, symObjAddr: 0x61E, symBinAddr: 0x100014CE6, symSize: 0x10 }
  - { offsetInCU: 0x16A9A, offset: 0x8014E, size: 0x8, addend: 0x0, symName: __ZN6tinyrv5Instr8setFunc7Ej, symObjAddr: 0x5E6, symBinAddr: 0x100014CAE, symSize: 0x18 }
  - { offsetInCU: 0x16AA2, offset: 0x80156, size: 0x8, addend: 0x0, symName: __ZN6tinyrv5Instr6setImmEj, symObjAddr: 0x5FE, symBinAddr: 0x100014CC6, symSize: 0x20 }
  - { offsetInCU: 0x16ADC, offset: 0x80190, size: 0x8, addend: 0x0, symName: __ZN6tinyrv5Instr8setFunc3Ej, symObjAddr: 0x5CE, symBinAddr: 0x100014C96, symSize: 0x18 }
  - { offsetInCU: 0x16AE4, offset: 0x80198, size: 0x8, addend: 0x0, symName: __ZN6tinyrv5Instr8setFunc7Ej, symObjAddr: 0x5E6, symBinAddr: 0x100014CAE, symSize: 0x18 }
  - { offsetInCU: 0x16B1E, offset: 0x801D2, size: 0x8, addend: 0x0, symName: __ZN6tinyrv5Instr9addSrcRegEjNS_7RegTypeE, symObjAddr: 0x57C, symBinAddr: 0x100014C44, symSize: 0x52 }
  - { offsetInCU: 0x16B26, offset: 0x801DA, size: 0x8, addend: 0x0, symName: __ZN6tinyrv5Instr8setFunc3Ej, symObjAddr: 0x5CE, symBinAddr: 0x100014C96, symSize: 0x18 }
  - { offsetInCU: 0x16B73, offset: 0x80227, size: 0x8, addend: 0x0, symName: __ZN6tinyrv5Instr10setDestRegEjNS_7RegTypeE, symObjAddr: 0x556, symBinAddr: 0x100014C1E, symSize: 0x26 }
  - { offsetInCU: 0x16BC8, offset: 0x8027C, size: 0x8, addend: 0x0, symName: __ZN6tinyrv5Instr9setOpcodeENS_6OpcodeE, symObjAddr: 0x53E, symBinAddr: 0x100014C06, symSize: 0x18 }
  - { offsetInCU: 0x16C4C, offset: 0x80300, size: 0x8, addend: 0x0, symName: __ZN6tinyrv5InstrC1Ev, symObjAddr: 0x4A4, symBinAddr: 0x100014B6C, symSize: 0x9A }
  - { offsetInCU: 0x16CCA, offset: 0x8037E, size: 0x8, addend: 0x0, symName: __ZN6tinyrvlsERSoRKNS_7RegTypeE, symObjAddr: 0x41B, symBinAddr: 0x100014AE3, symSize: 0x89 }
  - { offsetInCU: 0x16D31, offset: 0x803E5, size: 0x8, addend: 0x0, symName: __ZNSt16_Sp_counted_baseILN9__gnu_cxx12_Lock_policyE2EE10_M_releaseEv, symObjAddr: 0x2E4, symBinAddr: 0x1000149B8, symSize: 0x12A }
  - { offsetInCU: 0x16ECB, offset: 0x8057F, size: 0x8, addend: 0x0, symName: __ZNSt8__detail20_Prime_rehash_policy8_M_resetEm, symObjAddr: 0x2C8, symBinAddr: 0x10001499C, symSize: 0x1C }
  - { offsetInCU: 0x16F61, offset: 0x80615, size: 0x8, addend: 0x0, symName: __ZNSt8__detail20_Prime_rehash_policyC1Ef, symObjAddr: 0x28C, symBinAddr: 0x100014970, symSize: 0x2A }
  - { offsetInCU: 0x16FAF, offset: 0x80663, size: 0x8, addend: 0x0, symName: __ZNSt8__detail15_Hash_node_baseC1Ev, symObjAddr: 0x254, symBinAddr: 0x100014958, symSize: 0x16 }
  - { offsetInCU: 0x16FCC, offset: 0x80680, size: 0x8, addend: 0x0, symName: __ZNSt8ios_base4setfESt13_Ios_FmtflagsS0_, symObjAddr: 0x18C, symBinAddr: 0x1000148F4, symSize: 0x62 }
  - { offsetInCU: 0x1705D, offset: 0x80711, size: 0x8, addend: 0x0, symName: __ZStcoSt13_Ios_Fmtflags, symObjAddr: 0x124, symBinAddr: 0x1000148E4, symSize: 0xE }
  - { offsetInCU: 0x1709C, offset: 0x80750, size: 0x8, addend: 0x0, symName: __ZStanSt13_Ios_FmtflagsS_, symObjAddr: 0x100, symBinAddr: 0x1000148D0, symSize: 0x12 }
  - { offsetInCU: 0x170C4, offset: 0x80778, size: 0x8, addend: 0x0, symName: __ZNKSt4hashIiEclEi, symObjAddr: 0xEE, symBinAddr: 0x1000148BE, symSize: 0x12 }
  - { offsetInCU: 0x170CC, offset: 0x80780, size: 0x8, addend: 0x0, symName: __ZStanSt13_Ios_FmtflagsS_, symObjAddr: 0x100, symBinAddr: 0x1000148D0, symSize: 0x12 }
  - { offsetInCU: 0x171FF, offset: 0x808B3, size: 0x8, addend: 0x0, symName: __ZL18__gthread_active_pv, symObjAddr: 0xE3, symBinAddr: 0x1000148B3, symSize: 0xB }
  - { offsetInCU: 0x17207, offset: 0x808BB, size: 0x8, addend: 0x0, symName: __ZNKSt4hashIiEclEi, symObjAddr: 0xEE, symBinAddr: 0x1000148BE, symSize: 0x12 }
  - { offsetInCU: 0x1721B, offset: 0x808CF, size: 0x8, addend: 0x0, symName: __ZdlPvS_, symObjAddr: 0xD4, symBinAddr: 0x1000148A4, symSize: 0xF }
  - { offsetInCU: 0x17223, offset: 0x808D7, size: 0x8, addend: 0x0, symName: __ZL18__gthread_active_pv, symObjAddr: 0xE3, symBinAddr: 0x1000148B3, symSize: 0xB }
  - { offsetInCU: 0x17247, offset: 0x808FB, size: 0x8, addend: 0x0, symName: __ZNKSt9type_infoeqERKS_, symObjAddr: 0x3C, symBinAddr: 0x10001481C, symSize: 0x86 }
  - { offsetInCU: 0x17289, offset: 0x8093D, size: 0x8, addend: 0x0, symName: __ZNKSt9type_info4nameEv, symObjAddr: 0xC, symBinAddr: 0x1000147EC, symSize: 0x30 }
  - { offsetInCU: 0x172F5, offset: 0x809A9, size: 0x8, addend: 0x0, symName: __ZSt23__is_constant_evaluatedv, symObjAddr: 0x0, symBinAddr: 0x1000147E0, symSize: 0xC }
  - { offsetInCU: 0x14C4, offset: 0x81E65, size: 0x8, addend: 0x0, symName: __ZStL19piecewise_construct, symObjAddr: 0x2280, symBinAddr: 0x10002E7A0, symSize: 0x0 }
  - { offsetInCU: 0x262D, offset: 0x82FCE, size: 0x8, addend: 0x0, symName: __ZStL8__ioinit, symObjAddr: 0x537E0, symBinAddr: 0x100059038, symSize: 0x0 }
  - { offsetInCU: 0x466D, offset: 0x8500E, size: 0x8, addend: 0x0, symName: __ZStL13allocator_arg, symObjAddr: 0x2281, symBinAddr: 0x10002E7A1, symSize: 0x0 }
  - { offsetInCU: 0x468A, offset: 0x8502B, size: 0x8, addend: 0x0, symName: __ZStL6ignore, symObjAddr: 0x2282, symBinAddr: 0x10002E7A2, symSize: 0x0 }
  - { offsetInCU: 0x48EA, offset: 0x8528B, size: 0x8, addend: 0x0, symName: __ZN9__gnu_cxxL21__default_lock_policyE, symObjAddr: 0x2284, symBinAddr: 0x10002E7A4, symSize: 0x0 }
  - { offsetInCU: 0xEA02, offset: 0x8F3A3, size: 0x8, addend: 0x0, symName: __GLOBAL__sub_I_execute.cpp, symObjAddr: 0x2274, symBinAddr: 0x10001A5B4, symSize: 0xB }
  - { offsetInCU: 0xEA4E, offset: 0x8F3EF, size: 0x8, addend: 0x0, symName: __ZSt8_DestroyIN6tinyrv12LsuTraceDataEEvPT_, symObjAddr: 0x2252, symBinAddr: 0x10001A592, symSize: 0x22 }
  - { offsetInCU: 0xEA56, offset: 0x8F3F7, size: 0x8, addend: 0x0, symName: __GLOBAL__sub_I_execute.cpp, symObjAddr: 0x2274, symBinAddr: 0x10001A5B4, symSize: 0xB }
  - { offsetInCU: 0xEA77, offset: 0x8F418, size: 0x8, addend: 0x0, symName: __ZNSt23_Sp_counted_ptr_inplaceIN6tinyrv12LsuTraceDataESaIvELN9__gnu_cxx12_Lock_policyE2EE5_Impl8_M_allocEv, symObjAddr: 0x222A, symBinAddr: 0x10001A576, symSize: 0x1A }
  - { offsetInCU: 0xEAAB, offset: 0x8F44C, size: 0x8, addend: 0x0, symName: __ZNSt23_Sp_counted_ptr_inplaceIN6tinyrv12LsuTraceDataESaIvELN9__gnu_cxx12_Lock_policyE2EE14_M_get_deleterERKSt9type_info, symObjAddr: 0x21C8, symBinAddr: 0x10001A514, symSize: 0x62 }
  - { offsetInCU: 0xEAB3, offset: 0x8F454, size: 0x8, addend: 0x0, symName: __ZNSt23_Sp_counted_ptr_inplaceIN6tinyrv12LsuTraceDataESaIvELN9__gnu_cxx12_Lock_policyE2EE5_Impl8_M_allocEv, symObjAddr: 0x222A, symBinAddr: 0x10001A576, symSize: 0x1A }
  - { offsetInCU: 0xEB05, offset: 0x8F4A6, size: 0x8, addend: 0x0, symName: __ZNSt23_Sp_counted_ptr_inplaceIN6tinyrv12LsuTraceDataESaIvELN9__gnu_cxx12_Lock_policyE2EE10_M_destroyEv, symObjAddr: 0x215E, symBinAddr: 0x10001A4AA, symSize: 0x6A }
  - { offsetInCU: 0xEBD5, offset: 0x8F576, size: 0x8, addend: 0x0, symName: __ZNSt23_Sp_counted_ptr_inplaceIN6tinyrv12LsuTraceDataESaIvELN9__gnu_cxx12_Lock_policyE2EE10_M_disposeEv, symObjAddr: 0x2116, symBinAddr: 0x10001A462, symSize: 0x48 }
  - { offsetInCU: 0xEBDD, offset: 0x8F57E, size: 0x8, addend: 0x0, symName: __ZNSt23_Sp_counted_ptr_inplaceIN6tinyrv12LsuTraceDataESaIvELN9__gnu_cxx12_Lock_policyE2EE10_M_destroyEv, symObjAddr: 0x215E, symBinAddr: 0x10001A4AA, symSize: 0x6A }
  - { offsetInCU: 0xECBB, offset: 0x8F65C, size: 0x8, addend: 0x0, symName: __ZNSt23_Sp_counted_ptr_inplaceIN6tinyrv12LsuTraceDataESaIvELN9__gnu_cxx12_Lock_policyE2EED0Ev, symObjAddr: 0x20F0, symBinAddr: 0x10001A43C, symSize: 0x26 }
  - { offsetInCU: 0xECC3, offset: 0x8F664, size: 0x8, addend: 0x0, symName: __ZNSt23_Sp_counted_ptr_inplaceIN6tinyrv12LsuTraceDataESaIvELN9__gnu_cxx12_Lock_policyE2EE10_M_disposeEv, symObjAddr: 0x2116, symBinAddr: 0x10001A462, symSize: 0x48 }
  - { offsetInCU: 0xECE9, offset: 0x8F68A, size: 0x8, addend: 0x0, symName: __ZNSt23_Sp_counted_ptr_inplaceIN6tinyrv12LsuTraceDataESaIvELN9__gnu_cxx12_Lock_policyE2EED1Ev, symObjAddr: 0x20C2, symBinAddr: 0x10001A40E, symSize: 0x2E }
  - { offsetInCU: 0xECE1, offset: 0x8F682, size: 0x8, addend: 0x0, symName: __Z41__static_initialization_and_destruction_0v, symObjAddr: 0x2088, symBinAddr: 0x10001A3D4, symSize: 0x3A }
  - { offsetInCU: 0xED1B, offset: 0x8F6BC, size: 0x8, addend: 0x0, symName: __ZN6tinyrv12LsuTraceDataD0Ev, symObjAddr: 0x2062, symBinAddr: 0x10001A3AE, symSize: 0x26 }
  - { offsetInCU: 0xED23, offset: 0x8F6C4, size: 0x8, addend: 0x0, symName: __Z41__static_initialization_and_destruction_0v, symObjAddr: 0x2088, symBinAddr: 0x10001A3D4, symSize: 0x3A }
  - { offsetInCU: 0xED49, offset: 0x8F6EA, size: 0x8, addend: 0x0, symName: __ZN6tinyrv12LsuTraceDataD1Ev, symObjAddr: 0x2034, symBinAddr: 0x10001A380, symSize: 0x2E }
  - { offsetInCU: 0xED78, offset: 0x8F719, size: 0x8, addend: 0x0, symName: __ZN9__gnu_cxx16__aligned_bufferIN6tinyrv12LsuTraceDataEE7_M_addrEv, symObjAddr: 0x2026, symBinAddr: 0x10001A372, symSize: 0xE }
  - { offsetInCU: 0xED80, offset: 0x8F721, size: 0x8, addend: 0x0, symName: __ZN6tinyrv12LsuTraceDataD1Ev, symObjAddr: 0x2034, symBinAddr: 0x10001A380, symSize: 0x2E }
  - { offsetInCU: 0xEE02, offset: 0x8F7A3, size: 0x8, addend: 0x0, symName: __ZSt10_ConstructIN6tinyrv12LsuTraceDataEJEEvPT_DpOT0_, symObjAddr: 0x1FE7, symBinAddr: 0x10001A333, symSize: 0x3F }
  - { offsetInCU: 0xEE2F, offset: 0x8F7D0, size: 0x8, addend: 0x0, symName: __ZN6tinyrv12LsuTraceDataC1Ev, symObjAddr: 0x1FBA, symBinAddr: 0x10001A306, symSize: 0x2D }
  - { offsetInCU: 0xEE37, offset: 0x8F7D8, size: 0x8, addend: 0x0, symName: __ZSt10_ConstructIN6tinyrv12LsuTraceDataEJEEvPT_DpOT0_, symObjAddr: 0x1FE7, symBinAddr: 0x10001A333, symSize: 0x3F }
  - { offsetInCU: 0xEE40, offset: 0x8F7E1, size: 0x8, addend: 0x0, symName: __ZNSt15__new_allocatorISt23_Sp_counted_ptr_inplaceIN6tinyrv12LsuTraceDataESaIvELN9__gnu_cxx12_Lock_policyE2EEE10deallocateEPS6_m, symObjAddr: 0x1F86, symBinAddr: 0x10001A2E2, symSize: 0x24 }
  - { offsetInCU: 0xEF92, offset: 0x8F933, size: 0x8, addend: 0x0, symName: __ZSt11__addressofISaISt23_Sp_counted_ptr_inplaceIN6tinyrv12LsuTraceDataESaIvELN9__gnu_cxx12_Lock_policyE2EEEEPT_RS8_, symObjAddr: 0x1F78, symBinAddr: 0x10001A2D4, symSize: 0xE }
  - { offsetInCU: 0xEF9A, offset: 0x8F93B, size: 0x8, addend: 0x0, symName: __ZNSt15__new_allocatorISt23_Sp_counted_ptr_inplaceIN6tinyrv12LsuTraceDataESaIvELN9__gnu_cxx12_Lock_policyE2EEE10deallocateEPS6_m, symObjAddr: 0x1F86, symBinAddr: 0x10001A2E2, symSize: 0x24 }
  - { offsetInCU: 0xEEDF, offset: 0x8F880, size: 0x8, addend: 0x0, symName: __ZNSt15__new_allocatorISt23_Sp_counted_ptr_inplaceIN6tinyrv12LsuTraceDataESaIvELN9__gnu_cxx12_Lock_policyE2EEE8allocateEmPKv, symObjAddr: 0x1F08, symBinAddr: 0x10001A264, symSize: 0x70 }
  - { offsetInCU: 0xEEE7, offset: 0x8F888, size: 0x8, addend: 0x0, symName: __ZSt11__addressofISaISt23_Sp_counted_ptr_inplaceIN6tinyrv12LsuTraceDataESaIvELN9__gnu_cxx12_Lock_policyE2EEEEPT_RS8_, symObjAddr: 0x1F78, symBinAddr: 0x10001A2D4, symSize: 0xE }
  - { offsetInCU: 0xEF53, offset: 0x8F8F4, size: 0x8, addend: 0x0, symName: __ZN9__gnu_cxx16__aligned_bufferIN6tinyrv12LsuTraceDataEE6_M_ptrEv, symObjAddr: 0x1EEE, symBinAddr: 0x10001A24A, symSize: 0x1A }
  - { offsetInCU: 0xEF5B, offset: 0x8F8FC, size: 0x8, addend: 0x0, symName: __ZNSt15__new_allocatorISt23_Sp_counted_ptr_inplaceIN6tinyrv12LsuTraceDataESaIvELN9__gnu_cxx12_Lock_policyE2EEE8allocateEmPKv, symObjAddr: 0x1F08, symBinAddr: 0x10001A264, symSize: 0x70 }
  - { offsetInCU: 0xF04F, offset: 0x8F9F0, size: 0x8, addend: 0x0, symName: __ZNSt23_Sp_counted_ptr_inplaceIN6tinyrv12LsuTraceDataESaIvELN9__gnu_cxx12_Lock_policyE2EE5_ImplC1ES2_, symObjAddr: 0x1ECC, symBinAddr: 0x10001A228, symSize: 0x22 }
  - { offsetInCU: 0xF057, offset: 0x8F9F8, size: 0x8, addend: 0x0, symName: __ZN9__gnu_cxx16__aligned_bufferIN6tinyrv12LsuTraceDataEE6_M_ptrEv, symObjAddr: 0x1EEE, symBinAddr: 0x10001A24A, symSize: 0x1A }
  - { offsetInCU: 0xF077, offset: 0x8FA18, size: 0x8, addend: 0x0, symName: __ZNSt16_Sp_counted_baseILN9__gnu_cxx12_Lock_policyE2EEC2Ev, symObjAddr: 0x1E98, symBinAddr: 0x10001A1F4, symSize: 0x34 }
  - { offsetInCU: 0xF153, offset: 0x8FAF4, size: 0x8, addend: 0x0, symName: __ZSt12__to_addressISt23_Sp_counted_ptr_inplaceIN6tinyrv12LsuTraceDataESaIvELN9__gnu_cxx12_Lock_policyE2EEEPT_S8_, symObjAddr: 0x1E8A, symBinAddr: 0x10001A1E6, symSize: 0xE }
  - { offsetInCU: 0xF15B, offset: 0x8FAFC, size: 0x8, addend: 0x0, symName: __ZNSt16_Sp_counted_baseILN9__gnu_cxx12_Lock_policyE2EEC2Ev, symObjAddr: 0x1E98, symBinAddr: 0x10001A1F4, symSize: 0x34 }
  - { offsetInCU: 0xF1A9, offset: 0x8FB4A, size: 0x8, addend: 0x0, symName: __ZNSt15__allocated_ptrISaISt23_Sp_counted_ptr_inplaceIN6tinyrv12LsuTraceDataESaIvELN9__gnu_cxx12_Lock_policyE2EEEEC1ERS7_PS6_, symObjAddr: 0x1E54, symBinAddr: 0x10001A1B0, symSize: 0x36 }
  - { offsetInCU: 0xF1B1, offset: 0x8FB52, size: 0x8, addend: 0x0, symName: __ZSt12__to_addressISt23_Sp_counted_ptr_inplaceIN6tinyrv12LsuTraceDataESaIvELN9__gnu_cxx12_Lock_policyE2EEEPT_S8_, symObjAddr: 0x1E8A, symBinAddr: 0x10001A1E6, symSize: 0xE }
  - { offsetInCU: 0xF238, offset: 0x8FBD9, size: 0x8, addend: 0x0, symName: __ZNSt15__new_allocatorISt23_Sp_counted_ptr_inplaceIN6tinyrv12LsuTraceDataESaIvELN9__gnu_cxx12_Lock_policyE2EEED2Ev, symObjAddr: 0x1E48, symBinAddr: 0x10001A1A4, symSize: 0xC }
  - { offsetInCU: 0xF20C, offset: 0x8FBAD, size: 0x8, addend: 0x0, symName: __ZNSt23_Sp_counted_ptr_inplaceIN6tinyrv12LsuTraceDataESaIvELN9__gnu_cxx12_Lock_policyE2EE6_M_ptrEv, symObjAddr: 0x1E2A, symBinAddr: 0x10001A186, symSize: 0x1E }
  - { offsetInCU: 0xF214, offset: 0x8FBB5, size: 0x8, addend: 0x0, symName: __ZNSt15__new_allocatorISt23_Sp_counted_ptr_inplaceIN6tinyrv12LsuTraceDataESaIvELN9__gnu_cxx12_Lock_policyE2EEED2Ev, symObjAddr: 0x1E48, symBinAddr: 0x10001A1A4, symSize: 0xC }
  - { offsetInCU: 0xF23B, offset: 0x8FBDC, size: 0x8, addend: 0x0, symName: __ZNSt15__allocated_ptrISaISt23_Sp_counted_ptr_inplaceIN6tinyrv12LsuTraceDataESaIvELN9__gnu_cxx12_Lock_policyE2EEEEaSEDn, symObjAddr: 0x1E0C, symBinAddr: 0x10001A168, symSize: 0x1E }
  - { offsetInCU: 0xF243, offset: 0x8FBE4, size: 0x8, addend: 0x0, symName: __ZNSt23_Sp_counted_ptr_inplaceIN6tinyrv12LsuTraceDataESaIvELN9__gnu_cxx12_Lock_policyE2EE6_M_ptrEv, symObjAddr: 0x1E2A, symBinAddr: 0x10001A186, symSize: 0x1E }
  - { offsetInCU: 0xF314, offset: 0x8FCB5, size: 0x8, addend: 0x0, symName: __ZNSt23_Sp_counted_ptr_inplaceIN6tinyrv12LsuTraceDataESaIvELN9__gnu_cxx12_Lock_policyE2EEC1IJEEES2_DpOT_, symObjAddr: 0x1DB2, symBinAddr: 0x10001A10E, symSize: 0x5A }
  - { offsetInCU: 0xF31C, offset: 0x8FCBD, size: 0x8, addend: 0x0, symName: __ZNSt15__allocated_ptrISaISt23_Sp_counted_ptr_inplaceIN6tinyrv12LsuTraceDataESaIvELN9__gnu_cxx12_Lock_policyE2EEEEaSEDn, symObjAddr: 0x1E0C, symBinAddr: 0x10001A168, symSize: 0x1E }
  - { offsetInCU: 0xF31F, offset: 0x8FCC0, size: 0x8, addend: 0x0, symName: __ZNSt15__allocated_ptrISaISt23_Sp_counted_ptr_inplaceIN6tinyrv12LsuTraceDataESaIvELN9__gnu_cxx12_Lock_policyE2EEEE3getEv, symObjAddr: 0x1D94, symBinAddr: 0x10001A0F0, symSize: 0x1E }
  - { offsetInCU: 0xF327, offset: 0x8FCC8, size: 0x8, addend: 0x0, symName: __ZNSt23_Sp_counted_ptr_inplaceIN6tinyrv12LsuTraceDataESaIvELN9__gnu_cxx12_Lock_policyE2EEC1IJEEES2_DpOT_, symObjAddr: 0x1DB2, symBinAddr: 0x10001A10E, symSize: 0x5A }
  - { offsetInCU: 0xF3EC, offset: 0x8FD8D, size: 0x8, addend: 0x0, symName: __ZNSt15__allocated_ptrISaISt23_Sp_counted_ptr_inplaceIN6tinyrv12LsuTraceDataESaIvELN9__gnu_cxx12_Lock_policyE2EEEED1Ev, symObjAddr: 0x1D40, symBinAddr: 0x10001A09C, symSize: 0x54 }
  - { offsetInCU: 0xF500, offset: 0x8FEA1, size: 0x8, addend: 0x0, symName: __ZSt18__allocate_guardedISaISt23_Sp_counted_ptr_inplaceIN6tinyrv12LsuTraceDataESaIvELN9__gnu_cxx12_Lock_policyE2EEEESt15__allocated_ptrIT_ERS9_, symObjAddr: 0x1CEB, symBinAddr: 0x10001A047, symSize: 0x55 }
  - { offsetInCU: 0xF508, offset: 0x8FEA9, size: 0x8, addend: 0x0, symName: __ZNSt15__allocated_ptrISaISt23_Sp_counted_ptr_inplaceIN6tinyrv12LsuTraceDataESaIvELN9__gnu_cxx12_Lock_policyE2EEEED1Ev, symObjAddr: 0x1D40, symBinAddr: 0x10001A09C, symSize: 0x54 }
  - { offsetInCU: 0xF4AC, offset: 0x8FE4D, size: 0x8, addend: 0x0, symName: __ZNSt12__shared_ptrIN6tinyrv12LsuTraceDataELN9__gnu_cxx12_Lock_policyE2EE31_M_enable_shared_from_this_withIS1_S1_EENSt9enable_ifIXntsrNS4_15__has_esft_baseIT0_vEE5valueEvE4typeEPT_, symObjAddr: 0x1CDC, symBinAddr: 0x10001A038, symSize: 0xF }
  - { offsetInCU: 0xF4B4, offset: 0x8FE55, size: 0x8, addend: 0x0, symName: __ZSt18__allocate_guardedISaISt23_Sp_counted_ptr_inplaceIN6tinyrv12LsuTraceDataESaIvELN9__gnu_cxx12_Lock_policyE2EEEESt15__allocated_ptrIT_ERS9_, symObjAddr: 0x1CEB, symBinAddr: 0x10001A047, symSize: 0x55 }
  - { offsetInCU: 0xF651, offset: 0x8FFF2, size: 0x8, addend: 0x0, symName: __ZNSt14__shared_countILN9__gnu_cxx12_Lock_policyE2EEC1IN6tinyrv12LsuTraceDataESaIvEJEEERPT_St20_Sp_alloc_shared_tagIT0_EDpOT1_, symObjAddr: 0x1BD0, symBinAddr: 0x100019F2C, symSize: 0x10C }
  - { offsetInCU: 0xF659, offset: 0x8FFFA, size: 0x8, addend: 0x0, symName: __ZNSt12__shared_ptrIN6tinyrv12LsuTraceDataELN9__gnu_cxx12_Lock_policyE2EE31_M_enable_shared_from_this_withIS1_S1_EENSt9enable_ifIXntsrNS4_15__has_esft_baseIT0_vEE5valueEvE4typeEPT_, symObjAddr: 0x1CDC, symBinAddr: 0x10001A038, symSize: 0xF }
  - { offsetInCU: 0xF761, offset: 0x90102, size: 0x8, addend: 0x0, symName: __ZNKSt12__shared_ptrIN6tinyrv12LsuTraceDataELN9__gnu_cxx12_Lock_policyE2EE3getEv, symObjAddr: 0x1BBE, symBinAddr: 0x100019F1A, symSize: 0x12 }
  - { offsetInCU: 0xF790, offset: 0x90131, size: 0x8, addend: 0x0, symName: __ZNSt14__shared_countILN9__gnu_cxx12_Lock_policyE2EEaSERKS2_, symObjAddr: 0x1B56, symBinAddr: 0x100019EB2, symSize: 0x68 }
  - { offsetInCU: 0xF8A1, offset: 0x90242, size: 0x8, addend: 0x0, symName: __ZNSt12__shared_ptrIN6tinyrv12LsuTraceDataELN9__gnu_cxx12_Lock_policyE2EEC2ISaIvEJEEESt20_Sp_alloc_shared_tagIT_EDpOT0_, symObjAddr: 0x1B06, symBinAddr: 0x100019E62, symSize: 0x50 }
  - { offsetInCU: 0xF87B, offset: 0x9021C, size: 0x8, addend: 0x0, symName: __ZNKSt19__shared_ptr_accessIN6tinyrv12LsuTraceDataELN9__gnu_cxx12_Lock_policyE2ELb0ELb0EE6_M_getEv, symObjAddr: 0x1AEC, symBinAddr: 0x100019E48, symSize: 0x1A }
  - { offsetInCU: 0xF883, offset: 0x90224, size: 0x8, addend: 0x0, symName: __ZNSt12__shared_ptrIN6tinyrv12LsuTraceDataELN9__gnu_cxx12_Lock_policyE2EEC2ISaIvEJEEESt20_Sp_alloc_shared_tagIT_EDpOT0_, symObjAddr: 0x1B06, symBinAddr: 0x100019E62, symSize: 0x50 }
  - { offsetInCU: 0xF8AA, offset: 0x9024B, size: 0x8, addend: 0x0, symName: __ZNSt12__shared_ptrIN6tinyrv10ITraceDataELN9__gnu_cxx12_Lock_policyE2EEaSINS0_12LsuTraceDataEEENSt9enable_ifIXsrSt20__sp_compatible_withIPT_PS1_E5valueERS4_E4typeERKS_IS9_LS3_2EE, symObjAddr: 0x1AAC, symBinAddr: 0x100019E08, symSize: 0x40 }
  - { offsetInCU: 0xF995, offset: 0x90336, size: 0x8, addend: 0x0, symName: __ZNSt10shared_ptrIN6tinyrv12LsuTraceDataEEC1ISaIvEJEEESt20_Sp_alloc_shared_tagIT_EDpOT0_, symObjAddr: 0x1A86, symBinAddr: 0x100019DE2, symSize: 0x26 }
  - { offsetInCU: 0xF99D, offset: 0x9033E, size: 0x8, addend: 0x0, symName: __ZNSt12__shared_ptrIN6tinyrv10ITraceDataELN9__gnu_cxx12_Lock_policyE2EEaSINS0_12LsuTraceDataEEENSt9enable_ifIXsrSt20__sp_compatible_withIPT_PS1_E5valueERS4_E4typeERKS_IS9_LS3_2EE, symObjAddr: 0x1AAC, symBinAddr: 0x100019E08, symSize: 0x40 }
  - { offsetInCU: 0xF9F0, offset: 0x90391, size: 0x8, addend: 0x0, symName: __ZNSt16_Sp_counted_baseILN9__gnu_cxx12_Lock_policyE2EED2Ev, symObjAddr: 0x19FC, symBinAddr: 0x100019DC4, symSize: 0x1E }
  - { offsetInCU: 0xF9E3, offset: 0x90384, size: 0x8, addend: 0x0, symName: __ZNKSt19__shared_ptr_accessIN6tinyrv12LsuTraceDataELN9__gnu_cxx12_Lock_policyE2ELb0ELb0EEptEv, symObjAddr: 0x19E2, symBinAddr: 0x100019DAA, symSize: 0x1A }
  - { offsetInCU: 0xF9EB, offset: 0x9038C, size: 0x8, addend: 0x0, symName: __ZNSt16_Sp_counted_baseILN9__gnu_cxx12_Lock_policyE2EED2Ev, symObjAddr: 0x19FC, symBinAddr: 0x100019DC4, symSize: 0x1E }
  - { offsetInCU: 0xFA12, offset: 0x903B3, size: 0x8, addend: 0x0, symName: __ZNSt10shared_ptrIN6tinyrv10ITraceDataEEaSINS0_12LsuTraceDataEEENSt9enable_ifIXsrSt13is_assignableIRSt12__shared_ptrIS1_LN9__gnu_cxx12_Lock_policyE2EERKS_IT_EE5valueERS2_E4typeESF_, symObjAddr: 0x19B8, symBinAddr: 0x100019D80, symSize: 0x2A }
  - { offsetInCU: 0xFAFF, offset: 0x904A0, size: 0x8, addend: 0x0, symName: __ZSt11make_sharedIN6tinyrv12LsuTraceDataEJEESt10shared_ptrINSt9enable_ifIXntsrSt8is_arrayIT_E5valueES5_E4typeEEDpOT0_, symObjAddr: 0x1990, symBinAddr: 0x100019D58, symSize: 0x28 }
  - { offsetInCU: 0xFB07, offset: 0x904A8, size: 0x8, addend: 0x0, symName: __ZNSt10shared_ptrIN6tinyrv10ITraceDataEEaSINS0_12LsuTraceDataEEENSt9enable_ifIXsrSt13is_assignableIRSt12__shared_ptrIS1_LN9__gnu_cxx12_Lock_policyE2EERKS_IT_EE5valueERS2_E4typeESF_, symObjAddr: 0x19B8, symBinAddr: 0x100019D80, symSize: 0x2A }
  - { offsetInCU: 0xFACA, offset: 0x9046B, size: 0x8, addend: 0x0, symName: __ZNSt6vectorIjSaIjEEixEm, symObjAddr: 0x1970, symBinAddr: 0x100019D38, symSize: 0x20 }
  - { offsetInCU: 0xFAD2, offset: 0x90473, size: 0x8, addend: 0x0, symName: __ZSt11make_sharedIN6tinyrv12LsuTraceDataEJEESt10shared_ptrINSt9enable_ifIXntsrSt8is_arrayIT_E5valueES5_E4typeEEDpOT0_, symObjAddr: 0x1990, symBinAddr: 0x100019D58, symSize: 0x28 }
  - { offsetInCU: 0xFB37, offset: 0x904D8, size: 0x8, addend: 0x0, symName: __Z4sextIjET_RKS0_j, symObjAddr: 0x189C, symBinAddr: 0x100019C64, symSize: 0xD4 }
  - { offsetInCU: 0xFBB2, offset: 0x90553, size: 0x8, addend: 0x0, symName: __ZNSt16_Sp_counted_baseILN9__gnu_cxx12_Lock_policyE2EE19_M_release_last_useEv, symObjAddr: 0x17C0, symBinAddr: 0x100019BB0, symSize: 0xB2 }
  - { offsetInCU: 0xFC9F, offset: 0x90640, size: 0x8, addend: 0x0, symName: __ZNSt16_Sp_counted_baseILN9__gnu_cxx12_Lock_policyE2EE24_M_release_last_use_coldEv, symObjAddr: 0x17A4, symBinAddr: 0x100019B94, symSize: 0x1C }
  - { offsetInCU: 0xFCFB, offset: 0x9069C, size: 0x8, addend: 0x0, symName: __ZSt3maxIjERKT_S2_S2_, symObjAddr: 0x174E, symBinAddr: 0x100019B6A, symSize: 0x28 }
  - { offsetInCU: 0xFD32, offset: 0x906D3, size: 0x8, addend: 0x0, symName: __ZN6tinyrv8Emulator7executeERKNS_5InstrEPNS_16pipeline_trace_tE, symObjAddr: 0x5D2, symBinAddr: 0x1000189EE, symSize: 0x117C }
  - { offsetInCU: 0xFD3A, offset: 0x906DB, size: 0x8, addend: 0x0, symName: __ZSt3maxIjERKT_S2_S2_, symObjAddr: 0x174E, symBinAddr: 0x100019B6A, symSize: 0x28 }
  - { offsetInCU: 0x10144, offset: 0x90AE5, size: 0x8, addend: 0x0, symName: __ZNSt10shared_ptrIN6tinyrv12LsuTraceDataEED1Ev, symObjAddr: 0x5B6, symBinAddr: 0x1000189D2, symSize: 0x1C }
  - { offsetInCU: 0x101B8, offset: 0x90B59, size: 0x8, addend: 0x0, symName: __ZNSt12__shared_ptrIN6tinyrv12LsuTraceDataELN9__gnu_cxx12_Lock_policyE2EED2Ev, symObjAddr: 0x596, symBinAddr: 0x1000189B2, symSize: 0x20 }
  - { offsetInCU: 0x101DA, offset: 0x90B7B, size: 0x8, addend: 0x0, symName: __ZN6tinyrv10ITraceDataD0Ev, symObjAddr: 0x570, symBinAddr: 0x10001898C, symSize: 0x26 }
  - { offsetInCU: 0x101E2, offset: 0x90B83, size: 0x8, addend: 0x0, symName: __ZNSt12__shared_ptrIN6tinyrv12LsuTraceDataELN9__gnu_cxx12_Lock_policyE2EED2Ev, symObjAddr: 0x596, symBinAddr: 0x1000189B2, symSize: 0x20 }
  - { offsetInCU: 0x10208, offset: 0x90BA9, size: 0x8, addend: 0x0, symName: __ZN6tinyrv10ITraceDataD1Ev, symObjAddr: 0x552, symBinAddr: 0x10001896E, symSize: 0x1E }
  - { offsetInCU: 0x10236, offset: 0x90BD7, size: 0x8, addend: 0x0, symName: __ZN6tinyrv10ITraceDataD2Ev, symObjAddr: 0x534, symBinAddr: 0x100018950, symSize: 0x1E }
  - { offsetInCU: 0x1027D, offset: 0x90C1E, size: 0x8, addend: 0x0, symName: __ZN6tinyrv10ITraceDataC2Ev, symObjAddr: 0x516, symBinAddr: 0x100018932, symSize: 0x1E }
  - { offsetInCU: 0x10290, offset: 0x90C31, size: 0x8, addend: 0x0, symName: __ZNK6tinyrv5Instr6getImmEv, symObjAddr: 0x504, symBinAddr: 0x100018920, symSize: 0x12 }
  - { offsetInCU: 0x102BF, offset: 0x90C60, size: 0x8, addend: 0x0, symName: __ZNSt19_Sp_make_shared_tag5_S_tiEv, symObjAddr: 0x3CC, symBinAddr: 0x100018910, symSize: 0xD }
  - { offsetInCU: 0x10331, offset: 0x90CD2, size: 0x8, addend: 0x0, symName: __Z6log2upj, symObjAddr: 0x26C, symBinAddr: 0x1000188D8, symSize: 0x36 }
  - { offsetInCU: 0x10389, offset: 0x90D2A, size: 0x8, addend: 0x0, symName: __Z19count_leading_zerosj, symObjAddr: 0x22C, symBinAddr: 0x1000188B8, symSize: 0x1D }
  - { offsetInCU: 0x103B3, offset: 0x90D54, size: 0x8, addend: 0x0, symName: __ZSt3hexRSt8ios_base, symObjAddr: 0x204, symBinAddr: 0x100018890, symSize: 0x28 }
  - { offsetInCU: 0x103BB, offset: 0x90D5C, size: 0x8, addend: 0x0, symName: __Z19count_leading_zerosj, symObjAddr: 0x22C, symBinAddr: 0x1000188B8, symSize: 0x1D }
  - { offsetInCU: 0x103F2, offset: 0x90D93, size: 0x8, addend: 0x0, symName: __ZSt3decRSt8ios_base, symObjAddr: 0x1DC, symBinAddr: 0x100018868, symSize: 0x28 }
  - { offsetInCU: 0x103FA, offset: 0x90D9B, size: 0x8, addend: 0x0, symName: __ZSt3hexRSt8ios_base, symObjAddr: 0x204, symBinAddr: 0x100018890, symSize: 0x28 }
  - { offsetInCU: 0x1045B, offset: 0x90DFC, size: 0x8, addend: 0x0, symName: __ZStoRRSt13_Ios_FmtflagsS_, symObjAddr: 0x120, symBinAddr: 0x100018838, symSize: 0x2D }
  - { offsetInCU: 0x104A9, offset: 0x90E4A, size: 0x8, addend: 0x0, symName: __ZStorSt13_Ios_FmtflagsS_, symObjAddr: 0x100, symBinAddr: 0x100018824, symSize: 0x12 }
  - { offsetInCU: 0x105CA, offset: 0x90F6B, size: 0x8, addend: 0x0, symName: __ZL18__gthread_active_pv, symObjAddr: 0xE3, symBinAddr: 0x100018817, symSize: 0xB }
  - { offsetInCU: 0x13C, offset: 0x910BF, size: 0x8, addend: 0x0, symName: __ZStL19piecewise_construct, symObjAddr: 0x6800, symBinAddr: 0x10002E860, symSize: 0x0 }
  - { offsetInCU: 0x33E, offset: 0x912C1, size: 0x8, addend: 0x0, symName: __ZStL13allocator_arg, symObjAddr: 0x6801, symBinAddr: 0x10002E861, symSize: 0x0 }
  - { offsetInCU: 0x35B, offset: 0x912DE, size: 0x8, addend: 0x0, symName: __ZStL6ignore, symObjAddr: 0x6802, symBinAddr: 0x10002E862, symSize: 0x0 }
  - { offsetInCU: 0x13CB, offset: 0x9234E, size: 0x8, addend: 0x0, symName: __ZN9__gnu_cxxL21__default_lock_policyE, symObjAddr: 0x6804, symBinAddr: 0x10002E864, symSize: 0x0 }
  - { offsetInCU: 0x4630, offset: 0x955B3, size: 0x8, addend: 0x0, symName: __ZStL8__ioinit, symObjAddr: 0x74858, symBinAddr: 0x100059039, symSize: 0x0 }
  - { offsetInCU: 0x13A0B, offset: 0xA498E, size: 0x8, addend: 0x0, symName: __GLOBAL__sub_I_inorder.cpp, symObjAddr: 0x67D9, symBinAddr: 0x10001FCFF, symSize: 0xB }
  - { offsetInCU: 0x13A0C, offset: 0xA498F, size: 0x8, addend: 0x0, symName: __ZNSt11__copy_moveILb0ELb0ESt26random_access_iterator_tagE12__assign_oneIPN7SimPortIN6tinyrv14FunctionalUnit7entry_tEE11timed_pkt_tES9_EEvPT_PT0_, symObjAddr: 0x67BC, symBinAddr: 0x10001FCE2, symSize: 0x1D }
  - { offsetInCU: 0x13A14, offset: 0xA4997, size: 0x8, addend: 0x0, symName: __GLOBAL__sub_I_inorder.cpp, symObjAddr: 0x67D9, symBinAddr: 0x10001FCFF, symSize: 0xB }
  - { offsetInCU: 0x13BA3, offset: 0xA4B26, size: 0x8, addend: 0x0, symName: __ZSt23__copy_move_backward_a2ILb0EPPN7SimPortIN6tinyrv14FunctionalUnit7entry_tEE11timed_pkt_tES7_ET1_T0_S9_S8_, symObjAddr: 0x6670, symBinAddr: 0x10001FCB4, symSize: 0x2D }
  - { offsetInCU: 0x13C20, offset: 0xA4BA3, size: 0x8, addend: 0x0, symName: __ZSt14__copy_move_a2ILb0EPPN7SimPortIN6tinyrv14FunctionalUnit7entry_tEE11timed_pkt_tES7_ET1_T0_S9_S8_, symObjAddr: 0x6643, symBinAddr: 0x10001FC87, symSize: 0x2D }
  - { offsetInCU: 0x13C28, offset: 0xA4BAB, size: 0x8, addend: 0x0, symName: __ZSt23__copy_move_backward_a2ILb0EPPN7SimPortIN6tinyrv14FunctionalUnit7entry_tEE11timed_pkt_tES7_ET1_T0_S9_S8_, symObjAddr: 0x6670, symBinAddr: 0x10001FCB4, symSize: 0x2D }
  - { offsetInCU: 0x13BBC, offset: 0xA4B3F, size: 0x8, addend: 0x0, symName: __ZNSt15__new_allocatorIPN7SimPortIN6tinyrv14FunctionalUnit7entry_tEE11timed_pkt_tEE10deallocateEPS6_m, symObjAddr: 0x6620, symBinAddr: 0x10001FC64, symSize: 0x23 }
  - { offsetInCU: 0x13BC4, offset: 0xA4B47, size: 0x8, addend: 0x0, symName: __ZSt14__copy_move_a2ILb0EPPN7SimPortIN6tinyrv14FunctionalUnit7entry_tEE11timed_pkt_tES7_ET1_T0_S9_S8_, symObjAddr: 0x6643, symBinAddr: 0x10001FC87, symSize: 0x2D }
  - { offsetInCU: 0x13C11, offset: 0xA4B94, size: 0x8, addend: 0x0, symName: __ZNSt15__new_allocatorIPN7SimPortIN6tinyrv14FunctionalUnit7entry_tEE11timed_pkt_tEE8allocateEmPKv, symObjAddr: 0x65BA, symBinAddr: 0x10001FBFE, symSize: 0x66 }
  - { offsetInCU: 0x13C19, offset: 0xA4B9C, size: 0x8, addend: 0x0, symName: __ZNSt15__new_allocatorIPN7SimPortIN6tinyrv14FunctionalUnit7entry_tEE11timed_pkt_tEE10deallocateEPS6_m, symObjAddr: 0x6620, symBinAddr: 0x10001FC64, symSize: 0x23 }
  - { offsetInCU: 0x13D04, offset: 0xA4C87, size: 0x8, addend: 0x0, symName: __ZNSt15__new_allocatorIPN7SimPortIN6tinyrv14FunctionalUnit7entry_tEE11timed_pkt_tEED2Ev, symObjAddr: 0x65AE, symBinAddr: 0x10001FBF2, symSize: 0xC }
  - { offsetInCU: 0x13E0E, offset: 0xA4D91, size: 0x8, addend: 0x0, symName: __ZSt23__copy_move_backward_a1ILb0EPPN7SimPortIN6tinyrv14FunctionalUnit7entry_tEE11timed_pkt_tES7_ET1_T0_S9_S8_, symObjAddr: 0x6580, symBinAddr: 0x10001FBC4, symSize: 0x2E }
  - { offsetInCU: 0x13E3E, offset: 0xA4DC1, size: 0x8, addend: 0x0, symName: __ZSt12__niter_wrapIPPN7SimPortIN6tinyrv14FunctionalUnit7entry_tEE11timed_pkt_tEET_RKS8_S8_, symObjAddr: 0x656E, symBinAddr: 0x10001FBB2, symSize: 0x12 }
  - { offsetInCU: 0x13E46, offset: 0xA4DC9, size: 0x8, addend: 0x0, symName: __ZSt23__copy_move_backward_a1ILb0EPPN7SimPortIN6tinyrv14FunctionalUnit7entry_tEE11timed_pkt_tES7_ET1_T0_S9_S8_, symObjAddr: 0x6580, symBinAddr: 0x10001FBC4, symSize: 0x2E }
  - { offsetInCU: 0x13EE3, offset: 0xA4E66, size: 0x8, addend: 0x0, symName: __ZSt14__copy_move_a1ILb0EPPN7SimPortIN6tinyrv14FunctionalUnit7entry_tEE11timed_pkt_tES7_ET1_T0_S9_S8_, symObjAddr: 0x6541, symBinAddr: 0x10001FB85, symSize: 0x2D }
  - { offsetInCU: 0x13EEB, offset: 0xA4E6E, size: 0x8, addend: 0x0, symName: __ZSt12__niter_wrapIPPN7SimPortIN6tinyrv14FunctionalUnit7entry_tEE11timed_pkt_tEET_RKS8_S8_, symObjAddr: 0x656E, symBinAddr: 0x10001FBB2, symSize: 0x12 }
  - { offsetInCU: 0x13F20, offset: 0xA4EA3, size: 0x8, addend: 0x0, symName: __ZSt12__niter_baseIPPN7SimPortIN6tinyrv14FunctionalUnit7entry_tEE11timed_pkt_tEET_S8_, symObjAddr: 0x6533, symBinAddr: 0x10001FB77, symSize: 0xE }
  - { offsetInCU: 0x13F28, offset: 0xA4EAB, size: 0x8, addend: 0x0, symName: __ZSt14__copy_move_a1ILb0EPPN7SimPortIN6tinyrv14FunctionalUnit7entry_tEE11timed_pkt_tES7_ET1_T0_S9_S8_, symObjAddr: 0x6541, symBinAddr: 0x10001FB85, symSize: 0x2D }
  - { offsetInCU: 0x13F76, offset: 0xA4EF9, size: 0x8, addend: 0x0, symName: __ZNKSt11_Deque_baseIN7SimPortIN6tinyrv14FunctionalUnit7entry_tEE11timed_pkt_tESaIS5_EE20_M_get_map_allocatorEv, symObjAddr: 0x64FA, symBinAddr: 0x10001FB3E, symSize: 0x39 }
  - { offsetInCU: 0x13F7E, offset: 0xA4F01, size: 0x8, addend: 0x0, symName: __ZSt12__niter_baseIPPN7SimPortIN6tinyrv14FunctionalUnit7entry_tEE11timed_pkt_tEET_S8_, symObjAddr: 0x6533, symBinAddr: 0x10001FB77, symSize: 0xE }
  - { offsetInCU: 0x14100, offset: 0xA5083, size: 0x8, addend: 0x0, symName: __ZSt22__copy_move_backward_aILb0EPPN7SimPortIN6tinyrv14FunctionalUnit7entry_tEE11timed_pkt_tES7_ET1_T0_S9_S8_, symObjAddr: 0x648F, symBinAddr: 0x10001FAD3, symSize: 0x6B }
  - { offsetInCU: 0x1417D, offset: 0xA5100, size: 0x8, addend: 0x0, symName: __ZSt13__copy_move_aILb0EPPN7SimPortIN6tinyrv14FunctionalUnit7entry_tEE11timed_pkt_tES7_ET1_T0_S9_S8_, symObjAddr: 0x6425, symBinAddr: 0x10001FA69, symSize: 0x6A }
  - { offsetInCU: 0x14185, offset: 0xA5108, size: 0x8, addend: 0x0, symName: __ZSt22__copy_move_backward_aILb0EPPN7SimPortIN6tinyrv14FunctionalUnit7entry_tEE11timed_pkt_tES7_ET1_T0_S9_S8_, symObjAddr: 0x648F, symBinAddr: 0x10001FAD3, symSize: 0x6B }
  - { offsetInCU: 0x141BC, offset: 0xA513F, size: 0x8, addend: 0x0, symName: __ZSt12__miter_baseIPPN7SimPortIN6tinyrv14FunctionalUnit7entry_tEE11timed_pkt_tEET_S8_, symObjAddr: 0x6417, symBinAddr: 0x10001FA5B, symSize: 0xE }
  - { offsetInCU: 0x141C4, offset: 0xA5147, size: 0x8, addend: 0x0, symName: __ZSt13__copy_move_aILb0EPPN7SimPortIN6tinyrv14FunctionalUnit7entry_tEE11timed_pkt_tES7_ET1_T0_S9_S8_, symObjAddr: 0x6425, symBinAddr: 0x10001FA69, symSize: 0x6A }
  - { offsetInCU: 0x14180, offset: 0xA5103, size: 0x8, addend: 0x0, symName: __ZNSt15__new_allocatorIN7SimPortIN6tinyrv14FunctionalUnit7entry_tEE11timed_pkt_tEE8allocateEmPKv, symObjAddr: 0x63A8, symBinAddr: 0x10001F9EC, symSize: 0x6F }
  - { offsetInCU: 0x14188, offset: 0xA510B, size: 0x8, addend: 0x0, symName: __ZSt12__miter_baseIPPN7SimPortIN6tinyrv14FunctionalUnit7entry_tEE11timed_pkt_tEET_S8_, symObjAddr: 0x6417, symBinAddr: 0x10001FA5B, symSize: 0xE }
  - { offsetInCU: 0x141F4, offset: 0xA5177, size: 0x8, addend: 0x0, symName: __ZNSt11_Deque_baseIN7SimPortIN6tinyrv14FunctionalUnit7entry_tEE11timed_pkt_tESaIS5_EE17_M_deallocate_mapEPPS5_m, symObjAddr: 0x6348, symBinAddr: 0x10001F98C, symSize: 0x60 }
  - { offsetInCU: 0x142BE, offset: 0xA5241, size: 0x8, addend: 0x0, symName: __ZNSt11_Deque_baseIN7SimPortIN6tinyrv14FunctionalUnit7entry_tEE11timed_pkt_tESaIS5_EE15_M_allocate_mapEm, symObjAddr: 0x62CC, symBinAddr: 0x10001F910, symSize: 0x7C }
  - { offsetInCU: 0x142C6, offset: 0xA5249, size: 0x8, addend: 0x0, symName: __ZNSt11_Deque_baseIN7SimPortIN6tinyrv14FunctionalUnit7entry_tEE11timed_pkt_tESaIS5_EE17_M_deallocate_mapEPPS5_m, symObjAddr: 0x6348, symBinAddr: 0x10001F98C, symSize: 0x60 }
  - { offsetInCU: 0x1446F, offset: 0xA53F2, size: 0x8, addend: 0x0, symName: __ZSt13copy_backwardIPPN7SimPortIN6tinyrv14FunctionalUnit7entry_tEE11timed_pkt_tES7_ET0_T_S9_S8_, symObjAddr: 0x6280, symBinAddr: 0x10001F8C4, symSize: 0x4C }
  - { offsetInCU: 0x14454, offset: 0xA53D7, size: 0x8, addend: 0x0, symName: __ZNSt5dequeIN7SimPortIN6tinyrv14FunctionalUnit7entry_tEE11timed_pkt_tESaIS5_EE17_M_reallocate_mapEmb, symObjAddr: 0x6016, symBinAddr: 0x10001F6A4, symSize: 0x21F }
  - { offsetInCU: 0x14525, offset: 0xA54A8, size: 0x8, addend: 0x0, symName: __ZNKSt11_Deque_baseIN7SimPortIN6tinyrv14FunctionalUnit7entry_tEE11timed_pkt_tESaIS5_EE19_M_get_Tp_allocatorEv, symObjAddr: 0x6008, symBinAddr: 0x10001F696, symSize: 0xE }
  - { offsetInCU: 0x1452D, offset: 0xA54B0, size: 0x8, addend: 0x0, symName: __ZNSt5dequeIN7SimPortIN6tinyrv14FunctionalUnit7entry_tEE11timed_pkt_tESaIS5_EE17_M_reallocate_mapEmb, symObjAddr: 0x6016, symBinAddr: 0x10001F6A4, symSize: 0x21F }
  - { offsetInCU: 0x14554, offset: 0xA54D7, size: 0x8, addend: 0x0, symName: __ZNSt5dequeIN7SimPortIN6tinyrv14FunctionalUnit7entry_tEE11timed_pkt_tESaIS5_EE11_S_max_sizeERKS6_, symObjAddr: 0x5FAE, symBinAddr: 0x10001F63C, symSize: 0x5A }
  - { offsetInCU: 0x1455C, offset: 0xA54DF, size: 0x8, addend: 0x0, symName: __ZNKSt11_Deque_baseIN7SimPortIN6tinyrv14FunctionalUnit7entry_tEE11timed_pkt_tESaIS5_EE19_M_get_Tp_allocatorEv, symObjAddr: 0x6008, symBinAddr: 0x10001F696, symSize: 0xE }
  - { offsetInCU: 0x1462B, offset: 0xA55AE, size: 0x8, addend: 0x0, symName: __ZNSt11_Deque_baseIN7SimPortIN6tinyrv14FunctionalUnit7entry_tEE11timed_pkt_tESaIS5_EE16_M_allocate_nodeEv, symObjAddr: 0x5ED0, symBinAddr: 0x10001F5FE, symSize: 0x3D }
  - { offsetInCU: 0x1468C, offset: 0xA560F, size: 0x8, addend: 0x0, symName: __ZNSt5dequeIN7SimPortIN6tinyrv14FunctionalUnit7entry_tEE11timed_pkt_tESaIS5_EE22_M_reserve_map_at_backEm, symObjAddr: 0x5E6E, symBinAddr: 0x10001F59C, symSize: 0x62 }
  - { offsetInCU: 0x14694, offset: 0xA5617, size: 0x8, addend: 0x0, symName: __ZNSt11_Deque_baseIN7SimPortIN6tinyrv14FunctionalUnit7entry_tEE11timed_pkt_tESaIS5_EE16_M_allocate_nodeEv, symObjAddr: 0x5ED0, symBinAddr: 0x10001F5FE, symSize: 0x3D }
  - { offsetInCU: 0x146CF, offset: 0xA5652, size: 0x8, addend: 0x0, symName: __ZNKSt5dequeIN7SimPortIN6tinyrv14FunctionalUnit7entry_tEE11timed_pkt_tESaIS5_EE8max_sizeEv, symObjAddr: 0x5E4C, symBinAddr: 0x10001F57A, symSize: 0x22 }
  - { offsetInCU: 0x146D7, offset: 0xA565A, size: 0x8, addend: 0x0, symName: __ZNSt5dequeIN7SimPortIN6tinyrv14FunctionalUnit7entry_tEE11timed_pkt_tESaIS5_EE22_M_reserve_map_at_backEm, symObjAddr: 0x5E6E, symBinAddr: 0x10001F59C, symSize: 0x62 }
  - { offsetInCU: 0x146FE, offset: 0xA5681, size: 0x8, addend: 0x0, symName: __ZNKSt5dequeIN7SimPortIN6tinyrv14FunctionalUnit7entry_tEE11timed_pkt_tESaIS5_EE4sizeEv, symObjAddr: 0x5E22, symBinAddr: 0x10001F550, symSize: 0x2A }
  - { offsetInCU: 0x1478A, offset: 0xA570D, size: 0x8, addend: 0x0, symName: __ZNSt5dequeIN7SimPortIN6tinyrv14FunctionalUnit7entry_tEE11timed_pkt_tESaIS5_EE16_M_push_back_auxIJS5_EEEvDpOT_, symObjAddr: 0x5CFE, symBinAddr: 0x10001F42C, symSize: 0x124 }
  - { offsetInCU: 0x14962, offset: 0xA58E5, size: 0x8, addend: 0x0, symName: __ZSt7forwardIN7SimPortIN6tinyrv14FunctionalUnit7entry_tEE11timed_pkt_tEEOT_RNSt16remove_referenceIS6_E4typeE, symObjAddr: 0x5CEF, symBinAddr: 0x10001F41D, symSize: 0xF }
  - { offsetInCU: 0x14906, offset: 0xA5889, size: 0x8, addend: 0x0, symName: __ZNSt5dequeIN7SimPortIN6tinyrv14FunctionalUnit7entry_tEE11timed_pkt_tESaIS5_EE12emplace_backIJS5_EEEvDpOT_, symObjAddr: 0x5C0A, symBinAddr: 0x10001F338, symSize: 0xE5 }
  - { offsetInCU: 0x1490E, offset: 0xA5891, size: 0x8, addend: 0x0, symName: __ZSt7forwardIN7SimPortIN6tinyrv14FunctionalUnit7entry_tEE11timed_pkt_tEEOT_RNSt16remove_referenceIS6_E4typeE, symObjAddr: 0x5CEF, symBinAddr: 0x10001F41D, symSize: 0xF }
  - { offsetInCU: 0x149D5, offset: 0xA5958, size: 0x8, addend: 0x0, symName: __ZNSt5dequeIN7SimPortIN6tinyrv14FunctionalUnit7entry_tEE11timed_pkt_tESaIS5_EE9push_backEOS5_, symObjAddr: 0x5BD8, symBinAddr: 0x10001F306, symSize: 0x32 }
  - { offsetInCU: 0x14AC4, offset: 0xA5A47, size: 0x8, addend: 0x0, symName: __ZSt4moveIRN7SimPortIN6tinyrv14FunctionalUnit7entry_tEE11timed_pkt_tEEONSt16remove_referenceIT_E4typeEOS8_, symObjAddr: 0x5BC9, symBinAddr: 0x10001F2F7, symSize: 0xF }
  - { offsetInCU: 0x14AF6, offset: 0xA5A79, size: 0x8, addend: 0x0, symName: __ZSt7forwardIRKN6tinyrv14FunctionalUnit7entry_tEEOT_RNSt16remove_referenceIS5_E4typeE, symObjAddr: 0x5BAD, symBinAddr: 0x10001F2E9, symSize: 0xE }
  - { offsetInCU: 0x14AC0, offset: 0xA5A43, size: 0x8, addend: 0x0, symName: __ZNSt5queueIN7SimPortIN6tinyrv14FunctionalUnit7entry_tEE11timed_pkt_tESt5dequeIS5_SaIS5_EEE4pushEOS5_, symObjAddr: 0x5B7A, symBinAddr: 0x10001F2B6, symSize: 0x33 }
  - { offsetInCU: 0x14AC8, offset: 0xA5A4B, size: 0x8, addend: 0x0, symName: __ZSt7forwardIRKN6tinyrv14FunctionalUnit7entry_tEEOT_RNSt16remove_referenceIS5_E4typeE, symObjAddr: 0x5BAD, symBinAddr: 0x10001F2E9, symSize: 0xE }
  - { offsetInCU: 0x14B03, offset: 0xA5A86, size: 0x8, addend: 0x0, symName: __ZNKSt8functionIFvRKN6tinyrv14FunctionalUnit7entry_tEyEEclES4_y, symObjAddr: 0x5B0E, symBinAddr: 0x10001F24A, symSize: 0x6C }
  - { offsetInCU: 0x14B6D, offset: 0xA5AF0, size: 0x8, addend: 0x0, symName: __ZN7SimPortIN6tinyrv14FunctionalUnit7entry_tEE4pushERKS2_y, symObjAddr: 0x5A6C, symBinAddr: 0x10001F1A8, symSize: 0xA2 }
  - { offsetInCU: 0x14B75, offset: 0xA5AF8, size: 0x8, addend: 0x0, symName: __ZNKSt8functionIFvRKN6tinyrv14FunctionalUnit7entry_tEyEEclES4_y, symObjAddr: 0x5B0E, symBinAddr: 0x10001F24A, symSize: 0x6C }
  - { offsetInCU: 0x14BC3, offset: 0xA5B46, size: 0x8, addend: 0x0, symName: __ZNK12SimPortEventIN6tinyrv14FunctionalUnit7entry_tEE4fireEv, symObjAddr: 0x5A3A, symBinAddr: 0x10001F176, symSize: 0x32 }
  - { offsetInCU: 0x14BCB, offset: 0xA5B4E, size: 0x8, addend: 0x0, symName: __ZN7SimPortIN6tinyrv14FunctionalUnit7entry_tEE4pushERKS2_y, symObjAddr: 0x5A6C, symBinAddr: 0x10001F1A8, symSize: 0xA2 }
  - { offsetInCU: 0x14BF6, offset: 0xA5B79, size: 0x8, addend: 0x0, symName: __ZNSt15_Sp_counted_ptrIP12SimPortEventIN6tinyrv14FunctionalUnit7entry_tEELN9__gnu_cxx12_Lock_policyE2EE14_M_get_deleterERKSt9type_info, symObjAddr: 0x5A26, symBinAddr: 0x10001F162, symSize: 0x14 }
  - { offsetInCU: 0x14C35, offset: 0xA5BB8, size: 0x8, addend: 0x0, symName: __ZNSt15_Sp_counted_ptrIP12SimPortEventIN6tinyrv14FunctionalUnit7entry_tEELN9__gnu_cxx12_Lock_policyE2EE10_M_destroyEv, symObjAddr: 0x5A04, symBinAddr: 0x10001F140, symSize: 0x22 }
  - { offsetInCU: 0x14C3D, offset: 0xA5BC0, size: 0x8, addend: 0x0, symName: __ZNSt15_Sp_counted_ptrIP12SimPortEventIN6tinyrv14FunctionalUnit7entry_tEELN9__gnu_cxx12_Lock_policyE2EE14_M_get_deleterERKSt9type_info, symObjAddr: 0x5A26, symBinAddr: 0x10001F162, symSize: 0x14 }
  - { offsetInCU: 0x14C64, offset: 0xA5BE7, size: 0x8, addend: 0x0, symName: __ZNSt15_Sp_counted_ptrIP12SimPortEventIN6tinyrv14FunctionalUnit7entry_tEELN9__gnu_cxx12_Lock_policyE2EE10_M_disposeEv, symObjAddr: 0x59D8, symBinAddr: 0x10001F114, symSize: 0x2C }
  - { offsetInCU: 0x14CBB, offset: 0xA5C3E, size: 0x8, addend: 0x0, symName: __Z41__static_initialization_and_destruction_0v, symObjAddr: 0x599E, symBinAddr: 0x10001F0DA, symSize: 0x3A }
  - { offsetInCU: 0x14D44, offset: 0xA5CC7, size: 0x8, addend: 0x0, symName: __ZNSt15_Sp_counted_ptrIP12SimPortEventIN6tinyrv14FunctionalUnit7entry_tEELN9__gnu_cxx12_Lock_policyE2EED0Ev, symObjAddr: 0x5978, symBinAddr: 0x10001F0B4, symSize: 0x26 }
  - { offsetInCU: 0x14D4C, offset: 0xA5CCF, size: 0x8, addend: 0x0, symName: __Z41__static_initialization_and_destruction_0v, symObjAddr: 0x599E, symBinAddr: 0x10001F0DA, symSize: 0x3A }
  - { offsetInCU: 0x14D72, offset: 0xA5CF5, size: 0x8, addend: 0x0, symName: __ZNSt15_Sp_counted_ptrIP12SimPortEventIN6tinyrv14FunctionalUnit7entry_tEELN9__gnu_cxx12_Lock_policyE2EED1Ev, symObjAddr: 0x594A, symBinAddr: 0x10001F086, symSize: 0x2E }
  - { offsetInCU: 0x14D34, offset: 0xA5CB7, size: 0x8, addend: 0x0, symName: __ZNSt11__copy_moveILb0ELb0ESt26random_access_iterator_tagE12__assign_oneIPP12SimPortEventIN6tinyrv14FunctionalUnit7entry_tEES9_EEvPT_PT0_, symObjAddr: 0x592C, symBinAddr: 0x10001F068, symSize: 0x1E }
  - { offsetInCU: 0x14E83, offset: 0xA5E06, size: 0x8, addend: 0x0, symName: __ZSt23__copy_move_backward_a2ILb0EPPP12SimPortEventIN6tinyrv14FunctionalUnit7entry_tEES7_ET1_T0_S9_S8_, symObjAddr: 0x57E0, symBinAddr: 0x10001F03A, symSize: 0x2D }
  - { offsetInCU: 0x14E95, offset: 0xA5E18, size: 0x8, addend: 0x0, symName: __ZSt4moveIRPN6tinyrv16pipeline_trace_tEEONSt16remove_referenceIT_E4typeEOS5_, symObjAddr: 0x57A5, symBinAddr: 0x10001F02B, symSize: 0xE }
  - { offsetInCU: 0x14F66, offset: 0xA5EE9, size: 0x8, addend: 0x0, symName: __ZSt23__copy_move_backward_a1ILb0EPPP12SimPortEventIN6tinyrv14FunctionalUnit7entry_tEES7_ET1_T0_S9_S8_, symObjAddr: 0x5778, symBinAddr: 0x10001EFFE, symSize: 0x2D }
  - { offsetInCU: 0x14F6E, offset: 0xA5EF1, size: 0x8, addend: 0x0, symName: __ZSt4moveIRPN6tinyrv16pipeline_trace_tEEONSt16remove_referenceIT_E4typeEOS5_, symObjAddr: 0x57A5, symBinAddr: 0x10001F02B, symSize: 0xE }
  - { offsetInCU: 0x14F9D, offset: 0xA5F20, size: 0x8, addend: 0x0, symName: __ZSt12__niter_wrapIPPP12SimPortEventIN6tinyrv14FunctionalUnit7entry_tEEET_RKS8_S8_, symObjAddr: 0x5766, symBinAddr: 0x10001EFEC, symSize: 0x12 }
  - { offsetInCU: 0x14FA5, offset: 0xA5F28, size: 0x8, addend: 0x0, symName: __ZSt23__copy_move_backward_a1ILb0EPPP12SimPortEventIN6tinyrv14FunctionalUnit7entry_tEES7_ET1_T0_S9_S8_, symObjAddr: 0x5778, symBinAddr: 0x10001EFFE, symSize: 0x2D }
  - { offsetInCU: 0x14F5E, offset: 0xA5EE1, size: 0x8, addend: 0x0, symName: __ZNSt11__copy_moveILb1ELb0ESt26random_access_iterator_tagE12__assign_oneIPN6tinyrv16pipeline_trace_tES5_EEvPT_PT0_, symObjAddr: 0x5702, symBinAddr: 0x10001EFC2, symSize: 0x29 }
  - { offsetInCU: 0x150C4, offset: 0xA6047, size: 0x8, addend: 0x0, symName: __ZSt22__copy_move_backward_aILb0EPPP12SimPortEventIN6tinyrv14FunctionalUnit7entry_tEES7_ET1_T0_S9_S8_, symObjAddr: 0x5698, symBinAddr: 0x10001EF58, symSize: 0x6A }
  - { offsetInCU: 0x150CC, offset: 0xA604F, size: 0x8, addend: 0x0, symName: __ZNSt11__copy_moveILb1ELb0ESt26random_access_iterator_tagE12__assign_oneIPN6tinyrv16pipeline_trace_tES5_EEvPT_PT0_, symObjAddr: 0x5702, symBinAddr: 0x10001EFC2, symSize: 0x29 }
  - { offsetInCU: 0x15141, offset: 0xA60C4, size: 0x8, addend: 0x0, symName: __ZSt13__copy_move_aILb0EPPP12SimPortEventIN6tinyrv14FunctionalUnit7entry_tEES7_ET1_T0_S9_S8_, symObjAddr: 0x562E, symBinAddr: 0x10001EEEE, symSize: 0x6A }
  - { offsetInCU: 0x15149, offset: 0xA60CC, size: 0x8, addend: 0x0, symName: __ZSt22__copy_move_backward_aILb0EPPP12SimPortEventIN6tinyrv14FunctionalUnit7entry_tEES7_ET1_T0_S9_S8_, symObjAddr: 0x5698, symBinAddr: 0x10001EF58, symSize: 0x6A }
  - { offsetInCU: 0x15187, offset: 0xA610A, size: 0x8, addend: 0x0, symName: __ZSt12__miter_baseIPPP12SimPortEventIN6tinyrv14FunctionalUnit7entry_tEEET_S8_, symObjAddr: 0x5620, symBinAddr: 0x10001EEE0, symSize: 0xE }
  - { offsetInCU: 0x1518F, offset: 0xA6112, size: 0x8, addend: 0x0, symName: __ZSt13__copy_move_aILb0EPPP12SimPortEventIN6tinyrv14FunctionalUnit7entry_tEES7_ET1_T0_S9_S8_, symObjAddr: 0x562E, symBinAddr: 0x10001EEEE, symSize: 0x6A }
  - { offsetInCU: 0x15173, offset: 0xA60F6, size: 0x8, addend: 0x0, symName: __ZNSt11__copy_moveILb1ELb1ESt26random_access_iterator_tagE8__copy_mIPN6tinyrv16pipeline_trace_tES5_EEPT0_PT_S9_S7_, symObjAddr: 0x559C, symBinAddr: 0x10001EE5C, symSize: 0x84 }
  - { offsetInCU: 0x1517B, offset: 0xA60FE, size: 0x8, addend: 0x0, symName: __ZSt12__miter_baseIPPP12SimPortEventIN6tinyrv14FunctionalUnit7entry_tEEET_S8_, symObjAddr: 0x5620, symBinAddr: 0x10001EEE0, symSize: 0xE }
  - { offsetInCU: 0x151FB, offset: 0xA617E, size: 0x8, addend: 0x0, symName: __ZNSt15__new_allocatorIP12SimPortEventIN6tinyrv14FunctionalUnit7entry_tEEE8allocateEmPKv, symObjAddr: 0x5536, symBinAddr: 0x10001EDF6, symSize: 0x66 }
  - { offsetInCU: 0x15203, offset: 0xA6186, size: 0x8, addend: 0x0, symName: __ZNSt11__copy_moveILb1ELb1ESt26random_access_iterator_tagE8__copy_mIPN6tinyrv16pipeline_trace_tES5_EEPT0_PT_S9_S7_, symObjAddr: 0x559C, symBinAddr: 0x10001EE5C, symSize: 0x84 }
  - { offsetInCU: 0x1533E, offset: 0xA62C1, size: 0x8, addend: 0x0, symName: __ZSt13copy_backwardIPPP12SimPortEventIN6tinyrv14FunctionalUnit7entry_tEES7_ET0_T_S9_S8_, symObjAddr: 0x54EB, symBinAddr: 0x10001EDAB, symSize: 0x4B }
  - { offsetInCU: 0x15346, offset: 0xA62C9, size: 0x8, addend: 0x0, symName: __ZNSt15__new_allocatorIP12SimPortEventIN6tinyrv14FunctionalUnit7entry_tEEE8allocateEmPKv, symObjAddr: 0x5536, symBinAddr: 0x10001EDF6, symSize: 0x66 }
  - { offsetInCU: 0x153AC, offset: 0xA632F, size: 0x8, addend: 0x0, symName: __ZSt4copyIPPP12SimPortEventIN6tinyrv14FunctionalUnit7entry_tEES7_ET0_T_S9_S8_, symObjAddr: 0x54A0, symBinAddr: 0x10001ED60, symSize: 0x4B }
  - { offsetInCU: 0x153B4, offset: 0xA6337, size: 0x8, addend: 0x0, symName: __ZSt13copy_backwardIPPP12SimPortEventIN6tinyrv14FunctionalUnit7entry_tEES7_ET0_T_S9_S8_, symObjAddr: 0x54EB, symBinAddr: 0x10001EDAB, symSize: 0x4B }
  - { offsetInCU: 0x153A6, offset: 0xA6329, size: 0x8, addend: 0x0, symName: __ZNSt15__new_allocatorIPP12SimPortEventIN6tinyrv14FunctionalUnit7entry_tEEE8allocateEmPKv, symObjAddr: 0x543A, symBinAddr: 0x10001ECFA, symSize: 0x66 }
  - { offsetInCU: 0x153AE, offset: 0xA6331, size: 0x8, addend: 0x0, symName: __ZSt4copyIPPP12SimPortEventIN6tinyrv14FunctionalUnit7entry_tEES7_ET0_T_S9_S8_, symObjAddr: 0x54A0, symBinAddr: 0x10001ED60, symSize: 0x4B }
  - { offsetInCU: 0x1541A, offset: 0xA639D, size: 0x8, addend: 0x0, symName: __ZNSt11__copy_moveILb0ELb0ESt26random_access_iterator_tagE12__assign_oneIPPN6tinyrv16pipeline_trace_tES6_EEvPT_PT0_, symObjAddr: 0x541C, symBinAddr: 0x10001ECDC, symSize: 0x1E }
  - { offsetInCU: 0x15513, offset: 0xA6496, size: 0x8, addend: 0x0, symName: __ZSt14__copy_move_a2ILb1EPPN6tinyrv16pipeline_trace_tES3_ET1_T0_S5_S4_, symObjAddr: 0x53EF, symBinAddr: 0x10001ECAF, symSize: 0x2D }
  - { offsetInCU: 0x1551B, offset: 0xA649E, size: 0x8, addend: 0x0, symName: __ZNSt11__copy_moveILb0ELb0ESt26random_access_iterator_tagE12__assign_oneIPPN6tinyrv16pipeline_trace_tES6_EEvPT_PT0_, symObjAddr: 0x541C, symBinAddr: 0x10001ECDC, symSize: 0x1E }
  - { offsetInCU: 0x15536, offset: 0xA64B9, size: 0x8, addend: 0x0, symName: __ZNSt5dequeIP12SimPortEventIN6tinyrv14FunctionalUnit7entry_tEESaIS5_EE17_M_reallocate_mapEmb, symObjAddr: 0x51D0, symBinAddr: 0x10001EA90, symSize: 0x21F }
  - { offsetInCU: 0x1553E, offset: 0xA64C1, size: 0x8, addend: 0x0, symName: __ZSt14__copy_move_a2ILb1EPPN6tinyrv16pipeline_trace_tES3_ET1_T0_S5_S4_, symObjAddr: 0x53EF, symBinAddr: 0x10001ECAF, symSize: 0x2D }
  - { offsetInCU: 0x15607, offset: 0xA658A, size: 0x8, addend: 0x0, symName: __ZNSt5dequeIP12SimPortEventIN6tinyrv14FunctionalUnit7entry_tEESaIS5_EE11_S_max_sizeERKS6_, symObjAddr: 0x5175, symBinAddr: 0x10001EA35, symSize: 0x5B }
  - { offsetInCU: 0x156D4, offset: 0xA6657, size: 0x8, addend: 0x0, symName: __ZNSt15__new_allocatorIP12SimPortEventIN6tinyrv14FunctionalUnit7entry_tEEE10deallocateEPS5_m, symObjAddr: 0x5152, symBinAddr: 0x10001EA12, symSize: 0x23 }
  - { offsetInCU: 0x156DC, offset: 0xA665F, size: 0x8, addend: 0x0, symName: __ZNSt5dequeIP12SimPortEventIN6tinyrv14FunctionalUnit7entry_tEESaIS5_EE11_S_max_sizeERKS6_, symObjAddr: 0x5175, symBinAddr: 0x10001EA35, symSize: 0x5B }
  - { offsetInCU: 0x15729, offset: 0xA66AC, size: 0x8, addend: 0x0, symName: __ZNSt15__new_allocatorIPP12SimPortEventIN6tinyrv14FunctionalUnit7entry_tEEE10deallocateEPS6_m, symObjAddr: 0x512E, symBinAddr: 0x10001E9EE, symSize: 0x24 }
  - { offsetInCU: 0x157F5, offset: 0xA6778, size: 0x8, addend: 0x0, symName: __ZNSt15__new_allocatorIPP12SimPortEventIN6tinyrv14FunctionalUnit7entry_tEEED2Ev, symObjAddr: 0x5122, symBinAddr: 0x10001E9E2, symSize: 0xC }
  - { offsetInCU: 0x15802, offset: 0xA6785, size: 0x8, addend: 0x0, symName: __ZNKSt11_Deque_baseIP12SimPortEventIN6tinyrv14FunctionalUnit7entry_tEESaIS5_EE19_M_get_Tp_allocatorEv, symObjAddr: 0x5114, symBinAddr: 0x10001E9D4, symSize: 0xE }
  - { offsetInCU: 0x1580A, offset: 0xA678D, size: 0x8, addend: 0x0, symName: __ZNSt15__new_allocatorIPP12SimPortEventIN6tinyrv14FunctionalUnit7entry_tEEED2Ev, symObjAddr: 0x5122, symBinAddr: 0x10001E9E2, symSize: 0xC }
  - { offsetInCU: 0x158CE, offset: 0xA6851, size: 0x8, addend: 0x0, symName: __ZNSt15_Deque_iteratorIP12SimPortEventIN6tinyrv14FunctionalUnit7entry_tEERS5_PS5_EC1Ev, symObjAddr: 0x50DA, symBinAddr: 0x10001E99A, symSize: 0x3A }
  - { offsetInCU: 0x158D6, offset: 0xA6859, size: 0x8, addend: 0x0, symName: __ZNKSt11_Deque_baseIP12SimPortEventIN6tinyrv14FunctionalUnit7entry_tEESaIS5_EE19_M_get_Tp_allocatorEv, symObjAddr: 0x5114, symBinAddr: 0x10001E9D4, symSize: 0xE }
  - { offsetInCU: 0x158BE, offset: 0xA6841, size: 0x8, addend: 0x0, symName: __ZNSt20__copy_move_backwardILb0ELb1ESt26random_access_iterator_tagE13__copy_move_bIPPN6tinyrv16pipeline_trace_tES6_EEPT0_PT_SA_S8_, symObjAddr: 0x503E, symBinAddr: 0x10001E8FE, symSize: 0x9C }
  - { offsetInCU: 0x15946, offset: 0xA68C9, size: 0x8, addend: 0x0, symName: __ZNSt11__copy_moveILb0ELb1ESt26random_access_iterator_tagE8__copy_mIPPN6tinyrv16pipeline_trace_tES6_EEPT0_PT_SA_S8_, symObjAddr: 0x4FBA, symBinAddr: 0x10001E87A, symSize: 0x84 }
  - { offsetInCU: 0x1594E, offset: 0xA68D1, size: 0x8, addend: 0x0, symName: __ZNSt20__copy_move_backwardILb0ELb1ESt26random_access_iterator_tagE13__copy_move_bIPPN6tinyrv16pipeline_trace_tES6_EEPT0_PT_SA_S8_, symObjAddr: 0x503E, symBinAddr: 0x10001E8FE, symSize: 0x9C }
  - { offsetInCU: 0x15A38, offset: 0xA69BB, size: 0x8, addend: 0x0, symName: __ZSt12__niter_wrapIPPN6tinyrv16pipeline_trace_tEET_RKS4_S4_, symObjAddr: 0x4FA8, symBinAddr: 0x10001E868, symSize: 0x12 }
  - { offsetInCU: 0x15A40, offset: 0xA69C3, size: 0x8, addend: 0x0, symName: __ZNSt11__copy_moveILb0ELb1ESt26random_access_iterator_tagE8__copy_mIPPN6tinyrv16pipeline_trace_tES6_EEPT0_PT_SA_S8_, symObjAddr: 0x4FBA, symBinAddr: 0x10001E87A, symSize: 0x84 }
  - { offsetInCU: 0x15ABF, offset: 0xA6A42, size: 0x8, addend: 0x0, symName: __ZSt14__copy_move_a1ILb1EPPN6tinyrv16pipeline_trace_tES3_ET1_T0_S5_S4_, symObjAddr: 0x4F7B, symBinAddr: 0x10001E83B, symSize: 0x2D }
  - { offsetInCU: 0x15AC7, offset: 0xA6A4A, size: 0x8, addend: 0x0, symName: __ZSt12__niter_wrapIPPN6tinyrv16pipeline_trace_tEET_RKS4_S4_, symObjAddr: 0x4FA8, symBinAddr: 0x10001E868, symSize: 0x12 }
  - { offsetInCU: 0x15AF5, offset: 0xA6A78, size: 0x8, addend: 0x0, symName: __ZSt12__miter_baseIPPN6tinyrv16pipeline_trace_tEET_S4_, symObjAddr: 0x4F6D, symBinAddr: 0x10001E82D, symSize: 0xE }
  - { offsetInCU: 0x15AFD, offset: 0xA6A80, size: 0x8, addend: 0x0, symName: __ZSt14__copy_move_a1ILb1EPPN6tinyrv16pipeline_trace_tES3_ET1_T0_S5_S4_, symObjAddr: 0x4F7B, symBinAddr: 0x10001E83B, symSize: 0x2D }
  - { offsetInCU: 0x15B01, offset: 0xA6A84, size: 0x8, addend: 0x0, symName: __ZNKSt13move_iteratorIPPN6tinyrv16pipeline_trace_tEE4baseEv, symObjAddr: 0x4F5C, symBinAddr: 0x10001E81C, symSize: 0x11 }
  - { offsetInCU: 0x15B09, offset: 0xA6A8C, size: 0x8, addend: 0x0, symName: __ZSt12__miter_baseIPPN6tinyrv16pipeline_trace_tEET_S4_, symObjAddr: 0x4F6D, symBinAddr: 0x10001E82D, symSize: 0xE }
  - { offsetInCU: 0x15B49, offset: 0xA6ACC, size: 0x8, addend: 0x0, symName: __ZNSt11_Deque_baseIP12SimPortEventIN6tinyrv14FunctionalUnit7entry_tEESaIS5_EE16_M_allocate_nodeEv, symObjAddr: 0x4F1E, symBinAddr: 0x10001E7DE, symSize: 0x3E }
  - { offsetInCU: 0x15BAA, offset: 0xA6B2D, size: 0x8, addend: 0x0, symName: __ZNSt5dequeIP12SimPortEventIN6tinyrv14FunctionalUnit7entry_tEESaIS5_EE22_M_reserve_map_at_backEm, symObjAddr: 0x4EBC, symBinAddr: 0x10001E77C, symSize: 0x62 }
  - { offsetInCU: 0x15BB2, offset: 0xA6B35, size: 0x8, addend: 0x0, symName: __ZNSt11_Deque_baseIP12SimPortEventIN6tinyrv14FunctionalUnit7entry_tEESaIS5_EE16_M_allocate_nodeEv, symObjAddr: 0x4F1E, symBinAddr: 0x10001E7DE, symSize: 0x3E }
  - { offsetInCU: 0x15BED, offset: 0xA6B70, size: 0x8, addend: 0x0, symName: __ZNKSt5dequeIP12SimPortEventIN6tinyrv14FunctionalUnit7entry_tEESaIS5_EE8max_sizeEv, symObjAddr: 0x4E9A, symBinAddr: 0x10001E75A, symSize: 0x22 }
  - { offsetInCU: 0x15BF5, offset: 0xA6B78, size: 0x8, addend: 0x0, symName: __ZNSt5dequeIP12SimPortEventIN6tinyrv14FunctionalUnit7entry_tEESaIS5_EE22_M_reserve_map_at_backEm, symObjAddr: 0x4EBC, symBinAddr: 0x10001E77C, symSize: 0x62 }
  - { offsetInCU: 0x15D1C, offset: 0xA6C9F, size: 0x8, addend: 0x0, symName: __ZNKSt11_Deque_baseIP12SimPortEventIN6tinyrv14FunctionalUnit7entry_tEESaIS5_EE20_M_get_map_allocatorEv, symObjAddr: 0x4E60, symBinAddr: 0x10001E720, symSize: 0x3A }
  - { offsetInCU: 0x15DA3, offset: 0xA6D26, size: 0x8, addend: 0x0, symName: __ZNSt11_Deque_baseIP12SimPortEventIN6tinyrv14FunctionalUnit7entry_tEESaIS5_EE15_M_create_nodesEPPS5_S9_, symObjAddr: 0x4DE0, symBinAddr: 0x10001E6A0, symSize: 0x80 }
  - { offsetInCU: 0x15DAB, offset: 0xA6D2E, size: 0x8, addend: 0x0, symName: __ZNKSt11_Deque_baseIP12SimPortEventIN6tinyrv14FunctionalUnit7entry_tEESaIS5_EE20_M_get_map_allocatorEv, symObjAddr: 0x4E60, symBinAddr: 0x10001E720, symSize: 0x3A }
  - { offsetInCU: 0x15E0F, offset: 0xA6D92, size: 0x8, addend: 0x0, symName: __ZNSt11_Deque_baseIP12SimPortEventIN6tinyrv14FunctionalUnit7entry_tEESaIS5_EE15_M_allocate_mapEm, symObjAddr: 0x4D64, symBinAddr: 0x10001E624, symSize: 0x7C }
  - { offsetInCU: 0x15E17, offset: 0xA6D9A, size: 0x8, addend: 0x0, symName: __ZNSt11_Deque_baseIP12SimPortEventIN6tinyrv14FunctionalUnit7entry_tEESaIS5_EE15_M_create_nodesEPPS5_S9_, symObjAddr: 0x4DE0, symBinAddr: 0x10001E6A0, symSize: 0x80 }
  - { offsetInCU: 0x15F51, offset: 0xA6ED4, size: 0x8, addend: 0x0, symName: __ZNSt15__new_allocatorIP12SimPortEventIN6tinyrv14FunctionalUnit7entry_tEEED2Ev, symObjAddr: 0x4D58, symBinAddr: 0x10001E618, symSize: 0xC }
  - { offsetInCU: 0x15FAD, offset: 0xA6F30, size: 0x8, addend: 0x0, symName: __ZNSt11_Deque_baseIP12SimPortEventIN6tinyrv14FunctionalUnit7entry_tEESaIS5_EE16_Deque_impl_dataC2Ev, symObjAddr: 0x4D12, symBinAddr: 0x10001E5D2, symSize: 0x46 }
  - { offsetInCU: 0x15FB5, offset: 0xA6F38, size: 0x8, addend: 0x0, symName: __ZNSt15__new_allocatorIP12SimPortEventIN6tinyrv14FunctionalUnit7entry_tEEED2Ev, symObjAddr: 0x4D58, symBinAddr: 0x10001E618, symSize: 0xC }
  - { offsetInCU: 0x1603F, offset: 0xA6FC2, size: 0x8, addend: 0x0, symName: __ZSt23__copy_move_backward_a2ILb0EPPPN6tinyrv16pipeline_trace_tES4_ET1_T0_S6_S5_, symObjAddr: 0x4CE5, symBinAddr: 0x10001E5A5, symSize: 0x2D }
  - { offsetInCU: 0x16047, offset: 0xA6FCA, size: 0x8, addend: 0x0, symName: __ZNSt11_Deque_baseIP12SimPortEventIN6tinyrv14FunctionalUnit7entry_tEESaIS5_EE16_Deque_impl_dataC2Ev, symObjAddr: 0x4D12, symBinAddr: 0x10001E5D2, symSize: 0x46 }
  - { offsetInCU: 0x160BC, offset: 0xA703F, size: 0x8, addend: 0x0, symName: __ZSt14__copy_move_a2ILb0EPPPN6tinyrv16pipeline_trace_tES4_ET1_T0_S6_S5_, symObjAddr: 0x4CB8, symBinAddr: 0x10001E578, symSize: 0x2D }
  - { offsetInCU: 0x160C4, offset: 0xA7047, size: 0x8, addend: 0x0, symName: __ZSt23__copy_move_backward_a2ILb0EPPPN6tinyrv16pipeline_trace_tES4_ET1_T0_S6_S5_, symObjAddr: 0x4CE5, symBinAddr: 0x10001E5A5, symSize: 0x2D }
  - { offsetInCU: 0x16145, offset: 0xA70C8, size: 0x8, addend: 0x0, symName: __ZSt13__copy_move_aILb1EPPN6tinyrv16pipeline_trace_tES3_ET1_T0_S5_S4_, symObjAddr: 0x4C4E, symBinAddr: 0x10001E50E, symSize: 0x6A }
  - { offsetInCU: 0x1614D, offset: 0xA70D0, size: 0x8, addend: 0x0, symName: __ZSt14__copy_move_a2ILb0EPPPN6tinyrv16pipeline_trace_tES4_ET1_T0_S6_S5_, symObjAddr: 0x4CB8, symBinAddr: 0x10001E578, symSize: 0x2D }
  - { offsetInCU: 0x161AE, offset: 0xA7131, size: 0x8, addend: 0x0, symName: __ZSt12__miter_baseIPPN6tinyrv16pipeline_trace_tEEDTcl12__miter_basecldtfp_4baseEEESt13move_iteratorIT_E, symObjAddr: 0x4C2C, symBinAddr: 0x10001E4EC, symSize: 0x22 }
  - { offsetInCU: 0x161B6, offset: 0xA7139, size: 0x8, addend: 0x0, symName: __ZSt13__copy_move_aILb1EPPN6tinyrv16pipeline_trace_tES3_ET1_T0_S5_S4_, symObjAddr: 0x4C4E, symBinAddr: 0x10001E50E, symSize: 0x6A }
  - { offsetInCU: 0x16189, offset: 0xA710C, size: 0x8, addend: 0x0, symName: __ZNSt15__new_allocatorISt10_List_nodeISt10shared_ptrI12SimEventBaseEEE8allocateEmPKv, symObjAddr: 0x4BC6, symBinAddr: 0x10001E486, symSize: 0x66 }
  - { offsetInCU: 0x16191, offset: 0xA7114, size: 0x8, addend: 0x0, symName: __ZSt12__miter_baseIPPN6tinyrv16pipeline_trace_tEEDTcl12__miter_basecldtfp_4baseEEESt13move_iteratorIT_E, symObjAddr: 0x4C2C, symBinAddr: 0x10001E4EC, symSize: 0x22 }
  - { offsetInCU: 0x161FD, offset: 0xA7180, size: 0x8, addend: 0x0, symName: __ZNSt5dequeIP12SimPortEventIN6tinyrv14FunctionalUnit7entry_tEESaIS5_EE16_M_push_back_auxIJS5_EEEvDpOT_, symObjAddr: 0x4A7E, symBinAddr: 0x10001E372, symSize: 0x114 }
  - { offsetInCU: 0x163C6, offset: 0xA7349, size: 0x8, addend: 0x0, symName: __ZSt7forwardIP12SimPortEventIN6tinyrv14FunctionalUnit7entry_tEEEOT_RNSt16remove_referenceIS6_E4typeE, symObjAddr: 0x4A6F, symBinAddr: 0x10001E363, symSize: 0xF }
  - { offsetInCU: 0x16379, offset: 0xA72FC, size: 0x8, addend: 0x0, symName: __ZNSt15_Deque_iteratorIP12SimPortEventIN6tinyrv14FunctionalUnit7entry_tEERS5_PS5_E14_S_buffer_sizeEv, symObjAddr: 0x4A5F, symBinAddr: 0x10001E353, symSize: 0x10 }
  - { offsetInCU: 0x16381, offset: 0xA7304, size: 0x8, addend: 0x0, symName: __ZSt7forwardIP12SimPortEventIN6tinyrv14FunctionalUnit7entry_tEEEOT_RNSt16remove_referenceIS6_E4typeE, symObjAddr: 0x4A6F, symBinAddr: 0x10001E363, symSize: 0xF }
  - { offsetInCU: 0x16397, offset: 0xA731A, size: 0x8, addend: 0x0, symName: __ZNSt11_Deque_baseIP12SimPortEventIN6tinyrv14FunctionalUnit7entry_tEESaIS5_EE18_M_deallocate_nodeEPS5_, symObjAddr: 0x4A16, symBinAddr: 0x10001E30A, symSize: 0x49 }
  - { offsetInCU: 0x1639F, offset: 0xA7322, size: 0x8, addend: 0x0, symName: __ZNSt15_Deque_iteratorIP12SimPortEventIN6tinyrv14FunctionalUnit7entry_tEERS5_PS5_E14_S_buffer_sizeEv, symObjAddr: 0x4A5F, symBinAddr: 0x10001E353, symSize: 0x10 }
  - { offsetInCU: 0x1644E, offset: 0xA73D1, size: 0x8, addend: 0x0, symName: __ZNSt15_Deque_iteratorIP12SimPortEventIN6tinyrv14FunctionalUnit7entry_tEERS5_PS5_E11_M_set_nodeEPS7_, symObjAddr: 0x49C6, symBinAddr: 0x10001E2BA, symSize: 0x50 }
  - { offsetInCU: 0x16456, offset: 0xA73D9, size: 0x8, addend: 0x0, symName: __ZNSt11_Deque_baseIP12SimPortEventIN6tinyrv14FunctionalUnit7entry_tEESaIS5_EE18_M_deallocate_nodeEPS5_, symObjAddr: 0x4A16, symBinAddr: 0x10001E30A, symSize: 0x49 }
  - { offsetInCU: 0x16491, offset: 0xA7414, size: 0x8, addend: 0x0, symName: __ZNSt11_Deque_baseIP12SimPortEventIN6tinyrv14FunctionalUnit7entry_tEESaIS5_EE17_M_deallocate_mapEPPS5_m, symObjAddr: 0x4966, symBinAddr: 0x10001E25A, symSize: 0x60 }
  - { offsetInCU: 0x1655B, offset: 0xA74DE, size: 0x8, addend: 0x0, symName: __ZNSt11_Deque_baseIP12SimPortEventIN6tinyrv14FunctionalUnit7entry_tEESaIS5_EE16_M_destroy_nodesEPPS5_S9_, symObjAddr: 0x491E, symBinAddr: 0x10001E212, symSize: 0x48 }
  - { offsetInCU: 0x165D8, offset: 0xA755B, size: 0x8, addend: 0x0, symName: __ZNSt11_Deque_baseIP12SimPortEventIN6tinyrv14FunctionalUnit7entry_tEESaIS5_EE17_M_initialize_mapEm, symObjAddr: 0x4776, symBinAddr: 0x10001E06A, symSize: 0x1A8 }
  - { offsetInCU: 0x166F8, offset: 0xA767B, size: 0x8, addend: 0x0, symName: __ZNSt11_Deque_baseIP12SimPortEventIN6tinyrv14FunctionalUnit7entry_tEESaIS5_EE11_Deque_implC1Ev, symObjAddr: 0x4748, symBinAddr: 0x10001E03C, symSize: 0x2E }
  - { offsetInCU: 0x167C2, offset: 0xA7745, size: 0x8, addend: 0x0, symName: __ZSt23__copy_move_backward_a1ILb0EPPPN6tinyrv16pipeline_trace_tES4_ET1_T0_S6_S5_, symObjAddr: 0x471A, symBinAddr: 0x10001E00E, symSize: 0x2E }
  - { offsetInCU: 0x1680E, offset: 0xA7791, size: 0x8, addend: 0x0, symName: __ZSt12__niter_wrapIPPPN6tinyrv16pipeline_trace_tEET_RKS5_S5_, symObjAddr: 0x4708, symBinAddr: 0x10001DFFC, symSize: 0x12 }
  - { offsetInCU: 0x16816, offset: 0xA7799, size: 0x8, addend: 0x0, symName: __ZSt23__copy_move_backward_a1ILb0EPPPN6tinyrv16pipeline_trace_tES4_ET1_T0_S6_S5_, symObjAddr: 0x471A, symBinAddr: 0x10001E00E, symSize: 0x2E }
  - { offsetInCU: 0x16897, offset: 0xA781A, size: 0x8, addend: 0x0, symName: __ZSt14__copy_move_a1ILb0EPPPN6tinyrv16pipeline_trace_tES4_ET1_T0_S6_S5_, symObjAddr: 0x46DB, symBinAddr: 0x10001DFCF, symSize: 0x2D }
  - { offsetInCU: 0x1689F, offset: 0xA7822, size: 0x8, addend: 0x0, symName: __ZSt12__niter_wrapIPPPN6tinyrv16pipeline_trace_tEET_RKS5_S5_, symObjAddr: 0x4708, symBinAddr: 0x10001DFFC, symSize: 0x12 }
  - { offsetInCU: 0x168F0, offset: 0xA7873, size: 0x8, addend: 0x0, symName: __ZSt12__niter_baseIPPPN6tinyrv16pipeline_trace_tEET_S5_, symObjAddr: 0x46CD, symBinAddr: 0x10001DFC1, symSize: 0xE }
  - { offsetInCU: 0x168F8, offset: 0xA787B, size: 0x8, addend: 0x0, symName: __ZSt14__copy_move_a1ILb0EPPPN6tinyrv16pipeline_trace_tES4_ET1_T0_S6_S5_, symObjAddr: 0x46DB, symBinAddr: 0x10001DFCF, symSize: 0x2D }
  - { offsetInCU: 0x168D5, offset: 0xA7858, size: 0x8, addend: 0x0, symName: __ZNSt15__new_allocatorIN7SimPortIN6tinyrv14FunctionalUnit7entry_tEE11timed_pkt_tEE10deallocateEPS5_m, symObjAddr: 0x46AA, symBinAddr: 0x10001DF9E, symSize: 0x23 }
  - { offsetInCU: 0x168DD, offset: 0xA7860, size: 0x8, addend: 0x0, symName: __ZSt12__niter_baseIPPPN6tinyrv16pipeline_trace_tEET_S5_, symObjAddr: 0x46CD, symBinAddr: 0x10001DFC1, symSize: 0xE }
  - { offsetInCU: 0x169CA, offset: 0xA794D, size: 0x8, addend: 0x0, symName: __ZSt4copyISt13move_iteratorIPPN6tinyrv16pipeline_trace_tEES4_ET0_T_S7_S6_, symObjAddr: 0x465E, symBinAddr: 0x10001DF52, symSize: 0x4C }
  - { offsetInCU: 0x16A4A, offset: 0xA79CD, size: 0x8, addend: 0x0, symName: __ZNSt10shared_ptrI12SimEventBaseEC1ERKS1_, symObjAddr: 0x4638, symBinAddr: 0x10001DF2C, symSize: 0x26 }
  - { offsetInCU: 0x16A52, offset: 0xA79D5, size: 0x8, addend: 0x0, symName: __ZSt4copyISt13move_iteratorIPPN6tinyrv16pipeline_trace_tEES4_ET0_T_S7_S6_, symObjAddr: 0x465E, symBinAddr: 0x10001DF52, symSize: 0x4C }
  - { offsetInCU: 0x16AC5, offset: 0xA7A48, size: 0x8, addend: 0x0, symName: __ZNSt12__shared_ptrI12SimEventBaseLN9__gnu_cxx12_Lock_policyE2EEC2ERKS3_, symObjAddr: 0x45FC, symBinAddr: 0x10001DEF0, symSize: 0x3C }
  - { offsetInCU: 0x16ACD, offset: 0xA7A50, size: 0x8, addend: 0x0, symName: __ZNSt10shared_ptrI12SimEventBaseEC1ERKS1_, symObjAddr: 0x4638, symBinAddr: 0x10001DF2C, symSize: 0x26 }
  - { offsetInCU: 0x16B56, offset: 0xA7AD9, size: 0x8, addend: 0x0, symName: __ZSt11__addressofISaISt10_List_nodeISt10shared_ptrI12SimEventBaseEEEEPT_RS6_, symObjAddr: 0x45ED, symBinAddr: 0x10001DEE1, symSize: 0xF }
  - { offsetInCU: 0x16BC5, offset: 0xA7B48, size: 0x8, addend: 0x0, symName: __ZNSt15_Sp_counted_ptrIP12SimPortEventIN6tinyrv14FunctionalUnit7entry_tEELN9__gnu_cxx12_Lock_policyE2EEC1ES5_, symObjAddr: 0x45B0, symBinAddr: 0x10001DEA4, symSize: 0x3D }
  - { offsetInCU: 0x16BCD, offset: 0xA7B50, size: 0x8, addend: 0x0, symName: __ZSt11__addressofISaISt10_List_nodeISt10shared_ptrI12SimEventBaseEEEEPT_RS6_, symObjAddr: 0x45ED, symBinAddr: 0x10001DEE1, symSize: 0xF }
  - { offsetInCU: 0x16B91, offset: 0xA7B14, size: 0x8, addend: 0x0, symName: __ZNSt5dequeIP12SimPortEventIN6tinyrv14FunctionalUnit7entry_tEESaIS5_EE12emplace_backIJS5_EEEvDpOT_, symObjAddr: 0x44DA, symBinAddr: 0x10001DDCE, symSize: 0xD6 }
  - { offsetInCU: 0x16CC4, offset: 0xA7C47, size: 0x8, addend: 0x0, symName: __ZStmiRKSt15_Deque_iteratorIP12SimPortEventIN6tinyrv14FunctionalUnit7entry_tEERS5_PS5_ESA_, symObjAddr: 0x4450, symBinAddr: 0x10001DD44, symSize: 0x8A }
  - { offsetInCU: 0x16CCC, offset: 0xA7C4F, size: 0x8, addend: 0x0, symName: __ZNSt5dequeIP12SimPortEventIN6tinyrv14FunctionalUnit7entry_tEESaIS5_EE12emplace_backIJS5_EEEvDpOT_, symObjAddr: 0x44DA, symBinAddr: 0x10001DDCE, symSize: 0xD6 }
  - { offsetInCU: 0x16CBD, offset: 0xA7C40, size: 0x8, addend: 0x0, symName: __ZNSt5dequeIP12SimPortEventIN6tinyrv14FunctionalUnit7entry_tEESaIS5_EE15_M_pop_back_auxEv, symObjAddr: 0x43C4, symBinAddr: 0x10001DCB8, symSize: 0x8C }
  - { offsetInCU: 0x16CC5, offset: 0xA7C48, size: 0x8, addend: 0x0, symName: __ZStmiRKSt15_Deque_iteratorIP12SimPortEventIN6tinyrv14FunctionalUnit7entry_tEERS5_PS5_ESA_, symObjAddr: 0x4450, symBinAddr: 0x10001DD44, symSize: 0x8A }
  - { offsetInCU: 0x16D8B, offset: 0xA7D0E, size: 0x8, addend: 0x0, symName: __ZNKSt15_Deque_iteratorIP12SimPortEventIN6tinyrv14FunctionalUnit7entry_tEERS5_PS5_EdeEv, symObjAddr: 0x43B2, symBinAddr: 0x10001DCA6, symSize: 0x12 }
  - { offsetInCU: 0x16DBA, offset: 0xA7D3D, size: 0x8, addend: 0x0, symName: __ZNSt15_Deque_iteratorIP12SimPortEventIN6tinyrv14FunctionalUnit7entry_tEERS5_PS5_EmmEv, symObjAddr: 0x4350, symBinAddr: 0x10001DC44, symSize: 0x62 }
  - { offsetInCU: 0x16DC2, offset: 0xA7D45, size: 0x8, addend: 0x0, symName: __ZNKSt15_Deque_iteratorIP12SimPortEventIN6tinyrv14FunctionalUnit7entry_tEERS5_PS5_EdeEv, symObjAddr: 0x43B2, symBinAddr: 0x10001DCA6, symSize: 0x12 }
  - { offsetInCU: 0x16E4D, offset: 0xA7DD0, size: 0x8, addend: 0x0, symName: __ZSteqRKSt15_Deque_iteratorIP12SimPortEventIN6tinyrv14FunctionalUnit7entry_tEERS5_PS5_ESA_, symObjAddr: 0x432D, symBinAddr: 0x10001DC21, symSize: 0x23 }
  - { offsetInCU: 0x16E3C, offset: 0xA7DBF, size: 0x8, addend: 0x0, symName: __ZNSt5dequeIP12SimPortEventIN6tinyrv14FunctionalUnit7entry_tEESaIS5_EE15_M_destroy_dataESt15_Deque_iteratorIS5_RS5_PS5_ESB_RKS6_, symObjAddr: 0x4316, symBinAddr: 0x10001DC0A, symSize: 0x17 }
  - { offsetInCU: 0x16E44, offset: 0xA7DC7, size: 0x8, addend: 0x0, symName: __ZSteqRKSt15_Deque_iteratorIP12SimPortEventIN6tinyrv14FunctionalUnit7entry_tEERS5_PS5_ESA_, symObjAddr: 0x432D, symBinAddr: 0x10001DC21, symSize: 0x23 }
  - { offsetInCU: 0x16F29, offset: 0xA7EAC, size: 0x8, addend: 0x0, symName: __ZNSt15_Deque_iteratorIP12SimPortEventIN6tinyrv14FunctionalUnit7entry_tEERS5_PS5_EC1ERKS8_, symObjAddr: 0x42C8, symBinAddr: 0x10001DBBC, symSize: 0x4E }
  - { offsetInCU: 0x16F08, offset: 0xA7E8B, size: 0x8, addend: 0x0, symName: __ZNSt11_Deque_baseIP12SimPortEventIN6tinyrv14FunctionalUnit7entry_tEESaIS5_EE19_M_get_Tp_allocatorEv, symObjAddr: 0x42BA, symBinAddr: 0x10001DBAE, symSize: 0xE }
  - { offsetInCU: 0x16F10, offset: 0xA7E93, size: 0x8, addend: 0x0, symName: __ZNSt15_Deque_iteratorIP12SimPortEventIN6tinyrv14FunctionalUnit7entry_tEERS5_PS5_EC1ERKS8_, symObjAddr: 0x42C8, symBinAddr: 0x10001DBBC, symSize: 0x4E }
  - { offsetInCU: 0x16F37, offset: 0xA7EBA, size: 0x8, addend: 0x0, symName: __ZNSt5dequeIP12SimPortEventIN6tinyrv14FunctionalUnit7entry_tEESaIS5_EE3endEv, symObjAddr: 0x428C, symBinAddr: 0x10001DB80, symSize: 0x2E }
  - { offsetInCU: 0x16F66, offset: 0xA7EE9, size: 0x8, addend: 0x0, symName: __ZNSt5dequeIP12SimPortEventIN6tinyrv14FunctionalUnit7entry_tEESaIS5_EE5beginEv, symObjAddr: 0x425E, symBinAddr: 0x10001DB52, symSize: 0x2E }
  - { offsetInCU: 0x1700E, offset: 0xA7F91, size: 0x8, addend: 0x0, symName: __ZNSt11_Deque_baseIP12SimPortEventIN6tinyrv14FunctionalUnit7entry_tEESaIS5_EED2Ev, symObjAddr: 0x41F6, symBinAddr: 0x10001DAEA, symSize: 0x68 }
  - { offsetInCU: 0x17016, offset: 0xA7F99, size: 0x8, addend: 0x0, symName: __ZNSt5dequeIP12SimPortEventIN6tinyrv14FunctionalUnit7entry_tEESaIS5_EE5beginEv, symObjAddr: 0x425E, symBinAddr: 0x10001DB52, symSize: 0x2E }
  - { offsetInCU: 0x17055, offset: 0xA7FD8, size: 0x8, addend: 0x0, symName: __ZNSt11_Deque_baseIP12SimPortEventIN6tinyrv14FunctionalUnit7entry_tEESaIS5_EEC2Ev, symObjAddr: 0x41AA, symBinAddr: 0x10001DA9E, symSize: 0x4C }
  - { offsetInCU: 0x1705D, offset: 0xA7FE0, size: 0x8, addend: 0x0, symName: __ZNSt11_Deque_baseIP12SimPortEventIN6tinyrv14FunctionalUnit7entry_tEESaIS5_EED2Ev, symObjAddr: 0x41F6, symBinAddr: 0x10001DAEA, symSize: 0x68 }
  - { offsetInCU: 0x170BB, offset: 0xA803E, size: 0x8, addend: 0x0, symName: __ZNSt11_Deque_baseIP12SimPortEventIN6tinyrv14FunctionalUnit7entry_tEESaIS5_EE11_Deque_implD1Ev, symObjAddr: 0x4186, symBinAddr: 0x10001DA7A, symSize: 0x24 }
  - { offsetInCU: 0x170C3, offset: 0xA8046, size: 0x8, addend: 0x0, symName: __ZNSt11_Deque_baseIP12SimPortEventIN6tinyrv14FunctionalUnit7entry_tEESaIS5_EEC2Ev, symObjAddr: 0x41AA, symBinAddr: 0x10001DA9E, symSize: 0x4C }
  - { offsetInCU: 0x1715D, offset: 0xA80E0, size: 0x8, addend: 0x0, symName: __ZSt22__copy_move_backward_aILb0EPPPN6tinyrv16pipeline_trace_tES4_ET1_T0_S6_S5_, symObjAddr: 0x411C, symBinAddr: 0x10001DA10, symSize: 0x6A }
  - { offsetInCU: 0x17165, offset: 0xA80E8, size: 0x8, addend: 0x0, symName: __ZNSt11_Deque_baseIP12SimPortEventIN6tinyrv14FunctionalUnit7entry_tEESaIS5_EE11_Deque_implD1Ev, symObjAddr: 0x4186, symBinAddr: 0x10001DA7A, symSize: 0x24 }
  - { offsetInCU: 0x171DA, offset: 0xA815D, size: 0x8, addend: 0x0, symName: __ZSt13__copy_move_aILb0EPPPN6tinyrv16pipeline_trace_tES4_ET1_T0_S6_S5_, symObjAddr: 0x40B2, symBinAddr: 0x10001D9A6, symSize: 0x6A }
  - { offsetInCU: 0x171E2, offset: 0xA8165, size: 0x8, addend: 0x0, symName: __ZSt22__copy_move_backward_aILb0EPPPN6tinyrv16pipeline_trace_tES4_ET1_T0_S6_S5_, symObjAddr: 0x411C, symBinAddr: 0x10001DA10, symSize: 0x6A }
  - { offsetInCU: 0x17235, offset: 0xA81B8, size: 0x8, addend: 0x0, symName: __ZSt12__miter_baseIPPPN6tinyrv16pipeline_trace_tEET_S5_, symObjAddr: 0x40A4, symBinAddr: 0x10001D998, symSize: 0xE }
  - { offsetInCU: 0x1723D, offset: 0xA81C0, size: 0x8, addend: 0x0, symName: __ZSt13__copy_move_aILb0EPPPN6tinyrv16pipeline_trace_tES4_ET1_T0_S6_S5_, symObjAddr: 0x40B2, symBinAddr: 0x10001D9A6, symSize: 0x6A }
  - { offsetInCU: 0x1724C, offset: 0xA81CF, size: 0x8, addend: 0x0, symName: __ZNSt15_Deque_iteratorIN7SimPortIN6tinyrv14FunctionalUnit7entry_tEE11timed_pkt_tERS5_PS5_E14_S_buffer_sizeEv, symObjAddr: 0x4094, symBinAddr: 0x10001D988, symSize: 0x10 }
  - { offsetInCU: 0x17254, offset: 0xA81D7, size: 0x8, addend: 0x0, symName: __ZSt12__miter_baseIPPPN6tinyrv16pipeline_trace_tEET_S5_, symObjAddr: 0x40A4, symBinAddr: 0x10001D998, symSize: 0xE }
  - { offsetInCU: 0x172A8, offset: 0xA822B, size: 0x8, addend: 0x0, symName: __ZNSt20__uninitialized_copyILb1EE13__uninit_copyISt13move_iteratorIPPN6tinyrv16pipeline_trace_tEES6_EET0_T_S9_S8_, symObjAddr: 0x4067, symBinAddr: 0x10001D95B, symSize: 0x2D }
  - { offsetInCU: 0x172B0, offset: 0xA8233, size: 0x8, addend: 0x0, symName: __ZNSt15_Deque_iteratorIN7SimPortIN6tinyrv14FunctionalUnit7entry_tEE11timed_pkt_tERS5_PS5_E14_S_buffer_sizeEv, symObjAddr: 0x4094, symBinAddr: 0x10001D988, symSize: 0x10 }
  - { offsetInCU: 0x1738D, offset: 0xA8310, size: 0x8, addend: 0x0, symName: __ZSt4moveIRPPN6tinyrv16pipeline_trace_tEEONSt16remove_referenceIT_E4typeEOS6_, symObjAddr: 0x4059, symBinAddr: 0x10001D94D, symSize: 0xE }
  - { offsetInCU: 0x17395, offset: 0xA8318, size: 0x8, addend: 0x0, symName: __ZNSt20__uninitialized_copyILb1EE13__uninit_copyISt13move_iteratorIPPN6tinyrv16pipeline_trace_tEES6_EET0_T_S9_S8_, symObjAddr: 0x4067, symBinAddr: 0x10001D95B, symSize: 0x2D }
  - { offsetInCU: 0x17452, offset: 0xA83D5, size: 0x8, addend: 0x0, symName: __ZSt14__relocate_a_1IPN6tinyrv16pipeline_trace_tES2_ENSt9enable_ifIXsrSt24__is_bitwise_relocatableIT_vE5valueEPS5_E4typeES7_S7_S7_RSaIT0_E, symObjAddr: 0x3FF6, symBinAddr: 0x10001D8EA, symSize: 0x63 }
  - { offsetInCU: 0x1745A, offset: 0xA83DD, size: 0x8, addend: 0x0, symName: __ZSt4moveIRPPN6tinyrv16pipeline_trace_tEEONSt16remove_referenceIT_E4typeEOS6_, symObjAddr: 0x4059, symBinAddr: 0x10001D94D, symSize: 0xE }
  - { offsetInCU: 0x1748B, offset: 0xA840E, size: 0x8, addend: 0x0, symName: __ZSt12__niter_baseIPPN6tinyrv16pipeline_trace_tEET_S4_, symObjAddr: 0x3FE8, symBinAddr: 0x10001D8DC, symSize: 0xE }
  - { offsetInCU: 0x17493, offset: 0xA8416, size: 0x8, addend: 0x0, symName: __ZSt14__relocate_a_1IPN6tinyrv16pipeline_trace_tES2_ENSt9enable_ifIXsrSt24__is_bitwise_relocatableIT_vE5valueEPS5_E4typeES7_S7_S7_RSaIT0_E, symObjAddr: 0x3FF6, symBinAddr: 0x10001D8EA, symSize: 0x63 }
  - { offsetInCU: 0x1748B, offset: 0xA840E, size: 0x8, addend: 0x0, symName: __ZNSt15__allocated_ptrISaISt10_List_nodeISt10shared_ptrI12SimEventBaseEEEEaSEDn, symObjAddr: 0x3FCA, symBinAddr: 0x10001D8BE, symSize: 0x1E }
  - { offsetInCU: 0x17493, offset: 0xA8416, size: 0x8, addend: 0x0, symName: __ZSt12__niter_baseIPPN6tinyrv16pipeline_trace_tEET_S4_, symObjAddr: 0x3FE8, symBinAddr: 0x10001D8DC, symSize: 0xE }
  - { offsetInCU: 0x17594, offset: 0xA8517, size: 0x8, addend: 0x0, symName: __ZNSt15__allocated_ptrISaISt10_List_nodeISt10shared_ptrI12SimEventBaseEEEED1Ev, symObjAddr: 0x3F76, symBinAddr: 0x10001D86A, symSize: 0x54 }
  - { offsetInCU: 0x17640, offset: 0xA85C3, size: 0x8, addend: 0x0, symName: __ZNSt15__allocated_ptrISaISt10_List_nodeISt10shared_ptrI12SimEventBaseEEEEC1ERS5_PS4_, symObjAddr: 0x3F40, symBinAddr: 0x10001D834, symSize: 0x36 }
  - { offsetInCU: 0x17648, offset: 0xA85CB, size: 0x8, addend: 0x0, symName: __ZNSt15__allocated_ptrISaISt10_List_nodeISt10shared_ptrI12SimEventBaseEEEED1Ev, symObjAddr: 0x3F76, symBinAddr: 0x10001D86A, symSize: 0x54 }
  - { offsetInCU: 0x17630, offset: 0xA85B3, size: 0x8, addend: 0x0, symName: __ZNSt7__cxx1110_List_baseISt10shared_ptrI12SimEventBaseESaIS3_EE11_M_get_nodeEv, symObjAddr: 0x3F08, symBinAddr: 0x10001D7FC, symSize: 0x38 }
  - { offsetInCU: 0x17736, offset: 0xA86B9, size: 0x8, addend: 0x0, symName: __ZNSt14__shared_countILN9__gnu_cxx12_Lock_policyE2EEC1IP12SimPortEventIN6tinyrv14FunctionalUnit7entry_tEEEET_, symObjAddr: 0x3E88, symBinAddr: 0x10001D77C, symSize: 0x80 }
  - { offsetInCU: 0x17773, offset: 0xA86F6, size: 0x8, addend: 0x0, symName: __ZN12SimPortEventIN6tinyrv14FunctionalUnit7entry_tEED0Ev, symObjAddr: 0x3E62, symBinAddr: 0x10001D756, symSize: 0x26 }
  - { offsetInCU: 0x1777B, offset: 0xA86FE, size: 0x8, addend: 0x0, symName: __ZNSt14__shared_countILN9__gnu_cxx12_Lock_policyE2EEC1IP12SimPortEventIN6tinyrv14FunctionalUnit7entry_tEEEET_, symObjAddr: 0x3E88, symBinAddr: 0x10001D77C, symSize: 0x80 }
  - { offsetInCU: 0x177A1, offset: 0xA8724, size: 0x8, addend: 0x0, symName: __ZN12SimPortEventIN6tinyrv14FunctionalUnit7entry_tEED1Ev, symObjAddr: 0x3E34, symBinAddr: 0x10001D728, symSize: 0x2E }
  - { offsetInCU: 0x17796, offset: 0xA8719, size: 0x8, addend: 0x0, symName: __ZNSt5dequeIP12SimPortEventIN6tinyrv14FunctionalUnit7entry_tEESaIS5_EE9push_backEOS5_, symObjAddr: 0x3E02, symBinAddr: 0x10001D6F6, symSize: 0x32 }
  - { offsetInCU: 0x17876, offset: 0xA87F9, size: 0x8, addend: 0x0, symName: __ZSt4moveIRP12SimPortEventIN6tinyrv14FunctionalUnit7entry_tEEEONSt16remove_referenceIT_E4typeEOS8_, symObjAddr: 0x3DF3, symBinAddr: 0x10001D6E7, symSize: 0xF }
  - { offsetInCU: 0x1782D, offset: 0xA87B0, size: 0x8, addend: 0x0, symName: __ZNKSt5dequeIP12SimPortEventIN6tinyrv14FunctionalUnit7entry_tEESaIS5_EE4sizeEv, symObjAddr: 0x3DCA, symBinAddr: 0x10001D6BE, symSize: 0x29 }
  - { offsetInCU: 0x17835, offset: 0xA87B8, size: 0x8, addend: 0x0, symName: __ZSt4moveIRP12SimPortEventIN6tinyrv14FunctionalUnit7entry_tEEEONSt16remove_referenceIT_E4typeEOS8_, symObjAddr: 0x3DF3, symBinAddr: 0x10001D6E7, symSize: 0xF }
  - { offsetInCU: 0x1785C, offset: 0xA87DF, size: 0x8, addend: 0x0, symName: __ZNSt5dequeIP12SimPortEventIN6tinyrv14FunctionalUnit7entry_tEESaIS5_EE8pop_backEv, symObjAddr: 0x3D50, symBinAddr: 0x10001D644, symSize: 0x7A }
  - { offsetInCU: 0x178F0, offset: 0xA8873, size: 0x8, addend: 0x0, symName: __ZNSt5dequeIP12SimPortEventIN6tinyrv14FunctionalUnit7entry_tEESaIS5_EE4backEv, symObjAddr: 0x3D16, symBinAddr: 0x10001D60A, symSize: 0x3A }
  - { offsetInCU: 0x17933, offset: 0xA88B6, size: 0x8, addend: 0x0, symName: __ZNKSt5dequeIP12SimPortEventIN6tinyrv14FunctionalUnit7entry_tEESaIS5_EE5emptyEv, symObjAddr: 0x3CEC, symBinAddr: 0x10001D5E0, symSize: 0x2A }
  - { offsetInCU: 0x17962, offset: 0xA88E5, size: 0x8, addend: 0x0, symName: __ZN10MemoryPoolI12SimPortEventIN6tinyrv14FunctionalUnit7entry_tEEE5flushEv, symObjAddr: 0x3C9C, symBinAddr: 0x10001D590, symSize: 0x50 }
  - { offsetInCU: 0x1796A, offset: 0xA88ED, size: 0x8, addend: 0x0, symName: __ZNKSt5dequeIP12SimPortEventIN6tinyrv14FunctionalUnit7entry_tEESaIS5_EE5emptyEv, symObjAddr: 0x3CEC, symBinAddr: 0x10001D5E0, symSize: 0x2A }
  - { offsetInCU: 0x17A28, offset: 0xA89AB, size: 0x8, addend: 0x0, symName: __ZNSt5dequeIP12SimPortEventIN6tinyrv14FunctionalUnit7entry_tEESaIS5_EED1Ev, symObjAddr: 0x3C30, symBinAddr: 0x10001D524, symSize: 0x6C }
  - { offsetInCU: 0x17A30, offset: 0xA89B3, size: 0x8, addend: 0x0, symName: __ZN10MemoryPoolI12SimPortEventIN6tinyrv14FunctionalUnit7entry_tEEE5flushEv, symObjAddr: 0x3C9C, symBinAddr: 0x10001D590, symSize: 0x50 }
  - { offsetInCU: 0x17A98, offset: 0xA8A1B, size: 0x8, addend: 0x0, symName: __ZNSt5stackIP12SimPortEventIN6tinyrv14FunctionalUnit7entry_tEESt5dequeIS5_SaIS5_EEEC1IS8_vEEv, symObjAddr: 0x3BFA, symBinAddr: 0x10001D4EE, symSize: 0x36 }
  - { offsetInCU: 0x17AE1, offset: 0xA8A64, size: 0x8, addend: 0x0, symName: __ZNSt5dequeIP12SimPortEventIN6tinyrv14FunctionalUnit7entry_tEESaIS5_EEC1Ev, symObjAddr: 0x3BDE, symBinAddr: 0x10001D4D2, symSize: 0x1C }
  - { offsetInCU: 0x17B53, offset: 0xA8AD6, size: 0x8, addend: 0x0, symName: __ZSt13copy_backwardIPPPN6tinyrv16pipeline_trace_tES4_ET0_T_S6_S5_, symObjAddr: 0x3B93, symBinAddr: 0x10001D487, symSize: 0x4B }
  - { offsetInCU: 0x17B5B, offset: 0xA8ADE, size: 0x8, addend: 0x0, symName: __ZNSt5dequeIP12SimPortEventIN6tinyrv14FunctionalUnit7entry_tEESaIS5_EEC1Ev, symObjAddr: 0x3BDE, symBinAddr: 0x10001D4D2, symSize: 0x1C }
  - { offsetInCU: 0x17BC1, offset: 0xA8B44, size: 0x8, addend: 0x0, symName: __ZSt4copyIPPPN6tinyrv16pipeline_trace_tES4_ET0_T_S6_S5_, symObjAddr: 0x3B48, symBinAddr: 0x10001D43C, symSize: 0x4B }
  - { offsetInCU: 0x17BC9, offset: 0xA8B4C, size: 0x8, addend: 0x0, symName: __ZSt13copy_backwardIPPPN6tinyrv16pipeline_trace_tES4_ET0_T_S6_S5_, symObjAddr: 0x3B93, symBinAddr: 0x10001D487, symSize: 0x4B }
  - { offsetInCU: 0x17BFB, offset: 0xA8B7E, size: 0x8, addend: 0x0, symName: __ZNSt15__new_allocatorIPPN6tinyrv16pipeline_trace_tEE8allocateEmPKv, symObjAddr: 0x3AE2, symBinAddr: 0x10001D3D6, symSize: 0x66 }
  - { offsetInCU: 0x17C03, offset: 0xA8B86, size: 0x8, addend: 0x0, symName: __ZSt4copyIPPPN6tinyrv16pipeline_trace_tES4_ET0_T_S6_S5_, symObjAddr: 0x3B48, symBinAddr: 0x10001D43C, symSize: 0x4B }
  - { offsetInCU: 0x17C6F, offset: 0xA8BF2, size: 0x8, addend: 0x0, symName: __ZNSt15_Deque_iteratorIN7SimPortIN6tinyrv14FunctionalUnit7entry_tEE11timed_pkt_tERS5_PS5_E11_M_set_nodeEPS7_, symObjAddr: 0x3A86, symBinAddr: 0x10001D37A, symSize: 0x5C }
  - { offsetInCU: 0x17C77, offset: 0xA8BFA, size: 0x8, addend: 0x0, symName: __ZNSt15__new_allocatorIPPN6tinyrv16pipeline_trace_tEE8allocateEmPKv, symObjAddr: 0x3AE2, symBinAddr: 0x10001D3D6, symSize: 0x66 }
  - { offsetInCU: 0x17CB2, offset: 0xA8C35, size: 0x8, addend: 0x0, symName: __ZNSt11_Deque_baseIN7SimPortIN6tinyrv14FunctionalUnit7entry_tEE11timed_pkt_tESaIS5_EE18_M_deallocate_nodeEPS5_, symObjAddr: 0x3A3C, symBinAddr: 0x10001D330, symSize: 0x4A }
  - { offsetInCU: 0x17DF5, offset: 0xA8D78, size: 0x8, addend: 0x0, symName: __ZNSt15_Deque_iteratorIN7SimPortIN6tinyrv14FunctionalUnit7entry_tEE11timed_pkt_tERS5_PS5_EC1ERKS8_, symObjAddr: 0x39EE, symBinAddr: 0x10001D2E2, symSize: 0x4E }
  - { offsetInCU: 0x17E88, offset: 0xA8E0B, size: 0x8, addend: 0x0, symName: __ZSt18uninitialized_copyISt13move_iteratorIPPN6tinyrv16pipeline_trace_tEES4_ET0_T_S7_S6_, symObjAddr: 0x39B9, symBinAddr: 0x10001D2AD, symSize: 0x35 }
  - { offsetInCU: 0x17E90, offset: 0xA8E13, size: 0x8, addend: 0x0, symName: __ZNSt15_Deque_iteratorIN7SimPortIN6tinyrv14FunctionalUnit7entry_tEE11timed_pkt_tERS5_PS5_EC1ERKS8_, symObjAddr: 0x39EE, symBinAddr: 0x10001D2E2, symSize: 0x4E }
  - { offsetInCU: 0x17ED3, offset: 0xA8E56, size: 0x8, addend: 0x0, symName: __ZNSt13move_iteratorIPPN6tinyrv16pipeline_trace_tEEC1ES3_, symObjAddr: 0x3990, symBinAddr: 0x10001D284, symSize: 0x29 }
  - { offsetInCU: 0x17EDB, offset: 0xA8E5E, size: 0x8, addend: 0x0, symName: __ZSt18uninitialized_copyISt13move_iteratorIPPN6tinyrv16pipeline_trace_tEES4_ET0_T_S7_S6_, symObjAddr: 0x39B9, symBinAddr: 0x10001D2AD, symSize: 0x35 }
  - { offsetInCU: 0x17F94, offset: 0xA8F17, size: 0x8, addend: 0x0, symName: __ZSt12__relocate_aIPPN6tinyrv16pipeline_trace_tES3_SaIS2_EET0_T_S6_S5_RT1_, symObjAddr: 0x392C, symBinAddr: 0x10001D220, symSize: 0x64 }
  - { offsetInCU: 0x17F75, offset: 0xA8EF8, size: 0x8, addend: 0x0, symName: __ZNSt15__new_allocatorIPN6tinyrv16pipeline_trace_tEE8allocateEmPKv, symObjAddr: 0x38C6, symBinAddr: 0x10001D1BA, symSize: 0x66 }
  - { offsetInCU: 0x17F7D, offset: 0xA8F00, size: 0x8, addend: 0x0, symName: __ZSt12__relocate_aIPPN6tinyrv16pipeline_trace_tES3_SaIS2_EET0_T_S6_S5_RT1_, symObjAddr: 0x392C, symBinAddr: 0x10001D220, symSize: 0x64 }
  - { offsetInCU: 0x17FE9, offset: 0xA8F6C, size: 0x8, addend: 0x0, symName: __ZNKSt12_Vector_baseIPN6tinyrv16pipeline_trace_tESaIS2_EE19_M_get_Tp_allocatorEv, symObjAddr: 0x38B8, symBinAddr: 0x10001D1AC, symSize: 0xE }
  - { offsetInCU: 0x17FF1, offset: 0xA8F74, size: 0x8, addend: 0x0, symName: __ZNSt15__new_allocatorIPN6tinyrv16pipeline_trace_tEE8allocateEmPKv, symObjAddr: 0x38C6, symBinAddr: 0x10001D1BA, symSize: 0x66 }
  - { offsetInCU: 0x18018, offset: 0xA8F9B, size: 0x8, addend: 0x0, symName: __ZNSt6vectorIPN6tinyrv16pipeline_trace_tESaIS2_EE11_S_max_sizeERKS3_, symObjAddr: 0x385E, symBinAddr: 0x10001D152, symSize: 0x5A }
  - { offsetInCU: 0x18020, offset: 0xA8FA3, size: 0x8, addend: 0x0, symName: __ZNKSt12_Vector_baseIPN6tinyrv16pipeline_trace_tESaIS2_EE19_M_get_Tp_allocatorEv, symObjAddr: 0x38B8, symBinAddr: 0x10001D1AC, symSize: 0xE }
  - { offsetInCU: 0x180E5, offset: 0xA9068, size: 0x8, addend: 0x0, symName: __ZNSt7__cxx1110_List_baseISt10shared_ptrI12SimEventBaseESaIS3_EE11_M_inc_sizeEm, symObjAddr: 0x3838, symBinAddr: 0x10001D12C, symSize: 0x26 }
  - { offsetInCU: 0x180ED, offset: 0xA9070, size: 0x8, addend: 0x0, symName: __ZNSt6vectorIPN6tinyrv16pipeline_trace_tESaIS2_EE11_S_max_sizeERKS3_, symObjAddr: 0x385E, symBinAddr: 0x10001D152, symSize: 0x5A }
  - { offsetInCU: 0x18132, offset: 0xA90B5, size: 0x8, addend: 0x0, symName: __ZNSt7__cxx114listISt10shared_ptrI12SimEventBaseESaIS3_EE14_M_create_nodeIJRS3_EEEPSt10_List_nodeIS3_EDpOT_, symObjAddr: 0x374E, symBinAddr: 0x10001D042, symSize: 0xEA }
  - { offsetInCU: 0x1813A, offset: 0xA90BD, size: 0x8, addend: 0x0, symName: __ZNSt7__cxx1110_List_baseISt10shared_ptrI12SimEventBaseESaIS3_EE11_M_inc_sizeEm, symObjAddr: 0x3838, symBinAddr: 0x10001D12C, symSize: 0x26 }
  - { offsetInCU: 0x18241, offset: 0xA91C4, size: 0x8, addend: 0x0, symName: __ZNSt12__shared_ptrI12SimEventBaseLN9__gnu_cxx12_Lock_policyE2EE31_M_enable_shared_from_this_withI12SimPortEventIN6tinyrv14FunctionalUnit7entry_tEES9_EENSt9enable_ifIXntsrNS3_15__has_esft_baseIT0_vEE5valueEvE4typeEPT_, symObjAddr: 0x373E, symBinAddr: 0x10001D032, symSize: 0x10 }
  - { offsetInCU: 0x18361, offset: 0xA92E4, size: 0x8, addend: 0x0, symName: __ZNSt14__shared_countILN9__gnu_cxx12_Lock_policyE2EEC1IP12SimPortEventIN6tinyrv14FunctionalUnit7entry_tEEEET_St17integral_constantIbLb0EE, symObjAddr: 0x3718, symBinAddr: 0x10001D00C, symSize: 0x26 }
  - { offsetInCU: 0x18369, offset: 0xA92EC, size: 0x8, addend: 0x0, symName: __ZNSt12__shared_ptrI12SimEventBaseLN9__gnu_cxx12_Lock_policyE2EE31_M_enable_shared_from_this_withI12SimPortEventIN6tinyrv14FunctionalUnit7entry_tEES9_EENSt9enable_ifIXntsrNS3_15__has_esft_baseIT0_vEE5valueEvE4typeEPT_, symObjAddr: 0x373E, symBinAddr: 0x10001D032, symSize: 0x10 }
  - { offsetInCU: 0x1832A, offset: 0xA92AD, size: 0x8, addend: 0x0, symName: __ZNSt5stackIP12SimPortEventIN6tinyrv14FunctionalUnit7entry_tEESt5dequeIS5_SaIS5_EEE4pushEOS5_, symObjAddr: 0x36E4, symBinAddr: 0x10001CFD8, symSize: 0x34 }
  - { offsetInCU: 0x1836D, offset: 0xA92F0, size: 0x8, addend: 0x0, symName: __ZNKSt5stackIP12SimPortEventIN6tinyrv14FunctionalUnit7entry_tEESt5dequeIS5_SaIS5_EEE4sizeEv, symObjAddr: 0x36CA, symBinAddr: 0x10001CFBE, symSize: 0x1A }
  - { offsetInCU: 0x18375, offset: 0xA92F8, size: 0x8, addend: 0x0, symName: __ZNSt5stackIP12SimPortEventIN6tinyrv14FunctionalUnit7entry_tEESt5dequeIS5_SaIS5_EEE4pushEOS5_, symObjAddr: 0x36E4, symBinAddr: 0x10001CFD8, symSize: 0x34 }
  - { offsetInCU: 0x1839C, offset: 0xA931F, size: 0x8, addend: 0x0, symName: __ZNSt5stackIP12SimPortEventIN6tinyrv14FunctionalUnit7entry_tEESt5dequeIS5_SaIS5_EEE3popEv, symObjAddr: 0x36AE, symBinAddr: 0x10001CFA2, symSize: 0x1C }
  - { offsetInCU: 0x183CB, offset: 0xA934E, size: 0x8, addend: 0x0, symName: __ZNSt5stackIP12SimPortEventIN6tinyrv14FunctionalUnit7entry_tEESt5dequeIS5_SaIS5_EEE3topEv, symObjAddr: 0x3694, symBinAddr: 0x10001CF88, symSize: 0x1A }
  - { offsetInCU: 0x183D3, offset: 0xA9356, size: 0x8, addend: 0x0, symName: __ZNSt5stackIP12SimPortEventIN6tinyrv14FunctionalUnit7entry_tEESt5dequeIS5_SaIS5_EEE3popEv, symObjAddr: 0x36AE, symBinAddr: 0x10001CFA2, symSize: 0x1C }
  - { offsetInCU: 0x183FA, offset: 0xA937D, size: 0x8, addend: 0x0, symName: __ZNKSt5stackIP12SimPortEventIN6tinyrv14FunctionalUnit7entry_tEESt5dequeIS5_SaIS5_EEE5emptyEv, symObjAddr: 0x367A, symBinAddr: 0x10001CF6E, symSize: 0x1A }
  - { offsetInCU: 0x18402, offset: 0xA9385, size: 0x8, addend: 0x0, symName: __ZNSt5stackIP12SimPortEventIN6tinyrv14FunctionalUnit7entry_tEESt5dequeIS5_SaIS5_EEE3topEv, symObjAddr: 0x3694, symBinAddr: 0x10001CF88, symSize: 0x1A }
  - { offsetInCU: 0x18497, offset: 0xA941A, size: 0x8, addend: 0x0, symName: __ZN10MemoryPoolI12SimPortEventIN6tinyrv14FunctionalUnit7entry_tEEED1Ev, symObjAddr: 0x3652, symBinAddr: 0x10001CF46, symSize: 0x28 }
  - { offsetInCU: 0x184EE, offset: 0xA9471, size: 0x8, addend: 0x0, symName: __ZN10MemoryPoolI12SimPortEventIN6tinyrv14FunctionalUnit7entry_tEEEC1Ej, symObjAddr: 0x362A, symBinAddr: 0x10001CF1E, symSize: 0x28 }
  - { offsetInCU: 0x184F6, offset: 0xA9479, size: 0x8, addend: 0x0, symName: __ZN10MemoryPoolI12SimPortEventIN6tinyrv14FunctionalUnit7entry_tEEED1Ev, symObjAddr: 0x3652, symBinAddr: 0x10001CF46, symSize: 0x28 }
  - { offsetInCU: 0x18564, offset: 0xA94E7, size: 0x8, addend: 0x0, symName: __ZNSt5stackIP12SimPortEventIN6tinyrv14FunctionalUnit7entry_tEESt5dequeIS5_SaIS5_EEED1Ev, symObjAddr: 0x360E, symBinAddr: 0x10001CF02, symSize: 0x1C }
  - { offsetInCU: 0x1853A, offset: 0xA94BD, size: 0x8, addend: 0x0, symName: __ZNSt5dequeIPN6tinyrv16pipeline_trace_tESaIS2_EE17_M_reallocate_mapEmb, symObjAddr: 0x33EE, symBinAddr: 0x10001CCE2, symSize: 0x220 }
  - { offsetInCU: 0x1860B, offset: 0xA958E, size: 0x8, addend: 0x0, symName: __ZNSt5dequeIPN6tinyrv16pipeline_trace_tESaIS2_EE11_S_max_sizeERKS3_, symObjAddr: 0x3393, symBinAddr: 0x10001CC87, symSize: 0x5B }
  - { offsetInCU: 0x18726, offset: 0xA96A9, size: 0x8, addend: 0x0, symName: __ZStmiRKSt15_Deque_iteratorIPN6tinyrv16pipeline_trace_tERS2_PS2_ES7_, symObjAddr: 0x3309, symBinAddr: 0x10001CBFD, symSize: 0x8A }
  - { offsetInCU: 0x1872E, offset: 0xA96B1, size: 0x8, addend: 0x0, symName: __ZNSt5dequeIPN6tinyrv16pipeline_trace_tESaIS2_EE11_S_max_sizeERKS3_, symObjAddr: 0x3393, symBinAddr: 0x10001CC87, symSize: 0x5B }
  - { offsetInCU: 0x18735, offset: 0xA96B8, size: 0x8, addend: 0x0, symName: __ZNSt15__new_allocatorIPPN6tinyrv16pipeline_trace_tEE10deallocateEPS3_m, symObjAddr: 0x32E6, symBinAddr: 0x10001CBDA, symSize: 0x23 }
  - { offsetInCU: 0x1873D, offset: 0xA96C0, size: 0x8, addend: 0x0, symName: __ZStmiRKSt15_Deque_iteratorIPN6tinyrv16pipeline_trace_tERS2_PS2_ES7_, symObjAddr: 0x3309, symBinAddr: 0x10001CBFD, symSize: 0x8A }
  - { offsetInCU: 0x187EB, offset: 0xA976E, size: 0x8, addend: 0x0, symName: __ZNSt15__new_allocatorIPPN6tinyrv16pipeline_trace_tEED2Ev, symObjAddr: 0x32DA, symBinAddr: 0x10001CBCE, symSize: 0xC }
  - { offsetInCU: 0x1880E, offset: 0xA9791, size: 0x8, addend: 0x0, symName: __ZNKSt11_Deque_baseIPN6tinyrv16pipeline_trace_tESaIS2_EE19_M_get_Tp_allocatorEv, symObjAddr: 0x32CC, symBinAddr: 0x10001CBC0, symSize: 0xE }
  - { offsetInCU: 0x18816, offset: 0xA9799, size: 0x8, addend: 0x0, symName: __ZNSt15__new_allocatorIPPN6tinyrv16pipeline_trace_tEED2Ev, symObjAddr: 0x32DA, symBinAddr: 0x10001CBCE, symSize: 0xC }
  - { offsetInCU: 0x1883D, offset: 0xA97C0, size: 0x8, addend: 0x0, symName: __ZNSt15_Deque_iteratorIPN6tinyrv16pipeline_trace_tERS2_PS2_E14_S_buffer_sizeEv, symObjAddr: 0x32BC, symBinAddr: 0x10001CBB0, symSize: 0x10 }
  - { offsetInCU: 0x18845, offset: 0xA97C8, size: 0x8, addend: 0x0, symName: __ZNKSt11_Deque_baseIPN6tinyrv16pipeline_trace_tESaIS2_EE19_M_get_Tp_allocatorEv, symObjAddr: 0x32CC, symBinAddr: 0x10001CBC0, symSize: 0xE }
  - { offsetInCU: 0x188E2, offset: 0xA9865, size: 0x8, addend: 0x0, symName: __ZNSt15_Deque_iteratorIPN6tinyrv16pipeline_trace_tERS2_PS2_EC1Ev, symObjAddr: 0x3282, symBinAddr: 0x10001CB76, symSize: 0x3A }
  - { offsetInCU: 0x188EA, offset: 0xA986D, size: 0x8, addend: 0x0, symName: __ZNSt15_Deque_iteratorIPN6tinyrv16pipeline_trace_tERS2_PS2_E14_S_buffer_sizeEv, symObjAddr: 0x32BC, symBinAddr: 0x10001CBB0, symSize: 0x10 }
  - { offsetInCU: 0x188CF, offset: 0xA9852, size: 0x8, addend: 0x0, symName: __ZNSt5dequeIN7SimPortIN6tinyrv14FunctionalUnit7entry_tEE11timed_pkt_tESaIS5_EE16_M_pop_front_auxEv, symObjAddr: 0x31B2, symBinAddr: 0x10001CAEE, symSize: 0x88 }
  - { offsetInCU: 0x1899D, offset: 0xA9920, size: 0x8, addend: 0x0, symName: __ZNSt11_Deque_baseIN7SimPortIN6tinyrv14FunctionalUnit7entry_tEE11timed_pkt_tESaIS5_EE19_M_get_Tp_allocatorEv, symObjAddr: 0x31A4, symBinAddr: 0x10001CAE0, symSize: 0xE }
  - { offsetInCU: 0x189A5, offset: 0xA9928, size: 0x8, addend: 0x0, symName: __ZNSt5dequeIN7SimPortIN6tinyrv14FunctionalUnit7entry_tEE11timed_pkt_tESaIS5_EE16_M_pop_front_auxEv, symObjAddr: 0x31B2, symBinAddr: 0x10001CAEE, symSize: 0x88 }
  - { offsetInCU: 0x189CC, offset: 0xA994F, size: 0x8, addend: 0x0, symName: __ZNKSt15_Deque_iteratorIN7SimPortIN6tinyrv14FunctionalUnit7entry_tEE11timed_pkt_tERS5_PS5_EdeEv, symObjAddr: 0x3192, symBinAddr: 0x10001CACE, symSize: 0x12 }
  - { offsetInCU: 0x189FB, offset: 0xA997E, size: 0x8, addend: 0x0, symName: __ZNSt5dequeIN7SimPortIN6tinyrv14FunctionalUnit7entry_tEE11timed_pkt_tESaIS5_EE5beginEv, symObjAddr: 0x3164, symBinAddr: 0x10001CAA0, symSize: 0x2E }
  - { offsetInCU: 0x18A96, offset: 0xA9A19, size: 0x8, addend: 0x0, symName: __ZSteqRKSt15_Deque_iteratorIN7SimPortIN6tinyrv14FunctionalUnit7entry_tEE11timed_pkt_tERS5_PS5_ESA_, symObjAddr: 0x3141, symBinAddr: 0x10001CA7D, symSize: 0x23 }
  - { offsetInCU: 0x18B68, offset: 0xA9AEB, size: 0x8, addend: 0x0, symName: __ZSt22__uninitialized_copy_aISt13move_iteratorIPPN6tinyrv16pipeline_trace_tEES4_S3_ET0_T_S7_S6_RSaIT1_E, symObjAddr: 0x3110, symBinAddr: 0x10001CA4C, symSize: 0x31 }
  - { offsetInCU: 0x18B70, offset: 0xA9AF3, size: 0x8, addend: 0x0, symName: __ZSteqRKSt15_Deque_iteratorIN7SimPortIN6tinyrv14FunctionalUnit7entry_tEE11timed_pkt_tERS5_PS5_ESA_, symObjAddr: 0x3141, symBinAddr: 0x10001CA7D, symSize: 0x23 }
  - { offsetInCU: 0x18BBA, offset: 0xA9B3D, size: 0x8, addend: 0x0, symName: __ZSt32__make_move_if_noexcept_iteratorIPN6tinyrv16pipeline_trace_tESt13move_iteratorIPS2_EET0_PT_, symObjAddr: 0x30EB, symBinAddr: 0x10001CA27, symSize: 0x25 }
  - { offsetInCU: 0x18BC2, offset: 0xA9B45, size: 0x8, addend: 0x0, symName: __ZSt22__uninitialized_copy_aISt13move_iteratorIPPN6tinyrv16pipeline_trace_tEES4_S3_ET0_T_S7_S6_RSaIT1_E, symObjAddr: 0x3110, symBinAddr: 0x10001CA4C, symSize: 0x31 }
  - { offsetInCU: 0x18B71, offset: 0xA9AF4, size: 0x8, addend: 0x0, symName: __ZNSt6vectorIPN6tinyrv16pipeline_trace_tESaIS2_EE14_S_do_relocateEPS2_S5_S5_RS3_St17integral_constantIbLb1EE, symObjAddr: 0x30B9, symBinAddr: 0x10001C9F5, symSize: 0x32 }
  - { offsetInCU: 0x18B79, offset: 0xA9AFC, size: 0x8, addend: 0x0, symName: __ZSt32__make_move_if_noexcept_iteratorIPN6tinyrv16pipeline_trace_tESt13move_iteratorIPS2_EET0_PT_, symObjAddr: 0x30EB, symBinAddr: 0x10001CA27, symSize: 0x25 }
  - { offsetInCU: 0x18C18, offset: 0xA9B9B, size: 0x8, addend: 0x0, symName: __ZNKSt6vectorIPN6tinyrv16pipeline_trace_tESaIS2_EE4sizeEv, symObjAddr: 0x3096, symBinAddr: 0x10001C9D2, symSize: 0x23 }
  - { offsetInCU: 0x18C20, offset: 0xA9BA3, size: 0x8, addend: 0x0, symName: __ZNSt6vectorIPN6tinyrv16pipeline_trace_tESaIS2_EE14_S_do_relocateEPS2_S5_S5_RS3_St17integral_constantIbLb1EE, symObjAddr: 0x30B9, symBinAddr: 0x10001C9F5, symSize: 0x32 }
  - { offsetInCU: 0x18C47, offset: 0xA9BCA, size: 0x8, addend: 0x0, symName: __ZNKSt6vectorIPN6tinyrv16pipeline_trace_tESaIS2_EE8max_sizeEv, symObjAddr: 0x3074, symBinAddr: 0x10001C9B0, symSize: 0x22 }
  - { offsetInCU: 0x18C4F, offset: 0xA9BD2, size: 0x8, addend: 0x0, symName: __ZNKSt6vectorIPN6tinyrv16pipeline_trace_tESaIS2_EE4sizeEv, symObjAddr: 0x3096, symBinAddr: 0x10001C9D2, symSize: 0x23 }
  - { offsetInCU: 0x18C76, offset: 0xA9BF9, size: 0x8, addend: 0x0, symName: __ZNSt7__cxx114listISt10shared_ptrI12SimEventBaseESaIS3_EE9_M_insertIJRS3_EEEvSt14_List_iteratorIS3_EDpOT_, symObjAddr: 0x3016, symBinAddr: 0x10001C952, symSize: 0x5E }
  - { offsetInCU: 0x18D6C, offset: 0xA9CEF, size: 0x8, addend: 0x0, symName: __ZSt7forwardIRSt10shared_ptrI12SimEventBaseEEOT_RNSt16remove_referenceIS4_E4typeE, symObjAddr: 0x3008, symBinAddr: 0x10001C944, symSize: 0xE }
  - { offsetInCU: 0x18D74, offset: 0xA9CF7, size: 0x8, addend: 0x0, symName: __ZNSt7__cxx114listISt10shared_ptrI12SimEventBaseESaIS3_EE9_M_insertIJRS3_EEEvSt14_List_iteratorIS3_EDpOT_, symObjAddr: 0x3016, symBinAddr: 0x10001C952, symSize: 0x5E }
  - { offsetInCU: 0x18DF4, offset: 0xA9D77, size: 0x8, addend: 0x0, symName: __ZNSt12__shared_ptrI12SimEventBaseLN9__gnu_cxx12_Lock_policyE2EEC2I12SimPortEventIN6tinyrv14FunctionalUnit7entry_tEEvEEPT_, symObjAddr: 0x2FC0, symBinAddr: 0x10001C8FC, symSize: 0x48 }
  - { offsetInCU: 0x18DFC, offset: 0xA9D7F, size: 0x8, addend: 0x0, symName: __ZSt7forwardIRSt10shared_ptrI12SimEventBaseEEOT_RNSt16remove_referenceIS4_E4typeE, symObjAddr: 0x3008, symBinAddr: 0x10001C944, symSize: 0xE }
  - { offsetInCU: 0x18DC0, offset: 0xA9D43, size: 0x8, addend: 0x0, symName: __ZN10MemoryPoolI12SimPortEventIN6tinyrv14FunctionalUnit7entry_tEEE10deallocateEPv, symObjAddr: 0x2F64, symBinAddr: 0x10001C8A0, symSize: 0x5C }
  - { offsetInCU: 0x18E06, offset: 0xA9D89, size: 0x8, addend: 0x0, symName: __ZN10MemoryPoolI12SimPortEventIN6tinyrv14FunctionalUnit7entry_tEEE8allocateEv, symObjAddr: 0x2F08, symBinAddr: 0x10001C844, symSize: 0x5C }
  - { offsetInCU: 0x18E0E, offset: 0xA9D91, size: 0x8, addend: 0x0, symName: __ZN10MemoryPoolI12SimPortEventIN6tinyrv14FunctionalUnit7entry_tEEE10deallocateEPv, symObjAddr: 0x2F64, symBinAddr: 0x10001C8A0, symSize: 0x5C }
